
out/dotp_tests/HE/release/dotp_tests.axf:     file format elf32-littlearm
architecture: armv3m, flags 0x00000012:
EXEC_P, HAS_SYMS
start address 0x800031cd

Sections:
Idx Name          Size      VMA       LMA       File off  Algn
  0 M55_HE_ROM    00006180  80000000  80000000  00000040  2**4
                  CONTENTS, ALLOC, LOAD, READONLY, CODE
  1 RW_RAM        00000698  20000000  20000000  000061c0  2**3
                  CONTENTS, ALLOC, LOAD, DATA
  2 RW_RAM        00000a8c  20000698  20000698  00006858  2**3
                  ALLOC
  3 ARM_LIB_HEAP  00004000  20004000  20004000  00006858  2**0
                  ALLOC
  4 APP_HEAP      00008000  20008000  20008000  00006858  2**0
                  ALLOC
  5 ARM_LIB_STACK 00002000  2003e000  2003e000  00006858  2**0
                  ALLOC
  6 PADDING       00000010  60040000  60040000  00006860  2**4
                  CONTENTS, ALLOC, LOAD, DATA
  7 .debug_abbrev 000021d1  00000000  00000000  00006870  2**0
                  CONTENTS, READONLY, DEBUGGING, OCTETS
  8 .debug_aranges 00000040  00000000  00000000  00008a41  2**0
                  CONTENTS, READONLY, DEBUGGING, OCTETS
  9 .debug_frame  000031b8  00000000  00000000  00008a81  2**0
                  CONTENTS, READONLY, DEBUGGING, OCTETS
 10 .debug_info   00021aa7  00000000  00000000  0000bc39  2**0
                  CONTENTS, READONLY, DEBUGGING, OCTETS
 11 .debug_line   0000dfa8  00000000  00000000  0002d6e0  2**0
                  CONTENTS, READONLY, DEBUGGING, OCTETS
 12 .debug_loc    0000ca5b  00000000  00000000  0003b688  2**0
                  CONTENTS, READONLY, DEBUGGING, OCTETS
 13 .debug_ranges 000040f0  00000000  00000000  000480e3  2**0
                  CONTENTS, READONLY, DEBUGGING, OCTETS
 14 .debug_str    00012492  00000000  00000000  0004c1d3  2**0
                  CONTENTS, READONLY, DEBUGGING, OCTETS
 15 .note         0000002c  00000000  00000000  00067964  2**2
                  CONTENTS, READONLY
 16 .comment      00000710  00000000  00000000  00067990  2**0
                  CONTENTS, READONLY

Disassembly of section M55_HE_ROM:

80000000 <__Vectors>:
__tagsym$$used.1():
80000000:	00 00 04 20 cd 31 00 80 9d 1f 00 80 a1 2e 00 80     ... .1..........
80000010:	c5 31 00 80 95 1f 00 80 fd 36 00 80 25 34 00 80     .1.......6..%4..
	...
8000002c:	9d 1f 00 80 9d 1f 00 80 00 00 00 00 9d 1f 00 80     ................
8000003c:	9d 1f 00 80 9d 1f 00 80 9d 1f 00 80 9d 1f 00 80     ................
8000004c:	9d 1f 00 80 9d 1f 00 80 9d 1f 00 80 9d 1f 00 80     ................
8000005c:	9d 1f 00 80 9d 1f 00 80 9d 1f 00 80 9d 1f 00 80     ................
8000006c:	9d 1f 00 80 9d 1f 00 80 9d 1f 00 80 9d 1f 00 80     ................
8000007c:	9d 1f 00 80 9d 1f 00 80 9d 1f 00 80 9d 1f 00 80     ................
8000008c:	9d 1f 00 80 9d 1f 00 80 9d 1f 00 80 9d 1f 00 80     ................
8000009c:	9d 1f 00 80 9d 1f 00 80 9d 1f 00 80 9d 1f 00 80     ................
800000ac:	9d 1f 00 80 9d 1f 00 80 9d 1f 00 80 9d 1f 00 80     ................
800000bc:	9d 1f 00 80 9d 1f 00 80 9d 1f 00 80 9d 1f 00 80     ................
800000cc:	9d 1f 00 80 9d 1f 00 80 9d 1f 00 80 9d 1f 00 80     ................
800000dc:	9d 1f 00 80 9d 1f 00 80 9d 1f 00 80 9d 1f 00 80     ................
800000ec:	9d 1f 00 80 9d 1f 00 80 f1 2f 00 80 9d 1f 00 80     ........./......
800000fc:	9d 1f 00 80 9d 1f 00 80 9d 1f 00 80 00 00 00 00     ................
	...
80000118:	9d 1f 00 80 9d 1f 00 80 9d 1f 00 80 9d 1f 00 80     ................
80000128:	a9 2f 00 80 00 00 00 00 9d 1f 00 80 9d 1f 00 80     ./..............
80000138:	9d 1f 00 80 9d 1f 00 80 00 00 00 00 00 00 00 00     ................
80000148:	00 00 00 00 9d 1f 00 80 9d 1f 00 80 9d 1f 00 80     ................
80000158:	9d 1f 00 80 9d 1f 00 80 9d 1f 00 80 9d 1f 00 80     ................
80000168:	9d 1f 00 80 00 00 00 00 00 00 00 00 00 00 00 00     ................
	...
800001c0:	9d 1f 00 80 9d 1f 00 80 9d 1f 00 80 9d 1f 00 80     ................
800001d0:	9d 1f 00 80 9d 1f 00 80 9d 1f 00 80 9d 1f 00 80     ................
800001e0:	9d 1f 00 80 9d 1f 00 80 9d 1f 00 80 9d 1f 00 80     ................
800001f0:	9d 1f 00 80 9d 1f 00 80 9d 1f 00 80 9d 1f 00 80     ................
80000200:	9d 1f 00 80 9d 1f 00 80 9d 1f 00 80 9d 1f 00 80     ................
80000210:	9d 1f 00 80 9d 1f 00 80 9d 1f 00 80 9d 1f 00 80     ................
80000220:	9d 1f 00 80 9d 1f 00 80 9d 1f 00 80 9d 1f 00 80     ................
80000230:	c1 35 00 80 cd 35 00 80 d9 35 00 80 e5 35 00 80     .5...5...5...5..
80000240:	f1 35 00 80 fd 35 00 80 09 36 00 80 15 36 00 80     .5...5...6...6..
80000250:	9d 1f 00 80 9d 1f 00 80 9d 1f 00 80 9d 1f 00 80     ................
80000260:	9d 1f 00 80 9d 1f 00 80 9d 1f 00 80 9d 1f 00 80     ................
80000270:	9d 1f 00 80 9d 1f 00 80 9d 1f 00 80 9d 1f 00 80     ................
80000280:	9d 1f 00 80 9d 1f 00 80 9d 1f 00 80 9d 1f 00 80     ................
80000290:	9d 1f 00 80 9d 1f 00 80 00 00 00 00 9d 1f 00 80     ................
800002a0:	9d 1f 00 80 9d 1f 00 80 9d 1f 00 80 9d 1f 00 80     ................
800002b0:	9d 1f 00 80 9d 1f 00 80 9d 1f 00 80 9d 1f 00 80     ................
800002c0:	9d 1f 00 80 9d 1f 00 80 9d 1f 00 80 9d 1f 00 80     ................
800002d0:	9d 1f 00 80 9d 1f 00 80 9d 1f 00 80 9d 1f 00 80     ................
800002e0:	9d 1f 00 80 9d 1f 00 80 9d 1f 00 80 a9 2e 00 80     ................
800002f0:	c9 2e 00 80 e9 2e 00 80 09 2f 00 80 29 2f 00 80     ........./..)/..
80000300:	49 2f 00 80 69 2f 00 80 89 2f 00 80 a1 1f 00 80     I/..i/.../......
80000310:	c1 1f 00 80 e1 1f 00 80 01 20 00 80 21 20 00 80     ......... ..! ..
80000320:	41 20 00 80 61 20 00 80 81 20 00 80 a1 25 00 80     A ..a ... ...%..
80000330:	c1 25 00 80 e1 25 00 80 01 26 00 80 21 26 00 80     .%...%...&..!&..
80000340:	41 26 00 80 61 26 00 80 81 26 00 80 a1 26 00 80     A&..a&...&...&..
80000350:	c1 26 00 80 e1 26 00 80 01 27 00 80 21 27 00 80     .&...&...'..!'..
80000360:	41 27 00 80 61 27 00 80 81 27 00 80 a1 27 00 80     A'..a'...'...'..
80000370:	c1 27 00 80 e1 27 00 80 01 28 00 80 21 28 00 80     .'...'...(..!(..
80000380:	41 28 00 80 61 28 00 80 81 28 00 80 a1 28 00 80     A(..a(...(...(..
80000390:	c1 28 00 80 e1 28 00 80 01 29 00 80 21 29 00 80     .(...(...)..!)..
800003a0:	41 29 00 80 61 29 00 80 81 29 00 80 a1 29 00 80     A)..a)...)...)..
800003b0:	c1 29 00 80 e1 29 00 80 01 2a 00 80 21 2a 00 80     .)...)...*..!*..
800003c0:	41 2a 00 80 61 2a 00 80 81 2a 00 80 a1 2a 00 80     A*..a*...*...*..
800003d0:	c1 2a 00 80 e1 2a 00 80 01 2b 00 80 21 2b 00 80     .*...*...+..!+..
800003e0:	41 2b 00 80 61 2b 00 80 81 2b 00 80 a1 2b 00 80     A+..a+...+...+..
800003f0:	c1 2b 00 80 e1 2b 00 80 01 2c 00 80 21 2c 00 80     .+...+...,..!,..
80000400:	41 2c 00 80 61 2c 00 80 81 2c 00 80 a1 2c 00 80     A,..a,...,...,..
80000410:	c1 2c 00 80 e1 2c 00 80 01 2d 00 80 21 2d 00 80     .,...,...-..!-..
80000420:	41 2d 00 80 61 2d 00 80 81 2d 00 80 a1 2d 00 80     A-..a-...-...-..
80000430:	c1 2d 00 80 e1 2d 00 80 01 2e 00 80 21 2e 00 80     .-...-......!...
80000440:	41 2e 00 80 61 2e 00 80 81 2e 00 80 a1 20 00 80     A...a........ ..
80000450:	c1 20 00 80 e1 20 00 80 01 21 00 80 21 21 00 80     . ... ...!..!!..
80000460:	41 21 00 80 61 21 00 80 81 21 00 80 a1 21 00 80     A!..a!...!...!..
80000470:	c1 21 00 80 e1 21 00 80 01 22 00 80 21 22 00 80     .!...!..."..!"..
80000480:	41 22 00 80 61 22 00 80 81 22 00 80 a1 22 00 80     A"..a"..."..."..
80000490:	c1 22 00 80 e1 22 00 80 01 23 00 80 21 23 00 80     ."..."...#..!#..
800004a0:	41 23 00 80 61 23 00 80 81 23 00 80 a1 23 00 80     A#..a#...#...#..
800004b0:	c1 23 00 80 e1 23 00 80 01 24 00 80 21 24 00 80     .#...#...$..!$..
800004c0:	41 24 00 80 61 24 00 80 81 24 00 80 a1 24 00 80     A$..a$...$...$..
800004d0:	c1 24 00 80 e1 24 00 80 01 25 00 80 21 25 00 80     .$...$...%..!%..
800004e0:	41 25 00 80 61 25 00 80 81 25 00 80 9d 1f 00 80     A%..a%...%......
800004f0:	9d 1f 00 80 9d 1f 00 80 9d 1f 00 80 9d 1f 00 80     ................
80000500:	9d 1f 00 80 9d 1f 00 80 9d 1f 00 80 9d 1f 00 80     ................
80000510:	9d 1f 00 80 9d 1f 00 80 9d 1f 00 80 9d 1f 00 80     ................
80000520:	9d 1f 00 80 9d 1f 00 80 9d 1f 00 80 9d 1f 00 80     ................
80000530:	9d 1f 00 80 9d 1f 00 80 9d 1f 00 80 9d 1f 00 80     ................
80000540:	9d 1f 00 80 9d 1f 00 80 9d 1f 00 80 9d 1f 00 80     ................
80000550:	9d 1f 00 80 9d 1f 00 80 9d 1f 00 80 9d 1f 00 80     ................
80000560:	9d 1f 00 80 9d 1f 00 80 9d 1f 00 80 9d 1f 00 80     ................
80000570:	9d 1f 00 80 9d 1f 00 80 9d 1f 00 80 9d 1f 00 80     ................
80000580:	9d 1f 00 80 9d 1f 00 80 9d 1f 00 80 9d 1f 00 80     ................
80000590:	9d 1f 00 80 9d 1f 00 80 9d 1f 00 80 9d 1f 00 80     ................
800005a0:	9d 1f 00 80 9d 1f 00 80 9d 1f 00 80 9d 1f 00 80     ................
800005b0:	9d 1f 00 80 9d 1f 00 80 a9 2f 00 80 00 00 00 00     ........./......
	...
80000604:	9d 1f 00 80 9d 1f 00 80 9d 1f 00 80 9d 1f 00 80     ................
80000614:	9d 1f 00 80 9d 1f 00 80 9d 1f 00 80 9d 1f 00 80     ................
80000624:	9d 1f 00 80 9d 1f 00 80 9d 1f 00 80 9d 1f 00 80     ................
80000634:	9d 1f 00 80 9d 1f 00 80 9d 1f 00 80 9d 1f 00 80     ................
80000644:	9d 1f 00 80 9d 1f 00 80 9d 1f 00 80 9d 1f 00 80     ................
80000654:	9d 1f 00 80 9d 1f 00 80 9d 1f 00 80 9d 1f 00 80     ................
80000664:	9d 1f 00 80 9d 1f 00 80 9d 1f 00 80 9d 1f 00 80     ................
80000674:	9d 1f 00 80 9d 1f 00 80 9d 1f 00 80 9d 1f 00 80     ................
80000684:	9d 1f 00 80 9d 1f 00 80 9d 1f 00 80 9d 1f 00 80     ................
80000694:	9d 1f 00 80 9d 1f 00 80 9d 1f 00 80 9d 1f 00 80     ................
800006a4:	9d 1f 00 80 9d 1f 00 80 9d 1f 00 80 9d 1f 00 80     ................
800006b4:	9d 1f 00 80 9d 1f 00 80 9d 1f 00 80 9d 1f 00 80     ................
800006c4:	9d 1f 00 80 9d 1f 00 80 9d 1f 00 80 9d 1f 00 80     ................
800006d4:	9d 1f 00 80 9d 1f 00 80 9d 1f 00 80 9d 1f 00 80     ................
800006e4:	9d 1f 00 80 9d 1f 00 80 9d 1f 00 80 9d 1f 00 80     ................
800006f4:	9d 1f 00 80 9d 1f 00 80 9d 1f 00 80 9d 1f 00 80     ................
80000704:	9d 1f 00 80 9d 1f 00 80 9d 1f 00 80 9d 1f 00 80     ................
80000714:	9d 1f 00 80 9d 1f 00 80 9d 1f 00 80 9d 1f 00 80     ................
80000724:	9d 1f 00 80 9d 1f 00 80 9d 1f 00 80 9d 1f 00 80     ................
80000734:	9d 1f 00 80 9d 1f 00 80 9d 1f 00 80 9d 1f 00 80     ................
80000744:	9d 1f 00 80 9d 1f 00 80 9d 1f 00 80 9d 1f 00 80     ................
80000754:	9d 1f 00 80 9d 1f 00 80 9d 1f 00 80 9d 1f 00 80     ................
80000764:	9d 1f 00 80 9d 1f 00 80 9d 1f 00 80 9d 1f 00 80     ................
80000774:	9d 1f 00 80 9d 1f 00 80 9d 1f 00 80 9d 1f 00 80     ................
80000784:	9d 1f 00 80 9d 1f 00 80 9d 1f 00 80 9d 1f 00 80     ................
80000794:	9d 1f 00 80 9d 1f 00 80 9d 1f 00 80 9d 1f 00 80     ................
	...

800007c0 <__main>:
__main():
800007c0:	f000 f802 	bl	800007c8 <__scatterload_rt2>
800007c4:	f000 f87a 	bl	800008bc <__rt_entry>

800007c8 <__scatterload_rt2>:
__scatterload():
800007c8:	a614      	add	r6, pc, #80	@ (adr r6, 8000081c <__scatterload_loop+0x4a>)
__scatterload_rt2():
800007ca:	e896 0c00 	ldmia.w	r6, {sl, fp}
800007ce:	44b2      	add	sl, r6
800007d0:	44b3      	add	fp, r6

800007d2 <__scatterload_loop>:
__scatterload_loop():
800007d2:	45da      	cmp	sl, fp
800007d4:	d101      	bne.n	800007da <__scatterload_loop+0x8>
800007d6:	f000 f871 	bl	800008bc <__rt_entry>
800007da:	e8ba 000f 	ldmia.w	sl!, {r0, r1, r2, r3}
800007de:	a60f      	add	r6, pc, #60	@ (adr r6, 8000081c <__scatterload_loop+0x4a>)
800007e0:	e896 0030 	ldmia.w	r6, {r4, r5}
800007e4:	eba5 0504 	sub.w	r5, r5, r4
800007e8:	eb04 0706 	add.w	r7, r4, r6
800007ec:	ebaa 0407 	sub.w	r4, sl, r7
800007f0:	f1a7 0701 	sub.w	r7, r7, #1
800007f4:	ea4f 1515 	mov.w	r5, r5, lsr #4
800007f8:	ea4f 1434 	mov.w	r4, r4, ror #4
800007fc:	f1a4 0401 	sub.w	r4, r4, #1
80000800:	42ac      	cmp	r4, r5
80000802:	d301      	bcc.n	80000808 <__scatterload_loop+0x36>
80000804:	f000 f85a 	bl	800008bc <__rt_entry>
80000808:	f013 0f01 	tst.w	r3, #1
8000080c:	bf18      	it	ne
8000080e:	1afb      	subne	r3, r7, r3
80000810:	f043 0301 	orr.w	r3, r3, #1
80000814:	f000 f801 	bl	8000081a <__scatterload_loop+0x48>
80000818:	e7db      	b.n	800007d2 <__scatterload_loop>
8000081a:	4718      	bx	r3
8000081c:	0000591c 	.word	0x0000591c
80000820:	0000593c 	.word	0x0000593c

80000824 <__scatterload_copy>:
__scatterload_copy():
80000824:	3a10      	subs	r2, #16
80000826:	bf24      	itt	cs
80000828:	c878      	ldmiacs	r0!, {r3, r4, r5, r6}
8000082a:	c178      	stmiacs	r1!, {r3, r4, r5, r6}
8000082c:	d8fa      	bhi.n	80000824 <__scatterload_copy>
8000082e:	0752      	lsls	r2, r2, #29
80000830:	bf24      	itt	cs
80000832:	c830      	ldmiacs	r0!, {r4, r5}
80000834:	c130      	stmiacs	r1!, {r4, r5}
80000836:	bf44      	itt	mi
80000838:	6804      	ldrmi	r4, [r0, #0]
8000083a:	600c      	strmi	r4, [r1, #0]
8000083c:	4770      	bx	lr
	...

80000840 <__scatterload_null>:
__scatterload_null():
80000840:	4770      	bx	lr
	...

80000844 <__scatterload_zeroinit>:
__scatterload_zeroinit():
80000844:	2300      	movs	r3, #0
80000846:	2400      	movs	r4, #0
80000848:	2500      	movs	r5, #0
8000084a:	2600      	movs	r6, #0
8000084c:	3a10      	subs	r2, #16
8000084e:	bf28      	it	cs
80000850:	c178      	stmiacs	r1!, {r3, r4, r5, r6}
80000852:	d8fb      	bhi.n	8000084c <__scatterload_zeroinit+0x8>
80000854:	0752      	lsls	r2, r2, #29
80000856:	bf28      	it	cs
80000858:	c130      	stmiacs	r1!, {r4, r5}
8000085a:	bf48      	it	mi
8000085c:	600b      	strmi	r3, [r1, #0]
8000085e:	4770      	bx	lr

80000860 <_printf_f>:
_printf_f():
80000860:	2966      	cmp	r1, #102	@ 0x66
80000862:	f005 81fc 	beq.w	80005c5e <_printf_fp_dec>

80000866 <_printf_d>:
_printf_d():
80000866:	2964      	cmp	r1, #100	@ 0x64
80000868:	f000 80c4 	beq.w	800009f4 <_printf_int_dec>

8000086c <_printf_x>:
_printf_x():
8000086c:	2978      	cmp	r1, #120	@ 0x78
8000086e:	f000 80fd 	beq.w	80000a6c <_printf_int_hex>

80000872 <_printf_c>:
_printf_c():
80000872:	2963      	cmp	r1, #99	@ 0x63
80000874:	f000 8545 	beq.w	80001302 <_printf_char>

80000878 <_printf_s>:
_printf_s():
80000878:	2973      	cmp	r1, #115	@ 0x73
8000087a:	f000 854a 	beq.w	80001312 <_printf_string>

8000087e <_printf_percent_end>:
_printf_percent_end():
8000087e:	2000      	movs	r0, #0
80000880:	4770      	bx	lr

80000882 <__rt_lib_init>:
__rt_lib_init():
80000882:	b51f      	push	{r0, r1, r2, r3, r4, lr}

80000884 <__rt_lib_init_fp_1>:
__rt_lib_init_fp_1():
80000884:	f005 f9dc 	bl	80005c40 <_fp_init>

80000888 <__rt_lib_init_heap_2>:
__rt_lib_init_heap_2():
80000888:	4808      	ldr	r0, [pc, #32]	@ (800008ac <__lit__00000000>)
8000088a:	4909      	ldr	r1, [pc, #36]	@ (800008b0 <__lit__00000001>)
8000088c:	f001 faaa 	bl	80001de4 <_init_alloc>

80000890 <__rt_lib_init_heap_1>:
__rt_lib_init_heap_1():
80000890:	f001 f828 	bl	800018e4 <__rt_locale>
80000894:	0004      	movs	r4, r0

80000896 <__rt_lib_init_lc_collate_1>:
__rt_lib_init_lc_collate_1():
80000896:	2000      	movs	r0, #0
80000898:	2100      	movs	r1, #0
8000089a:	f005 f9bb 	bl	80005c14 <_get_lc_numeric>
8000089e:	60e0      	str	r0, [r4, #12]

800008a0 <__rt_lib_init_atexit_1>:
__rt_lib_init_atexit_1():
800008a0:	f000 ff40 	bl	80001724 <_initio>

800008a4 <__rt_lib_init_alloca_1>:
__rt_lib_init_alloca_1():
800008a4:	f000 faa6 	bl	80000df4 <__cpp_initialize__aeabi_>

800008a8 <__rt_lib_init_cpp_1>:
__rt_lib_init_cpp_1():
800008a8:	bd1f      	pop	{r0, r1, r2, r3, r4, pc}
	...

800008ac <__lit__00000000>:
800008ac:	4000 2000                                   .@. 

800008b0 <__lit__00000001>:
800008b0:	8000 2000                                   ... 

800008b4 <__rt_lib_shutdown>:
__rt_lib_shutdown():
800008b4:	b510      	push	{r4, lr}

800008b6 <__rt_lib_shutdown_cpp_1>:
__rt_lib_shutdown_cpp_1():
800008b6:	f000 ff9e 	bl	800017f6 <_terminateio>

800008ba <__rt_lib_shutdown_fp_trap_1>:
__rt_lib_shutdown_fp_trap_1():
800008ba:	bd10      	pop	{r4, pc}

800008bc <__rt_entry>:
__rt_entry():
800008bc:	f003 fa02 	bl	80003cc4 <_platform_pre_stackheap_init>

800008c0 <__rt_entry_sh>:
__rt_entry_sh():
800008c0:	f8df d00c 	ldr.w	sp, [pc, #12]	@ 800008d0 <__lit__00000000>

800008c4 <__rt_entry_li>:
__rt_entry_li():
800008c4:	f7ff ffdd 	bl	80000882 <__rt_lib_init>

800008c8 <__rt_entry_main>:
__rt_entry_main():
800008c8:	f003 fb42 	bl	80003f50 <main>
800008cc:	f001 fabf 	bl	80001e4e <exit>

800008d0 <__lit__00000000>:
800008d0:	0000 2004                                   ... 

800008d4 <__rt_exit>:
__rt_exit():
800008d4:	b403      	push	{r0, r1}

800008d6 <__rt_exit_ls>:
__rt_exit_ls():
800008d6:	f7ff ffed 	bl	800008b4 <__rt_lib_shutdown>

800008da <__rt_exit_exit>:
__rt_exit_exit():
800008da:	bc03      	pop	{r0, r1}
800008dc:	f000 fffc 	bl	800018d8 <_sys_exit>

800008e0 <dotp_mve>:
dotp_mve():
/Users/till/Documents/Studium/Module/2025_SoSe/Tests/alif_e7_tests/dotp_tests/dotp_mve.s:14

r3: Länge des Arrays
r4: LR Zwischenspeicher
*/
dotp_mve:
    push {r4, r5, lr} // save r4,r5 and lr
800008e0:	b530      	push	{r4, r5, lr}
/Users/till/Documents/Studium/Module/2025_SoSe/Tests/alif_e7_tests/dotp_tests/dotp_mve.s:15
    mov r5, #0
800008e2:	f04f 0500 	mov.w	r5, #0
/Users/till/Documents/Studium/Module/2025_SoSe/Tests/alif_e7_tests/dotp_tests/dotp_mve.s:16
    vdup.32 q2, r5 // init c
800008e6:	eea4 5b10 	vdup.32	q2, r5
/Users/till/Documents/Studium/Module/2025_SoSe/Tests/alif_e7_tests/dotp_tests/dotp_mve.s:17
    dlstp.32 lr, r3 // start loop
800008ea:	f023 e001 	dlstp.32	lr, r3

800008ee <loopMVE>:
loopMVE():
/Users/till/Documents/Studium/Module/2025_SoSe/Tests/alif_e7_tests/dotp_tests/dotp_mve.s:20

loopMVE:
    vldrw.f32 q0, [r0], #16 // Vier Elemente von A laden
800008ee:	ecb0 1f04 	ldc	15, cr1, [r0], #16
/Users/till/Documents/Studium/Module/2025_SoSe/Tests/alif_e7_tests/dotp_tests/dotp_mve.s:21
    vldrw.f32 q1, [r1], #16 // Vier Elemente von B laden
800008f2:	ecb1 3f04 	ldc	15, cr3, [r1], #16
/Users/till/Documents/Studium/Module/2025_SoSe/Tests/alif_e7_tests/dotp_tests/dotp_mve.s:23

    vfma.f32 q2, q0, q1 // c[i] += A[i] * B[i]
800008f6:	ef00 4c52 	vfma.f32	q2, q0, q1
/Users/till/Documents/Studium/Module/2025_SoSe/Tests/alif_e7_tests/dotp_tests/dotp_mve.s:25

    letp lr, loopMVE // check loop
800008fa:	f01f c009 	letp	lr, 800008ee <loopMVE>

800008fe <loopEnd>:
loopEnd():
/Users/till/Documents/Studium/Module/2025_SoSe/Tests/alif_e7_tests/dotp_tests/dotp_mve.s:30

loopEnd:
    // q2[0] = s8, q2[1] = s9, q2[2] = s10, q2[3] = s11
    // sum up c
    vadd.f32 s0, s8, s9
800008fe:	ee34 0a24 	vadd.f32	s0, s8, s9
/Users/till/Documents/Studium/Module/2025_SoSe/Tests/alif_e7_tests/dotp_tests/dotp_mve.s:31
    vadd.f32 s0, s0, s10
80000902:	ee30 0a05 	vadd.f32	s0, s0, s10
/Users/till/Documents/Studium/Module/2025_SoSe/Tests/alif_e7_tests/dotp_tests/dotp_mve.s:32
    vadd.f32 s0, s0, s11
80000906:	ee30 0a25 	vadd.f32	s0, s0, s11
/Users/till/Documents/Studium/Module/2025_SoSe/Tests/alif_e7_tests/dotp_tests/dotp_mve.s:35

    // vstrw.f32 q2, [r2] // c speichern
    vstr.32 s0, [r2]
8000090a:	ed82 0a00 	vstr	s0, [r2]
/Users/till/Documents/Studium/Module/2025_SoSe/Tests/alif_e7_tests/dotp_tests/dotp_mve.s:38
    
    // mov lr, r4 // restore lr
    pop {r4, r5, pc} // restore r4,r5 and return
8000090e:	bd30      	pop	{r4, r5, pc}

80000910 <dotp_scalar>:
dotp_scalar():
/Users/till/Documents/Studium/Module/2025_SoSe/Tests/alif_e7_tests/dotp_tests/dotp_scalar.s:15

r4: Zwischenspeicher für LR
*/

dotp_scalar:
    push {r4, r5, r6, lr} // save r4,r5,r6 and lr
80000910:	b570      	push	{r4, r5, r6, lr}
/Users/till/Documents/Studium/Module/2025_SoSe/Tests/alif_e7_tests/dotp_tests/dotp_scalar.s:16
    mov r4, #0
80000912:	f04f 0400 	mov.w	r4, #0
/Users/till/Documents/Studium/Module/2025_SoSe/Tests/alif_e7_tests/dotp_tests/dotp_scalar.s:17
    vdup.32 q0, r4 // init c
80000916:	eea0 4b10 	vdup.32	q0, r4
/Users/till/Documents/Studium/Module/2025_SoSe/Tests/alif_e7_tests/dotp_tests/dotp_scalar.s:18
    wls lr, r3, loopEnd // while (r3 > 0)
8000091a:	f043 c00d 	wls	lr, r3, 80000936 <loopEnd>

8000091e <loopStart>:
loopStart():
/Users/till/Documents/Studium/Module/2025_SoSe/Tests/alif_e7_tests/dotp_tests/dotp_scalar.s:21

loopStart:
    ldr r5, [r0], #4 // load next A[i]
8000091e:	f850 5b04 	ldr.w	r5, [r0], #4
/Users/till/Documents/Studium/Module/2025_SoSe/Tests/alif_e7_tests/dotp_tests/dotp_scalar.s:22
    vmov.f32 s1, r5
80000922:	ee00 5a90 	vmov	s1, r5
/Users/till/Documents/Studium/Module/2025_SoSe/Tests/alif_e7_tests/dotp_tests/dotp_scalar.s:23
    ldr r6, [r1], #4 // load next B[i]
80000926:	f851 6b04 	ldr.w	r6, [r1], #4
/Users/till/Documents/Studium/Module/2025_SoSe/Tests/alif_e7_tests/dotp_tests/dotp_scalar.s:24
    vmov.f32 s2, r6
8000092a:	ee01 6a10 	vmov	s2, r6
/Users/till/Documents/Studium/Module/2025_SoSe/Tests/alif_e7_tests/dotp_tests/dotp_scalar.s:25
    vmla.f32 s0, s1, s2 // c += A[i] * B[i]
8000092e:	ee00 0a81 	vmla.f32	s0, s1, s2
/Users/till/Documents/Studium/Module/2025_SoSe/Tests/alif_e7_tests/dotp_tests/dotp_scalar.s:26
    le lr, loopStart
80000932:	f00f c00d 	le	lr, 8000091e <loopStart>

80000936 <loopEnd>:
loopEnd():
/Users/till/Documents/Studium/Module/2025_SoSe/Tests/alif_e7_tests/dotp_tests/dotp_scalar.s:29

loopEnd:
    vstr.32 s0, [r2] // save c
80000936:	ed82 0a00 	vstr	s0, [r2]
/Users/till/Documents/Studium/Module/2025_SoSe/Tests/alif_e7_tests/dotp_tests/dotp_scalar.s:30
    pop {r4, r5, r6, pc} // restore r4,r5,r6 and return
8000093a:	bd70      	pop	{r4, r5, r6, pc}

8000093c <__2printf>:
__2printf():
8000093c:	b40f      	push	{r0, r1, r2, r3}
8000093e:	4904      	ldr	r1, [pc, #16]	@ (80000950 <__2printf+0x14>)
80000940:	b510      	push	{r4, lr}
80000942:	aa03      	add	r2, sp, #12
80000944:	9802      	ldr	r0, [sp, #8]
80000946:	f000 fce9 	bl	8000131c <_printf_char_file>
8000094a:	bc10      	pop	{r4}
8000094c:	f85d fb14 	ldr.w	pc, [sp], #20
80000950:	200006ec 	.word	0x200006ec

80000954 <_printf_pre_padding>:
_printf_pre_padding():
80000954:	b570      	push	{r4, r5, r6, lr}
80000956:	4604      	mov	r4, r0
80000958:	6985      	ldr	r5, [r0, #24]
8000095a:	6800      	ldr	r0, [r0, #0]
8000095c:	06c1      	lsls	r1, r0, #27
8000095e:	d501      	bpl.n	80000964 <_printf_pre_padding+0x10>
80000960:	2630      	movs	r6, #48	@ 0x30
80000962:	e000      	b.n	80000966 <_printf_pre_padding+0x12>
80000964:	2620      	movs	r6, #32
80000966:	07c0      	lsls	r0, r0, #31
80000968:	d007      	beq.n	8000097a <_printf_pre_padding+0x26>
8000096a:	bd70      	pop	{r4, r5, r6, pc}
8000096c:	e9d4 2101 	ldrd	r2, r1, [r4, #4]
80000970:	4630      	mov	r0, r6
80000972:	4790      	blx	r2
80000974:	6a20      	ldr	r0, [r4, #32]
80000976:	1c40      	adds	r0, r0, #1
80000978:	6220      	str	r0, [r4, #32]
8000097a:	1e6d      	subs	r5, r5, #1
8000097c:	d5f6      	bpl.n	8000096c <_printf_pre_padding+0x18>
8000097e:	bd70      	pop	{r4, r5, r6, pc}

80000980 <_printf_post_padding>:
_printf_post_padding():
80000980:	b570      	push	{r4, r5, r6, lr}
80000982:	4604      	mov	r4, r0
80000984:	6985      	ldr	r5, [r0, #24]
80000986:	7800      	ldrb	r0, [r0, #0]
80000988:	07c0      	lsls	r0, r0, #31
8000098a:	d107      	bne.n	8000099c <_printf_post_padding+0x1c>
8000098c:	bd70      	pop	{r4, r5, r6, pc}
8000098e:	e9d4 2101 	ldrd	r2, r1, [r4, #4]
80000992:	2020      	movs	r0, #32
80000994:	4790      	blx	r2
80000996:	6a20      	ldr	r0, [r4, #32]
80000998:	1c40      	adds	r0, r0, #1
8000099a:	6220      	str	r0, [r4, #32]
8000099c:	1e6d      	subs	r5, r5, #1
8000099e:	d5f6      	bpl.n	8000098e <_printf_post_padding+0xe>
800009a0:	bd70      	pop	{r4, r5, r6, pc}

800009a2 <_printf_str>:
_printf_str():
800009a2:	b570      	push	{r4, r5, r6, lr}
800009a4:	460c      	mov	r4, r1
800009a6:	4605      	mov	r5, r0
800009a8:	2a01      	cmp	r2, #1
800009aa:	d005      	beq.n	800009b8 <_printf_str+0x16>
800009ac:	7828      	ldrb	r0, [r5, #0]
800009ae:	0680      	lsls	r0, r0, #26
800009b0:	d500      	bpl.n	800009b4 <_printf_str+0x12>
800009b2:	69ea      	ldr	r2, [r5, #28]
800009b4:	2300      	movs	r3, #0
800009b6:	e002      	b.n	800009be <_printf_str+0x1c>
800009b8:	2301      	movs	r3, #1
800009ba:	e005      	b.n	800009c8 <_printf_str+0x26>
800009bc:	1c5b      	adds	r3, r3, #1
800009be:	4293      	cmp	r3, r2
800009c0:	d202      	bcs.n	800009c8 <_printf_str+0x26>
800009c2:	5ce0      	ldrb	r0, [r4, r3]
800009c4:	2800      	cmp	r0, #0
800009c6:	d1f9      	bne.n	800009bc <_printf_str+0x1a>
800009c8:	69a8      	ldr	r0, [r5, #24]
800009ca:	18e6      	adds	r6, r4, r3
800009cc:	1ac0      	subs	r0, r0, r3
800009ce:	61a8      	str	r0, [r5, #24]
800009d0:	6a28      	ldr	r0, [r5, #32]
800009d2:	4418      	add	r0, r3
800009d4:	6228      	str	r0, [r5, #32]
800009d6:	4628      	mov	r0, r5
800009d8:	f7ff ffbc 	bl	80000954 <_printf_pre_padding>
800009dc:	e004      	b.n	800009e8 <_printf_str+0x46>
800009de:	e9d5 2101 	ldrd	r2, r1, [r5, #4]
800009e2:	f814 0b01 	ldrb.w	r0, [r4], #1
800009e6:	4790      	blx	r2
800009e8:	42b4      	cmp	r4, r6
800009ea:	d3f8      	bcc.n	800009de <_printf_str+0x3c>
800009ec:	4628      	mov	r0, r5
800009ee:	f7ff ffc7 	bl	80000980 <_printf_post_padding>
800009f2:	bd70      	pop	{r4, r5, r6, pc}

800009f4 <_printf_int_dec>:
_printf_int_dec():
800009f4:	e92d 41f0 	stmdb	sp!, {r4, r5, r6, r7, r8, lr}
800009f8:	4606      	mov	r6, r0
800009fa:	2400      	movs	r4, #0
800009fc:	6810      	ldr	r0, [r2, #0]
800009fe:	2975      	cmp	r1, #117	@ 0x75
80000a00:	4631      	mov	r1, r6
80000a02:	a516      	add	r5, pc, #88	@ (adr r5, 80000a5c <_printf_int_dec+0x68>)
80000a04:	d010      	beq.n	80000a28 <_printf_int_dec+0x34>
80000a06:	f3af 8000 	nop.w
80000a0a:	2800      	cmp	r0, #0
80000a0c:	da02      	bge.n	80000a14 <_printf_int_dec+0x20>
80000a0e:	4240      	negs	r0, r0
80000a10:	a513      	add	r5, pc, #76	@ (adr r5, 80000a60 <_printf_int_dec+0x6c>)
80000a12:	e007      	b.n	80000a24 <_printf_int_dec+0x30>
80000a14:	6831      	ldr	r1, [r6, #0]
80000a16:	078a      	lsls	r2, r1, #30
80000a18:	d501      	bpl.n	80000a1e <_printf_int_dec+0x2a>
80000a1a:	a512      	add	r5, pc, #72	@ (adr r5, 80000a64 <_printf_int_dec+0x70>)
80000a1c:	e002      	b.n	80000a24 <_printf_int_dec+0x30>
80000a1e:	0749      	lsls	r1, r1, #29
80000a20:	d504      	bpl.n	80000a2c <_printf_int_dec+0x38>
80000a22:	a511      	add	r5, pc, #68	@ (adr r5, 80000a68 <_printf_int_dec+0x74>)
80000a24:	2401      	movs	r4, #1
80000a26:	e001      	b.n	80000a2c <_printf_int_dec+0x38>
80000a28:	f3af 8000 	nop.w
80000a2c:	2100      	movs	r1, #0
80000a2e:	220a      	movs	r2, #10
80000a30:	f106 0724 	add.w	r7, r6, #36	@ 0x24
80000a34:	e009      	b.n	80000a4a <_printf_int_dec+0x56>
80000a36:	fbb0 fcf2 	udiv	ip, r0, r2
80000a3a:	fbb0 f3f2 	udiv	r3, r0, r2
80000a3e:	fb02 001c 	mls	r0, r2, ip, r0
80000a42:	3030      	adds	r0, #48	@ 0x30
80000a44:	5478      	strb	r0, [r7, r1]
80000a46:	4618      	mov	r0, r3
80000a48:	1c49      	adds	r1, r1, #1
80000a4a:	2800      	cmp	r0, #0
80000a4c:	d1f3      	bne.n	80000a36 <_printf_int_dec+0x42>
80000a4e:	4623      	mov	r3, r4
80000a50:	462a      	mov	r2, r5
80000a52:	4630      	mov	r0, r6
80000a54:	e8bd 41f0 	ldmia.w	sp!, {r4, r5, r6, r7, r8, lr}
80000a58:	f000 b9e2 	b.w	80000e20 <_printf_int_common>
80000a5c:	00000000 	.word	0x00000000
80000a60:	0000002d 	.word	0x0000002d
80000a64:	0000002b 	.word	0x0000002b
80000a68:	00000020 	.word	0x00000020

80000a6c <_printf_int_hex>:
_printf_longlong_hex():
80000a6c:	b570      	push	{r4, r5, r6, lr}
_printf_int_hex():
80000a6e:	4604      	mov	r4, r0
80000a70:	460d      	mov	r5, r1
80000a72:	4621      	mov	r1, r4
80000a74:	6810      	ldr	r0, [r2, #0]
80000a76:	f3af 8000 	nop.w
80000a7a:	8821      	ldrh	r1, [r4, #0]
80000a7c:	0509      	lsls	r1, r1, #20
80000a7e:	d502      	bpl.n	80000a86 <_printf_int_hex+0x1a>
80000a80:	4a0f      	ldr	r2, [pc, #60]	@ (80000ac0 <_printf_int_hex+0x54>)
80000a82:	447a      	add	r2, pc
80000a84:	e002      	b.n	80000a8c <_printf_int_hex+0x20>
80000a86:	4a0e      	ldr	r2, [pc, #56]	@ (80000ac0 <_printf_int_hex+0x54>)
80000a88:	447a      	add	r2, pc
80000a8a:	320e      	adds	r2, #14
80000a8c:	2100      	movs	r1, #0
80000a8e:	f104 0324 	add.w	r3, r4, #36	@ 0x24
80000a92:	e005      	b.n	80000aa0 <_printf_int_hex+0x34>
80000a94:	f000 060f 	and.w	r6, r0, #15
80000a98:	0900      	lsrs	r0, r0, #4
80000a9a:	5d96      	ldrb	r6, [r2, r6]
80000a9c:	545e      	strb	r6, [r3, r1]
80000a9e:	1c49      	adds	r1, r1, #1
80000aa0:	2800      	cmp	r0, #0
80000aa2:	d1f7      	bne.n	80000a94 <_printf_int_hex+0x28>
80000aa4:	7820      	ldrb	r0, [r4, #0]
80000aa6:	2300      	movs	r3, #0
80000aa8:	0700      	lsls	r0, r0, #28
80000aaa:	d504      	bpl.n	80000ab6 <_printf_int_hex+0x4a>
80000aac:	2d70      	cmp	r5, #112	@ 0x70
80000aae:	d002      	beq.n	80000ab6 <_printf_int_hex+0x4a>
80000ab0:	b109      	cbz	r1, 80000ab6 <_printf_int_hex+0x4a>
80000ab2:	2302      	movs	r3, #2
80000ab4:	3211      	adds	r2, #17
80000ab6:	4620      	mov	r0, r4
80000ab8:	e8bd 4070 	ldmia.w	sp!, {r4, r5, r6, lr}
80000abc:	f000 b9b0 	b.w	80000e20 <_printf_int_common>
80000ac0:	000051e8 	.word	0x000051e8

80000ac4 <__printf>:
__printf():
80000ac4:	e92d 5ff0 	stmdb	sp!, {r4, r5, r6, r7, r8, r9, sl, fp, ip, lr}
80000ac8:	4689      	mov	r9, r1
80000aca:	4604      	mov	r4, r0
80000acc:	f04f 0a00 	mov.w	sl, #0
80000ad0:	f8df b124 	ldr.w	fp, [pc, #292]	@ 80000bf8 <__printf+0x134>
80000ad4:	44fb      	add	fp, pc
80000ad6:	f8c0 a020 	str.w	sl, [r0, #32]
80000ada:	4620      	mov	r0, r4
80000adc:	68e1      	ldr	r1, [r4, #12]
80000ade:	4788      	blx	r1
80000ae0:	2800      	cmp	r0, #0
80000ae2:	d07d      	beq.n	80000be0 <__printf+0x11c>
80000ae4:	2825      	cmp	r0, #37	@ 0x25
80000ae6:	d006      	beq.n	80000af6 <__printf+0x32>
80000ae8:	e9d4 2101 	ldrd	r2, r1, [r4, #4]
80000aec:	4790      	blx	r2
80000aee:	6a20      	ldr	r0, [r4, #32]
80000af0:	1c40      	adds	r0, r0, #1
80000af2:	6220      	str	r0, [r4, #32]
80000af4:	e7f1      	b.n	80000ada <__printf+0x16>
80000af6:	2500      	movs	r5, #0
80000af8:	465f      	mov	r7, fp
80000afa:	4620      	mov	r0, r4
80000afc:	68e1      	ldr	r1, [r4, #12]
80000afe:	4788      	blx	r1
80000b00:	2820      	cmp	r0, #32
80000b02:	4606      	mov	r6, r0
80000b04:	db07      	blt.n	80000b16 <__printf+0x52>
80000b06:	2e31      	cmp	r6, #49	@ 0x31
80000b08:	d205      	bcs.n	80000b16 <__printf+0x52>
80000b0a:	19b8      	adds	r0, r7, r6
80000b0c:	f810 0c20 	ldrb.w	r0, [r0, #-32]
80000b10:	b108      	cbz	r0, 80000b16 <__printf+0x52>
80000b12:	4305      	orrs	r5, r0
80000b14:	e7f1      	b.n	80000afa <__printf+0x36>
80000b16:	07a8      	lsls	r0, r5, #30
80000b18:	d501      	bpl.n	80000b1e <__printf+0x5a>
80000b1a:	f025 0504 	bic.w	r5, r5, #4
80000b1e:	f8c4 a01c 	str.w	sl, [r4, #28]
80000b22:	2700      	movs	r7, #0
80000b24:	f8c4 a018 	str.w	sl, [r4, #24]
80000b28:	2e2a      	cmp	r6, #42	@ 0x2a
80000b2a:	d009      	beq.n	80000b40 <__printf+0x7c>
80000b2c:	4630      	mov	r0, r6
80000b2e:	f005 f85b 	bl	80005be8 <_is_digit>
80000b32:	b338      	cbz	r0, 80000b84 <__printf+0xc0>
80000b34:	eb04 0887 	add.w	r8, r4, r7, lsl #2
80000b38:	3e30      	subs	r6, #48	@ 0x30
80000b3a:	f8c8 6018 	str.w	r6, [r8, #24]
80000b3e:	e019      	b.n	80000b74 <__printf+0xb0>
80000b40:	f859 1b04 	ldr.w	r1, [r9], #4
80000b44:	4620      	mov	r0, r4
80000b46:	eb04 0287 	add.w	r2, r4, r7, lsl #2
80000b4a:	6191      	str	r1, [r2, #24]
80000b4c:	68e1      	ldr	r1, [r4, #12]
80000b4e:	4788      	blx	r1
80000b50:	2f01      	cmp	r7, #1
80000b52:	4606      	mov	r6, r0
80000b54:	d118      	bne.n	80000b88 <__printf+0xc4>
80000b56:	69e0      	ldr	r0, [r4, #28]
80000b58:	2800      	cmp	r0, #0
80000b5a:	da20      	bge.n	80000b9e <__printf+0xda>
80000b5c:	f025 0520 	bic.w	r5, r5, #32
80000b60:	e01d      	b.n	80000b9e <__printf+0xda>
80000b62:	f8d8 0018 	ldr.w	r0, [r8, #24]
80000b66:	eb00 0080 	add.w	r0, r0, r0, lsl #2
80000b6a:	eb06 0040 	add.w	r0, r6, r0, lsl #1
80000b6e:	3830      	subs	r0, #48	@ 0x30
80000b70:	f8c8 0018 	str.w	r0, [r8, #24]
80000b74:	4620      	mov	r0, r4
80000b76:	68e1      	ldr	r1, [r4, #12]
80000b78:	4788      	blx	r1
80000b7a:	4606      	mov	r6, r0
80000b7c:	f005 f834 	bl	80005be8 <_is_digit>
80000b80:	2800      	cmp	r0, #0
80000b82:	d1ee      	bne.n	80000b62 <__printf+0x9e>
80000b84:	2f01      	cmp	r7, #1
80000b86:	d00a      	beq.n	80000b9e <__printf+0xda>
80000b88:	2e2e      	cmp	r6, #46	@ 0x2e
80000b8a:	d108      	bne.n	80000b9e <__printf+0xda>
80000b8c:	4620      	mov	r0, r4
80000b8e:	68e1      	ldr	r1, [r4, #12]
80000b90:	4788      	blx	r1
80000b92:	1c7f      	adds	r7, r7, #1
80000b94:	4606      	mov	r6, r0
80000b96:	2f02      	cmp	r7, #2
80000b98:	f045 0520 	orr.w	r5, r5, #32
80000b9c:	dbc4      	blt.n	80000b28 <__printf+0x64>
80000b9e:	69a0      	ldr	r0, [r4, #24]
80000ba0:	2800      	cmp	r0, #0
80000ba2:	da03      	bge.n	80000bac <__printf+0xe8>
80000ba4:	4240      	negs	r0, r0
80000ba6:	f045 0501 	orr.w	r5, r5, #1
80000baa:	61a0      	str	r0, [r4, #24]
80000bac:	07e8      	lsls	r0, r5, #31
80000bae:	d001      	beq.n	80000bb4 <__printf+0xf0>
80000bb0:	f025 0510 	bic.w	r5, r5, #16
80000bb4:	b1a6      	cbz	r6, 80000be0 <__printf+0x11c>
80000bb6:	f1a6 0041 	sub.w	r0, r6, #65	@ 0x41
80000bba:	2819      	cmp	r0, #25
80000bbc:	d802      	bhi.n	80000bc4 <__printf+0x100>
80000bbe:	3620      	adds	r6, #32
80000bc0:	f445 6500 	orr.w	r5, r5, #2048	@ 0x800
80000bc4:	464a      	mov	r2, r9
80000bc6:	4631      	mov	r1, r6
80000bc8:	4620      	mov	r0, r4
80000bca:	6025      	str	r5, [r4, #0]
80000bcc:	464d      	mov	r5, r9
80000bce:	f7ff fe47 	bl	80000860 <_printf_f>
80000bd2:	b160      	cbz	r0, 80000bee <__printf+0x12a>
80000bd4:	2801      	cmp	r0, #1
80000bd6:	d007      	beq.n	80000be8 <__printf+0x124>
80000bd8:	1ded      	adds	r5, r5, #7
80000bda:	f025 0007 	bic.w	r0, r5, #7
80000bde:	e000      	b.n	80000be2 <__printf+0x11e>
80000be0:	e007      	b.n	80000bf2 <__printf+0x12e>
80000be2:	f100 0908 	add.w	r9, r0, #8
80000be6:	e778      	b.n	80000ada <__printf+0x16>
80000be8:	f105 0904 	add.w	r9, r5, #4
80000bec:	e775      	b.n	80000ada <__printf+0x16>
80000bee:	4630      	mov	r0, r6
80000bf0:	e77a      	b.n	80000ae8 <__printf+0x24>
80000bf2:	6a20      	ldr	r0, [r4, #32]
80000bf4:	e8bd 9ff0 	ldmia.w	sp!, {r4, r5, r6, r7, r8, r9, sl, fp, ip, pc}
80000bf8:	000051be 	.word	0x000051be

80000bfc <_do_fflush>:
_do_fflush():
80000bfc:	b570      	push	{r4, r5, r6, lr}
80000bfe:	4604      	mov	r4, r0
80000c00:	68c0      	ldr	r0, [r0, #12]
80000c02:	0781      	lsls	r1, r0, #30
80000c04:	d013      	beq.n	80000c2e <_do_fflush+0x32>
80000c06:	0680      	lsls	r0, r0, #26
80000c08:	d501      	bpl.n	80000c0e <_do_fflush+0x12>
80000c0a:	6aa5      	ldr	r5, [r4, #40]	@ 0x28
80000c0c:	e004      	b.n	80000c18 <_do_fflush+0x1c>
80000c0e:	69a1      	ldr	r1, [r4, #24]
80000c10:	6860      	ldr	r0, [r4, #4]
80000c12:	4408      	add	r0, r1
80000c14:	6921      	ldr	r1, [r4, #16]
80000c16:	1a45      	subs	r5, r0, r1
80000c18:	4620      	mov	r0, r4
80000c1a:	f000 fd3f 	bl	8000169c <_fflush>
80000c1e:	2200      	movs	r2, #0
80000c20:	4606      	mov	r6, r0
80000c22:	4629      	mov	r1, r5
80000c24:	4620      	mov	r0, r4
80000c26:	f000 fc7d 	bl	80001524 <_fseek>
80000c2a:	4630      	mov	r0, r6
80000c2c:	bd70      	pop	{r4, r5, r6, pc}
80000c2e:	2000      	movs	r0, #0
80000c30:	bd70      	pop	{r4, r5, r6, pc}

80000c32 <fflush>:
fflush():
80000c32:	b570      	push	{r4, r5, r6, lr}
80000c34:	b110      	cbz	r0, 80000c3c <fflush+0xa>
80000c36:	e8bd 4070 	ldmia.w	sp!, {r4, r5, r6, lr}
80000c3a:	e7df      	b.n	80000bfc <_do_fflush>
80000c3c:	2500      	movs	r5, #0
80000c3e:	4c07      	ldr	r4, [pc, #28]	@ (80000c5c <fflush+0x2a>)
80000c40:	1e6e      	subs	r6, r5, #1
80000c42:	e007      	b.n	80000c54 <fflush+0x22>
80000c44:	4620      	mov	r0, r4
80000c46:	f7ff ffd9 	bl	80000bfc <_do_fflush>
80000c4a:	b100      	cbz	r0, 80000c4e <fflush+0x1c>
80000c4c:	4635      	mov	r5, r6
80000c4e:	6d20      	ldr	r0, [r4, #80]	@ 0x50
80000c50:	f020 0401 	bic.w	r4, r0, #1
80000c54:	2c00      	cmp	r4, #0
80000c56:	d1f5      	bne.n	80000c44 <fflush+0x12>
80000c58:	4628      	mov	r0, r5
80000c5a:	bd70      	pop	{r4, r5, r6, pc}
80000c5c:	20000698 	.word	0x20000698

80000c60 <putc>:
putc():
80000c60:	f004 bfc9 	b.w	80005bf6 <fputc>

80000c64 <putchar>:
putchar():
80000c64:	4901      	ldr	r1, [pc, #4]	@ (80000c6c <putchar+0x8>)
80000c66:	f004 bfc6 	b.w	80005bf6 <fputc>
80000c6a:	0000      	.short	0x0000
80000c6c:	200006ec 	.word	0x200006ec

80000c70 <puts>:
puts():
80000c70:	b510      	push	{r4, lr}
80000c72:	4604      	mov	r4, r0
80000c74:	e003      	b.n	80000c7e <puts+0xe>
80000c76:	f004 ffbe 	bl	80005bf6 <fputc>
80000c7a:	1c40      	adds	r0, r0, #1
80000c7c:	d009      	beq.n	80000c92 <puts+0x22>
80000c7e:	f814 0b01 	ldrb.w	r0, [r4], #1
80000c82:	4905      	ldr	r1, [pc, #20]	@ (80000c98 <puts+0x28>)
80000c84:	2800      	cmp	r0, #0
80000c86:	d1f6      	bne.n	80000c76 <puts+0x6>
80000c88:	e8bd 4010 	ldmia.w	sp!, {r4, lr}
80000c8c:	200a      	movs	r0, #10
80000c8e:	f004 bfb2 	b.w	80005bf6 <fputc>
80000c92:	f04f 30ff 	mov.w	r0, #4294967295	@ 0xffffffff
80000c96:	bd10      	pop	{r4, pc}
80000c98:	200006ec 	.word	0x200006ec

80000c9c <__rt_memcpy>:
__aeabi_memcpy():
80000c9c:	2a03      	cmp	r2, #3
__rt_memcpy():
80000c9e:	f240 8030 	bls.w	80000d02 <_memcpy_lastbytes>
80000ca2:	f010 0c03 	ands.w	ip, r0, #3
80000ca6:	f000 8015 	beq.w	80000cd4 <__rt_memcpy+0x38>
80000caa:	f811 3b01 	ldrb.w	r3, [r1], #1
80000cae:	f1bc 0f02 	cmp.w	ip, #2
80000cb2:	4462      	add	r2, ip
80000cb4:	bf98      	it	ls
80000cb6:	f811 cb01 	ldrbls.w	ip, [r1], #1
80000cba:	f800 3b01 	strb.w	r3, [r0], #1
80000cbe:	bf38      	it	cc
80000cc0:	f811 3b01 	ldrbcc.w	r3, [r1], #1
80000cc4:	f1a2 0204 	sub.w	r2, r2, #4
80000cc8:	bf98      	it	ls
80000cca:	f800 cb01 	strbls.w	ip, [r0], #1
80000cce:	bf38      	it	cc
80000cd0:	f800 3b01 	strbcc.w	r3, [r0], #1
80000cd4:	f011 0303 	ands.w	r3, r1, #3
80000cd8:	f000 85cb 	beq.w	80001872 <__rt_memcpy_w>
80000cdc:	3a08      	subs	r2, #8
80000cde:	f0c0 8008 	bcc.w	80000cf2 <__rt_memcpy+0x56>
80000ce2:	f851 3b04 	ldr.w	r3, [r1], #4
80000ce6:	3a08      	subs	r2, #8
80000ce8:	f851 cb04 	ldr.w	ip, [r1], #4
80000cec:	e8a0 1008 	stmia.w	r0!, {r3, ip}
80000cf0:	e7f5      	b.n	80000cde <__rt_memcpy+0x42>
80000cf2:	1d12      	adds	r2, r2, #4
80000cf4:	bf5c      	itt	pl
80000cf6:	f851 3b04 	ldrpl.w	r3, [r1], #4
80000cfa:	f840 3b04 	strpl.w	r3, [r0], #4
80000cfe:	f3af 8000 	nop.w

80000d02 <_memcpy_lastbytes>:
_memcpy_lastbytes():
80000d02:	07d2      	lsls	r2, r2, #31
80000d04:	bf24      	itt	cs
80000d06:	f811 3b01 	ldrbcs.w	r3, [r1], #1
80000d0a:	f811 cb01 	ldrbcs.w	ip, [r1], #1
80000d0e:	bf48      	it	mi
80000d10:	f811 2b01 	ldrbmi.w	r2, [r1], #1
80000d14:	bf24      	itt	cs
80000d16:	f800 3b01 	strbcs.w	r3, [r0], #1
80000d1a:	f800 cb01 	strbcs.w	ip, [r0], #1
80000d1e:	bf48      	it	mi
80000d20:	f800 2b01 	strbmi.w	r2, [r0], #1
80000d24:	4770      	bx	lr

80000d26 <__aeabi_memclr4>:
__aeabi_memclr4():
80000d26:	f04f 0200 	mov.w	r2, #0

80000d2a <_memset_w>:
_memset_w():
80000d2a:	b500      	push	{lr}
80000d2c:	4613      	mov	r3, r2
80000d2e:	4694      	mov	ip, r2
80000d30:	4696      	mov	lr, r2
80000d32:	3920      	subs	r1, #32
80000d34:	bf22      	ittt	cs
80000d36:	e8a0 500c 	stmiacs.w	r0!, {r2, r3, ip, lr}
80000d3a:	e8a0 500c 	stmiacs.w	r0!, {r2, r3, ip, lr}
80000d3e:	f1b1 0120 	subscs.w	r1, r1, #32
80000d42:	f4bf aff7 	bcs.w	80000d34 <_memset_w+0xa>
80000d46:	0709      	lsls	r1, r1, #28
80000d48:	bf28      	it	cs
80000d4a:	e8a0 500c 	stmiacs.w	r0!, {r2, r3, ip, lr}
80000d4e:	bf48      	it	mi
80000d50:	c00c      	stmiami	r0!, {r2, r3}
80000d52:	f85d eb04 	ldr.w	lr, [sp], #4
80000d56:	0089      	lsls	r1, r1, #2
80000d58:	bf28      	it	cs
80000d5a:	f840 2b04 	strcs.w	r2, [r0], #4
80000d5e:	bf08      	it	eq
80000d60:	4770      	bxeq	lr
80000d62:	bf48      	it	mi
80000d64:	f820 2b02 	strhmi.w	r2, [r0], #2
80000d68:	f011 4f80 	tst.w	r1, #1073741824	@ 0x40000000
80000d6c:	bf18      	it	ne
80000d6e:	f800 2b01 	strbne.w	r2, [r0], #1
80000d72:	4770      	bx	lr
80000d74:	0000      	movs	r0, r0
	...

80000d78 <strcmp>:
strcmp():
80000d78:	b430      	push	{r4, r5}
80000d7a:	f04f 3c01 	mov.w	ip, #16843009	@ 0x1010101
80000d7e:	f850 2b04 	ldr.w	r2, [r0], #4
80000d82:	f851 3b04 	ldr.w	r3, [r1], #4
80000d86:	facc f452 	uqsub8	r4, ip, r2
80000d8a:	1ad5      	subs	r5, r2, r3
80000d8c:	d120      	bne.n	80000dd0 <strcmp+0x58>
80000d8e:	b9fc      	cbnz	r4, 80000dd0 <strcmp+0x58>
80000d90:	f850 2b04 	ldr.w	r2, [r0], #4
80000d94:	f851 3b04 	ldr.w	r3, [r1], #4
80000d98:	facc f452 	uqsub8	r4, ip, r2
80000d9c:	1ad5      	subs	r5, r2, r3
80000d9e:	d117      	bne.n	80000dd0 <strcmp+0x58>
80000da0:	b9b4      	cbnz	r4, 80000dd0 <strcmp+0x58>
80000da2:	f850 2b04 	ldr.w	r2, [r0], #4
80000da6:	f851 3b04 	ldr.w	r3, [r1], #4
80000daa:	facc f452 	uqsub8	r4, ip, r2
80000dae:	1ad5      	subs	r5, r2, r3
80000db0:	d10e      	bne.n	80000dd0 <strcmp+0x58>
80000db2:	b96c      	cbnz	r4, 80000dd0 <strcmp+0x58>
80000db4:	f850 2b04 	ldr.w	r2, [r0], #4
80000db8:	f851 3b04 	ldr.w	r3, [r1], #4
80000dbc:	facc f452 	uqsub8	r4, ip, r2
80000dc0:	1ad5      	subs	r5, r2, r3
80000dc2:	d105      	bne.n	80000dd0 <strcmp+0x58>
80000dc4:	2c00      	cmp	r4, #0
80000dc6:	d0da      	beq.n	80000d7e <strcmp+0x6>
80000dc8:	bc30      	pop	{r4, r5}
80000dca:	f04f 0000 	mov.w	r0, #0
80000dce:	4770      	bx	lr
80000dd0:	ba29      	rev	r1, r5
80000dd2:	fab1 f181 	clz	r1, r1
80000dd6:	f011 0118 	ands.w	r1, r1, #24
80000dda:	f1d1 0020 	rsbs	r0, r1, #32
80000dde:	4084      	lsls	r4, r0
80000de0:	d1f2      	bne.n	80000dc8 <strcmp+0x50>
80000de2:	40ca      	lsrs	r2, r1
80000de4:	40cb      	lsrs	r3, r1
80000de6:	f012 02ff 	ands.w	r2, r2, #255	@ 0xff
80000dea:	f013 03ff 	ands.w	r3, r3, #255	@ 0xff
80000dee:	bc30      	pop	{r4, r5}
80000df0:	1ad0      	subs	r0, r2, r3
80000df2:	4770      	bx	lr

80000df4 <__cpp_initialize__aeabi_>:
__cpp_initialize__aeabi_():
80000df4:	4808      	ldr	r0, [pc, #32]	@ (80000e18 <__cpp_initialize__aeabi_+0x24>)
80000df6:	b57c      	push	{r2, r3, r4, r5, r6, lr}
80000df8:	4478      	add	r0, pc
80000dfa:	9000      	str	r0, [sp, #0]
80000dfc:	4807      	ldr	r0, [pc, #28]	@ (80000e1c <__cpp_initialize__aeabi_+0x28>)
80000dfe:	4478      	add	r0, pc
80000e00:	9c00      	ldr	r4, [sp, #0]
80000e02:	4605      	mov	r5, r0
80000e04:	9001      	str	r0, [sp, #4]
80000e06:	e004      	b.n	80000e12 <__cpp_initialize__aeabi_+0x1e>
80000e08:	4620      	mov	r0, r4
80000e0a:	6801      	ldr	r1, [r0, #0]
80000e0c:	4408      	add	r0, r1
80000e0e:	4780      	blx	r0
80000e10:	1d24      	adds	r4, r4, #4
80000e12:	42ac      	cmp	r4, r5
80000e14:	d1f8      	bne.n	80000e08 <__cpp_initialize__aeabi_+0x14>
80000e16:	bd7c      	pop	{r2, r3, r4, r5, r6, pc}
80000e18:	00005378 	.word	0x00005378
80000e1c:	0000537e 	.word	0x0000537e

80000e20 <_printf_int_common>:
_printf_int_common():
80000e20:	e92d 47f0 	stmdb	sp!, {r4, r5, r6, r7, r8, r9, sl, lr}
80000e24:	460d      	mov	r5, r1
80000e26:	4699      	mov	r9, r3
80000e28:	4692      	mov	sl, r2
80000e2a:	4604      	mov	r4, r0
80000e2c:	f100 0824 	add.w	r8, r0, #36	@ 0x24
80000e30:	6801      	ldr	r1, [r0, #0]
80000e32:	0688      	lsls	r0, r1, #26
80000e34:	d504      	bpl.n	80000e40 <_printf_int_common+0x20>
80000e36:	69e0      	ldr	r0, [r4, #28]
80000e38:	f021 0110 	bic.w	r1, r1, #16
80000e3c:	6021      	str	r1, [r4, #0]
80000e3e:	e000      	b.n	80000e42 <_printf_int_common+0x22>
80000e40:	2001      	movs	r0, #1
80000e42:	42a8      	cmp	r0, r5
80000e44:	dd01      	ble.n	80000e4a <_printf_int_common+0x2a>
80000e46:	1b47      	subs	r7, r0, r5
80000e48:	e000      	b.n	80000e4c <_printf_int_common+0x2c>
80000e4a:	2700      	movs	r7, #0
80000e4c:	69a1      	ldr	r1, [r4, #24]
80000e4e:	197a      	adds	r2, r7, r5
80000e50:	eb02 0009 	add.w	r0, r2, r9
80000e54:	1a08      	subs	r0, r1, r0
80000e56:	61a0      	str	r0, [r4, #24]
80000e58:	7820      	ldrb	r0, [r4, #0]
80000e5a:	06c0      	lsls	r0, r0, #27
80000e5c:	d402      	bmi.n	80000e64 <_printf_int_common+0x44>
80000e5e:	4620      	mov	r0, r4
80000e60:	f7ff fd78 	bl	80000954 <_printf_pre_padding>
80000e64:	2600      	movs	r6, #0
80000e66:	e008      	b.n	80000e7a <_printf_int_common+0x5a>
80000e68:	e9d4 2101 	ldrd	r2, r1, [r4, #4]
80000e6c:	f81a 0006 	ldrb.w	r0, [sl, r6]
80000e70:	4790      	blx	r2
80000e72:	6a20      	ldr	r0, [r4, #32]
80000e74:	1c40      	adds	r0, r0, #1
80000e76:	1c76      	adds	r6, r6, #1
80000e78:	6220      	str	r0, [r4, #32]
80000e7a:	454e      	cmp	r6, r9
80000e7c:	dbf4      	blt.n	80000e68 <_printf_int_common+0x48>
80000e7e:	7820      	ldrb	r0, [r4, #0]
80000e80:	06c0      	lsls	r0, r0, #27
80000e82:	d50a      	bpl.n	80000e9a <_printf_int_common+0x7a>
80000e84:	4620      	mov	r0, r4
80000e86:	f7ff fd65 	bl	80000954 <_printf_pre_padding>
80000e8a:	e006      	b.n	80000e9a <_printf_int_common+0x7a>
80000e8c:	e9d4 2101 	ldrd	r2, r1, [r4, #4]
80000e90:	2030      	movs	r0, #48	@ 0x30
80000e92:	4790      	blx	r2
80000e94:	6a20      	ldr	r0, [r4, #32]
80000e96:	1c40      	adds	r0, r0, #1
80000e98:	6220      	str	r0, [r4, #32]
80000e9a:	1e38      	subs	r0, r7, #0
80000e9c:	f1a7 0701 	sub.w	r7, r7, #1
80000ea0:	dcf4      	bgt.n	80000e8c <_printf_int_common+0x6c>
80000ea2:	e007      	b.n	80000eb4 <_printf_int_common+0x94>
80000ea4:	e9d4 2101 	ldrd	r2, r1, [r4, #4]
80000ea8:	f818 0005 	ldrb.w	r0, [r8, r5]
80000eac:	4790      	blx	r2
80000eae:	6a20      	ldr	r0, [r4, #32]
80000eb0:	1c40      	adds	r0, r0, #1
80000eb2:	6220      	str	r0, [r4, #32]
80000eb4:	1e28      	subs	r0, r5, #0
80000eb6:	f1a5 0501 	sub.w	r5, r5, #1
80000eba:	dcf3      	bgt.n	80000ea4 <_printf_int_common+0x84>
80000ebc:	4620      	mov	r0, r4
80000ebe:	f7ff fd5f 	bl	80000980 <_printf_post_padding>
80000ec2:	7820      	ldrb	r0, [r4, #0]
80000ec4:	0600      	lsls	r0, r0, #24
80000ec6:	d502      	bpl.n	80000ece <_printf_int_common+0xae>
80000ec8:	2002      	movs	r0, #2
80000eca:	e8bd 87f0 	ldmia.w	sp!, {r4, r5, r6, r7, r8, r9, sl, pc}
80000ece:	2001      	movs	r0, #1
80000ed0:	e7fb      	b.n	80000eca <_printf_int_common+0xaa>

80000ed2 <_fp_digits>:
_fp_digits():
80000ed2:	e92d 4fff 	stmdb	sp!, {r0, r1, r2, r3, r4, r5, r6, r7, r8, r9, sl, fp, lr}
80000ed6:	460c      	mov	r4, r1
80000ed8:	461e      	mov	r6, r3
80000eda:	f04f 37ff 	mov.w	r7, #4294967295	@ 0xffffffff
80000ede:	b08b      	sub	sp, #44	@ 0x2c
80000ee0:	e9d2 0100 	ldrd	r0, r1, [r2]
80000ee4:	f8dd 8060 	ldr.w	r8, [sp, #96]	@ 0x60
80000ee8:	900a      	str	r0, [sp, #40]	@ 0x28
80000eea:	468a      	mov	sl, r1
80000eec:	f3c1 550a 	ubfx	r5, r1, #20, #11
80000ef0:	b905      	cbnz	r5, 80000ef4 <_fp_digits+0x22>
80000ef2:	463d      	mov	r5, r7
80000ef4:	2100      	movs	r1, #0
80000ef6:	4608      	mov	r0, r1
80000ef8:	f04f 0000 	mov.w	r0, #0
80000efc:	f1ba 0f00 	cmp.w	sl, #0
80000f00:	f400 0040 	and.w	r0, r0, #12582912	@ 0xc00000
80000f04:	da05      	bge.n	80000f12 <_fp_digits+0x40>
80000f06:	eb00 0080 	add.w	r0, r0, r0, lsl #2
80000f0a:	f44f 0140 	mov.w	r1, #12582912	@ 0xc00000
80000f0e:	ea01 0050 	and.w	r0, r1, r0, lsr #1
80000f12:	ea4f 5990 	mov.w	r9, r0, lsr #22
80000f16:	f1b9 0f01 	cmp.w	r9, #1
80000f1a:	dd00      	ble.n	80000f1e <_fp_digits+0x4c>
80000f1c:	46b9      	mov	r9, r7
80000f1e:	980a      	ldr	r0, [sp, #40]	@ 0x28
80000f20:	ea50 004a 	orrs.w	r0, r0, sl, lsl #1
80000f24:	d00e      	beq.n	80000f44 <_fp_digits+0x72>
80000f26:	f644 5010 	movw	r0, #19728	@ 0x4d10
80000f2a:	f2a5 35ff 	subw	r5, r5, #1023	@ 0x3ff
80000f2e:	4345      	muls	r5, r0
80000f30:	142f      	asrs	r7, r5, #16
80000f32:	f1b8 0f00 	cmp.w	r8, #0
80000f36:	d01e      	beq.n	80000f76 <_fp_digits+0xa4>
80000f38:	4275      	negs	r5, r6
80000f3a:	1e29      	subs	r1, r5, #0
80000f3c:	dd1e      	ble.n	80000f7c <_fp_digits+0xaa>
80000f3e:	f1c9 0200 	rsb	r2, r9, #0
80000f42:	e01c      	b.n	80000f7e <_fp_digits+0xac>
80000f44:	f1b8 0f01 	cmp.w	r8, #1
80000f48:	f04f 0000 	mov.w	r0, #0
80000f4c:	d001      	beq.n	80000f52 <_fp_digits+0x80>
80000f4e:	2130      	movs	r1, #48	@ 0x30
80000f50:	e003      	b.n	80000f5a <_fp_digits+0x88>
80000f52:	43f2      	mvns	r2, r6
80000f54:	e005      	b.n	80000f62 <_fp_digits+0x90>
80000f56:	5421      	strb	r1, [r4, r0]
80000f58:	1c40      	adds	r0, r0, #1
80000f5a:	42b0      	cmp	r0, r6
80000f5c:	dbfb      	blt.n	80000f56 <_fp_digits+0x84>
80000f5e:	4630      	mov	r0, r6
80000f60:	2200      	movs	r2, #0
80000f62:	2100      	movs	r1, #0
80000f64:	5421      	strb	r1, [r4, r0]
80000f66:	990b      	ldr	r1, [sp, #44]	@ 0x2c
80000f68:	f8c1 8008 	str.w	r8, [r1, #8]
80000f6c:	e9c1 2000 	strd	r2, r0, [r1]
80000f70:	b00f      	add	sp, #60	@ 0x3c
80000f72:	e8bd 8ff0 	ldmia.w	sp!, {r4, r5, r6, r7, r8, r9, sl, fp, pc}
80000f76:	1bbd      	subs	r5, r7, r6
80000f78:	1c6d      	adds	r5, r5, #1
80000f7a:	e7de      	b.n	80000f3a <_fp_digits+0x68>
80000f7c:	464a      	mov	r2, r9
80000f7e:	da00      	bge.n	80000f82 <_fp_digits+0xb0>
80000f80:	4269      	negs	r1, r5
80000f82:	a806      	add	r0, sp, #24
80000f84:	f000 fda6 	bl	80001ad4 <_btod_etento>
80000f88:	ab06      	add	r3, sp, #24
80000f8a:	e893 0007 	ldmia.w	r3, {r0, r1, r2}
80000f8e:	ab03      	add	r3, sp, #12
80000f90:	e883 0007 	stmia.w	r3, {r0, r1, r2}
80000f94:	4650      	mov	r0, sl
80000f96:	990a      	ldr	r1, [sp, #40]	@ 0x28
80000f98:	f004 fa46 	bl	80005428 <_btod_d2e>
80000f9c:	e88d 0007 	stmia.w	sp, {r0, r1, r2}
80000fa0:	f5a0 5000 	sub.w	r0, r0, #8192	@ 0x2000
80000fa4:	381f      	subs	r0, #31
80000fa6:	9000      	str	r0, [sp, #0]
80000fa8:	9803      	ldr	r0, [sp, #12]
80000faa:	2d00      	cmp	r5, #0
80000fac:	dd0a      	ble.n	80000fc4 <_fp_digits+0xf2>
80000fae:	f242 011f 	movw	r1, #8223	@ 0x201f
80000fb2:	464a      	mov	r2, r9
80000fb4:	4408      	add	r0, r1
80000fb6:	2300      	movs	r3, #0
80000fb8:	a903      	add	r1, sp, #12
80000fba:	9003      	str	r0, [sp, #12]
80000fbc:	4668      	mov	r0, sp
80000fbe:	f004 fcaf 	bl	80005920 <_btod_ediv>
80000fc2:	e009      	b.n	80000fd8 <_fp_digits+0x106>
80000fc4:	f5a0 5000 	sub.w	r0, r0, #8192	@ 0x2000
80000fc8:	464a      	mov	r2, r9
80000fca:	381f      	subs	r0, #31
80000fcc:	2300      	movs	r3, #0
80000fce:	a903      	add	r1, sp, #12
80000fd0:	9003      	str	r0, [sp, #12]
80000fd2:	4668      	mov	r0, sp
80000fd4:	f004 fcb9 	bl	8000594a <_btod_emul>
80000fd8:	e88d 0007 	stmia.w	sp, {r0, r1, r2}
80000fdc:	0400      	lsls	r0, r0, #16
80000fde:	0c00      	lsrs	r0, r0, #16
80000fe0:	d003      	beq.n	80000fea <_fp_digits+0x118>
80000fe2:	f04f 30ff 	mov.w	r0, #4294967295	@ 0xffffffff
80000fe6:	0841      	lsrs	r1, r0, #1
80000fe8:	e000      	b.n	80000fec <_fp_digits+0x11a>
80000fea:	4610      	mov	r0, r2
80000fec:	f1b8 0f00 	cmp.w	r8, #0
80000ff0:	d003      	beq.n	80000ffa <_fp_digits+0x128>
80000ff2:	2200      	movs	r2, #0
80000ff4:	9200      	str	r2, [sp, #0]
80000ff6:	4615      	mov	r5, r2
80000ff8:	e01e      	b.n	80001038 <_fp_digits+0x166>
80000ffa:	1e75      	subs	r5, r6, #1
80000ffc:	d405      	bmi.n	8000100a <_fp_digits+0x138>
80000ffe:	f000 fccb 	bl	80001998 <_ll_udiv10>
80001002:	3230      	adds	r2, #48	@ 0x30
80001004:	5562      	strb	r2, [r4, r5]
80001006:	1e6d      	subs	r5, r5, #1
80001008:	d5f9      	bpl.n	80000ffe <_fp_digits+0x12c>
8000100a:	46b3      	mov	fp, r6
8000100c:	2201      	movs	r2, #1
8000100e:	4308      	orrs	r0, r1
80001010:	d002      	beq.n	80001018 <_fp_digits+0x146>
80001012:	2200      	movs	r2, #0
80001014:	1c7f      	adds	r7, r7, #1
80001016:	e004      	b.n	80001022 <_fp_digits+0x150>
80001018:	7820      	ldrb	r0, [r4, #0]
8000101a:	2830      	cmp	r0, #48	@ 0x30
8000101c:	d101      	bne.n	80001022 <_fp_digits+0x150>
8000101e:	2200      	movs	r2, #0
80001020:	1e7f      	subs	r7, r7, #1
80001022:	2a00      	cmp	r2, #0
80001024:	9709      	str	r7, [sp, #36]	@ 0x24
80001026:	d084      	beq.n	80000f32 <_fp_digits+0x60>
80001028:	e01d      	b.n	80001066 <_fp_digits+0x194>
8000102a:	2d11      	cmp	r5, #17
8000102c:	da07      	bge.n	8000103e <_fp_digits+0x16c>
8000102e:	f000 fcb3 	bl	80001998 <_ll_udiv10>
80001032:	3230      	adds	r2, #48	@ 0x30
80001034:	5562      	strb	r2, [r4, r5]
80001036:	1c6d      	adds	r5, r5, #1
80001038:	ea50 0201 	orrs.w	r2, r0, r1
8000103c:	d1f5      	bne.n	8000102a <_fp_digits+0x158>
8000103e:	4308      	orrs	r0, r1
80001040:	d002      	beq.n	80001048 <_fp_digits+0x176>
80001042:	9800      	ldr	r0, [sp, #0]
80001044:	b1c8      	cbz	r0, 8000107a <_fp_digits+0x1a8>
80001046:	e00e      	b.n	80001066 <_fp_digits+0x194>
80001048:	2100      	movs	r1, #0
8000104a:	1e68      	subs	r0, r5, #1
8000104c:	e005      	b.n	8000105a <_fp_digits+0x188>
8000104e:	5c23      	ldrb	r3, [r4, r0]
80001050:	5c62      	ldrb	r2, [r4, r1]
80001052:	5463      	strb	r3, [r4, r1]
80001054:	5422      	strb	r2, [r4, r0]
80001056:	1e40      	subs	r0, r0, #1
80001058:	1c49      	adds	r1, r1, #1
8000105a:	4281      	cmp	r1, r0
8000105c:	dbf7      	blt.n	8000104e <_fp_digits+0x17c>
8000105e:	46ab      	mov	fp, r5
80001060:	1ba8      	subs	r0, r5, r6
80001062:	1e40      	subs	r0, r0, #1
80001064:	9009      	str	r0, [sp, #36]	@ 0x24
80001066:	2000      	movs	r0, #0
80001068:	f804 000b 	strb.w	r0, [r4, fp]
8000106c:	980b      	ldr	r0, [sp, #44]	@ 0x2c
8000106e:	9a09      	ldr	r2, [sp, #36]	@ 0x24
80001070:	f8c0 8008 	str.w	r8, [r0, #8]
80001074:	e9c0 2b00 	strd	r2, fp, [r0]
80001078:	e77a      	b.n	80000f70 <_fp_digits+0x9e>
8000107a:	2611      	movs	r6, #17
8000107c:	f04f 0800 	mov.w	r8, #0
80001080:	e757      	b.n	80000f32 <_fp_digits+0x60>

80001082 <_printf_fp_dec_real>:
_printf_fp_dec_real():
80001082:	e92d 4ff0 	stmdb	sp!, {r4, r5, r6, r7, r8, r9, sl, fp, lr}
80001086:	4688      	mov	r8, r1
80001088:	4604      	mov	r4, r0
8000108a:	1dd2      	adds	r2, r2, #7
8000108c:	f022 0107 	bic.w	r1, r2, #7
80001090:	b091      	sub	sp, #68	@ 0x44
80001092:	e9d1 0100 	ldrd	r0, r1, [r1]
80001096:	e9cd 010a 	strd	r0, r1, [sp, #40]	@ 0x28
8000109a:	f004 fd8d 	bl	80005bb8 <__ARM_fpclassify>
8000109e:	4602      	mov	r2, r0
800010a0:	980b      	ldr	r0, [sp, #44]	@ 0x2c
800010a2:	0fc0      	lsrs	r0, r0, #31
800010a4:	d001      	beq.n	800010aa <_printf_fp_dec_real+0x28>
800010a6:	202d      	movs	r0, #45	@ 0x2d
800010a8:	e007      	b.n	800010ba <_printf_fp_dec_real+0x38>
800010aa:	6820      	ldr	r0, [r4, #0]
800010ac:	0781      	lsls	r1, r0, #30
800010ae:	d501      	bpl.n	800010b4 <_printf_fp_dec_real+0x32>
800010b0:	202b      	movs	r0, #43	@ 0x2b
800010b2:	e002      	b.n	800010ba <_printf_fp_dec_real+0x38>
800010b4:	2120      	movs	r1, #32
800010b6:	ea01 00c0 	and.w	r0, r1, r0, lsl #3
800010ba:	2a03      	cmp	r2, #3
800010bc:	9009      	str	r0, [sp, #36]	@ 0x24
800010be:	d001      	beq.n	800010c4 <_printf_fp_dec_real+0x42>
800010c0:	2a07      	cmp	r2, #7
800010c2:	db05      	blt.n	800010d0 <_printf_fp_dec_real+0x4e>
800010c4:	4603      	mov	r3, r0
800010c6:	4641      	mov	r1, r8
800010c8:	4620      	mov	r0, r4
800010ca:	f000 fcc3 	bl	80001a54 <_printf_fp_infnan>
800010ce:	e10b      	b.n	800012e8 <_printf_fp_dec_real+0x266>
800010d0:	7820      	ldrb	r0, [r4, #0]
800010d2:	0680      	lsls	r0, r0, #26
800010d4:	d501      	bpl.n	800010da <_printf_fp_dec_real+0x58>
800010d6:	69e0      	ldr	r0, [r4, #28]
800010d8:	e000      	b.n	800010dc <_printf_fp_dec_real+0x5a>
800010da:	2006      	movs	r0, #6
800010dc:	f1b8 0f65 	cmp.w	r8, #101	@ 0x65
800010e0:	4681      	mov	r9, r0
800010e2:	d006      	beq.n	800010f2 <_printf_fp_dec_real+0x70>
800010e4:	f1b8 0f66 	cmp.w	r8, #102	@ 0x66
800010e8:	d018      	beq.n	8000111c <_printf_fp_dec_real+0x9a>
800010ea:	f1b8 0f67 	cmp.w	r8, #103	@ 0x67
800010ee:	d170      	bne.n	800011d2 <_printf_fp_dec_real+0x150>
800010f0:	e031      	b.n	80001156 <_printf_fp_dec_real+0xd4>
800010f2:	2000      	movs	r0, #0
800010f4:	f1b9 0f11 	cmp.w	r9, #17
800010f8:	9000      	str	r0, [sp, #0]
800010fa:	db01      	blt.n	80001100 <_printf_fp_dec_real+0x7e>
800010fc:	2311      	movs	r3, #17
800010fe:	e001      	b.n	80001104 <_printf_fp_dec_real+0x82>
80001100:	f109 0301 	add.w	r3, r9, #1
80001104:	aa0a      	add	r2, sp, #40	@ 0x28
80001106:	a901      	add	r1, sp, #4
80001108:	a80c      	add	r0, sp, #48	@ 0x30
8000110a:	f7ff fee2 	bl	80000ed2 <_fp_digits>
8000110e:	e9dd 700c 	ldrd	r7, r0, [sp, #48]	@ 0x30
80001112:	2600      	movs	r6, #0
80001114:	f109 0501 	add.w	r5, r9, #1
80001118:	4683      	mov	fp, r0
8000111a:	e047      	b.n	800011ac <_printf_fp_dec_real+0x12a>
8000111c:	2001      	movs	r0, #1
8000111e:	464b      	mov	r3, r9
80001120:	9000      	str	r0, [sp, #0]
80001122:	f04f 4700 	mov.w	r7, #2147483648	@ 0x80000000
80001126:	aa0a      	add	r2, sp, #40	@ 0x28
80001128:	a901      	add	r1, sp, #4
8000112a:	a80c      	add	r0, sp, #48	@ 0x30
8000112c:	f7ff fed1 	bl	80000ed2 <_fp_digits>
80001130:	e9dd b00d 	ldrd	fp, r0, [sp, #52]	@ 0x34
80001134:	990c      	ldr	r1, [sp, #48]	@ 0x30
80001136:	465d      	mov	r5, fp
80001138:	2600      	movs	r6, #0
8000113a:	b910      	cbnz	r0, 80001142 <_printf_fp_dec_real+0xc0>
8000113c:	f109 0001 	add.w	r0, r9, #1
80001140:	180d      	adds	r5, r1, r0
80001142:	ebb9 0005 	subs.w	r0, r9, r5
80001146:	d403      	bmi.n	80001150 <_printf_fp_dec_real+0xce>
80001148:	f1c0 36ff 	rsb	r6, r0, #4294967295	@ 0xffffffff
8000114c:	f109 0501 	add.w	r5, r9, #1
80001150:	eba5 0009 	sub.w	r0, r5, r9
80001154:	e02b      	b.n	800011ae <_printf_fp_dec_real+0x12c>
80001156:	f1b9 0f01 	cmp.w	r9, #1
8000115a:	da01      	bge.n	80001160 <_printf_fp_dec_real+0xde>
8000115c:	f04f 0901 	mov.w	r9, #1
80001160:	2000      	movs	r0, #0
80001162:	f1b9 0f11 	cmp.w	r9, #17
80001166:	9000      	str	r0, [sp, #0]
80001168:	4648      	mov	r0, r9
8000116a:	dd01      	ble.n	80001170 <_printf_fp_dec_real+0xee>
8000116c:	2311      	movs	r3, #17
8000116e:	e000      	b.n	80001172 <_printf_fp_dec_real+0xf0>
80001170:	4603      	mov	r3, r0
80001172:	aa0a      	add	r2, sp, #40	@ 0x28
80001174:	a901      	add	r1, sp, #4
80001176:	a80c      	add	r0, sp, #48	@ 0x30
80001178:	f7ff feab 	bl	80000ed2 <_fp_digits>
8000117c:	e9dd 700c 	ldrd	r7, r0, [sp, #48]	@ 0x30
80001180:	464d      	mov	r5, r9
80001182:	2600      	movs	r6, #0
80001184:	4683      	mov	fp, r0
80001186:	7820      	ldrb	r0, [r4, #0]
80001188:	0700      	lsls	r0, r0, #28
8000118a:	d40a      	bmi.n	800011a2 <_printf_fp_dec_real+0x120>
8000118c:	45ab      	cmp	fp, r5
8000118e:	da00      	bge.n	80001192 <_printf_fp_dec_real+0x110>
80001190:	465d      	mov	r5, fp
80001192:	a801      	add	r0, sp, #4
80001194:	2d01      	cmp	r5, #1
80001196:	dd04      	ble.n	800011a2 <_printf_fp_dec_real+0x120>
80001198:	1941      	adds	r1, r0, r5
8000119a:	f811 1c01 	ldrb.w	r1, [r1, #-1]
8000119e:	2930      	cmp	r1, #48	@ 0x30
800011a0:	d007      	beq.n	800011b2 <_printf_fp_dec_real+0x130>
800011a2:	454f      	cmp	r7, r9
800011a4:	da02      	bge.n	800011ac <_printf_fp_dec_real+0x12a>
800011a6:	f117 0f04 	cmn.w	r7, #4
800011aa:	da04      	bge.n	800011b6 <_printf_fp_dec_real+0x134>
800011ac:	2001      	movs	r0, #1
800011ae:	4682      	mov	sl, r0
800011b0:	e00f      	b.n	800011d2 <_printf_fp_dec_real+0x150>
800011b2:	1e6d      	subs	r5, r5, #1
800011b4:	e7ee      	b.n	80001194 <_printf_fp_dec_real+0x112>
800011b6:	2f00      	cmp	r7, #0
800011b8:	dc02      	bgt.n	800011c0 <_printf_fp_dec_real+0x13e>
800011ba:	1bed      	subs	r5, r5, r7
800011bc:	443e      	add	r6, r7
800011be:	e003      	b.n	800011c8 <_printf_fp_dec_real+0x146>
800011c0:	1c78      	adds	r0, r7, #1
800011c2:	42a8      	cmp	r0, r5
800011c4:	dd00      	ble.n	800011c8 <_printf_fp_dec_real+0x146>
800011c6:	1c7d      	adds	r5, r7, #1
800011c8:	1bb8      	subs	r0, r7, r6
800011ca:	f100 0a01 	add.w	sl, r0, #1
800011ce:	f04f 4700 	mov.w	r7, #2147483648	@ 0x80000000
800011d2:	7820      	ldrb	r0, [r4, #0]
800011d4:	0700      	lsls	r0, r0, #28
800011d6:	d403      	bmi.n	800011e0 <_printf_fp_dec_real+0x15e>
800011d8:	45aa      	cmp	sl, r5
800011da:	db01      	blt.n	800011e0 <_printf_fp_dec_real+0x15e>
800011dc:	f04f 3aff 	mov.w	sl, #4294967295	@ 0xffffffff
800011e0:	2100      	movs	r1, #0
800011e2:	f1b7 4f00 	cmp.w	r7, #2147483648	@ 0x80000000
800011e6:	f10d 0843 	add.w	r8, sp, #67	@ 0x43
800011ea:	f88d 1043 	strb.w	r1, [sp, #67]	@ 0x43
800011ee:	d024      	beq.n	8000123a <_printf_fp_dec_real+0x1b8>
800011f0:	2002      	movs	r0, #2
800011f2:	232b      	movs	r3, #43	@ 0x2b
800011f4:	2f00      	cmp	r7, #0
800011f6:	da01      	bge.n	800011fc <_printf_fp_dec_real+0x17a>
800011f8:	427f      	negs	r7, r7
800011fa:	232d      	movs	r3, #45	@ 0x2d
800011fc:	210a      	movs	r1, #10
800011fe:	1e02      	subs	r2, r0, #0
80001200:	f1a0 0001 	sub.w	r0, r0, #1
80001204:	dc00      	bgt.n	80001208 <_printf_fp_dec_real+0x186>
80001206:	b15f      	cbz	r7, 80001220 <_printf_fp_dec_real+0x19e>
80001208:	fb97 fcf1 	sdiv	ip, r7, r1
8000120c:	fb97 f2f1 	sdiv	r2, r7, r1
80001210:	fb01 7c1c 	mls	ip, r1, ip, r7
80001214:	4617      	mov	r7, r2
80001216:	f10c 0c30 	add.w	ip, ip, #48	@ 0x30
8000121a:	f808 cd01 	strb.w	ip, [r8, #-1]!
8000121e:	e7ee      	b.n	800011fe <_printf_fp_dec_real+0x17c>
80001220:	f1a8 0001 	sub.w	r0, r8, #1
80001224:	7003      	strb	r3, [r0, #0]
80001226:	8821      	ldrh	r1, [r4, #0]
80001228:	0509      	lsls	r1, r1, #20
8000122a:	d501      	bpl.n	80001230 <_printf_fp_dec_real+0x1ae>
8000122c:	2145      	movs	r1, #69	@ 0x45
8000122e:	e000      	b.n	80001232 <_printf_fp_dec_real+0x1b0>
80001230:	2165      	movs	r1, #101	@ 0x65
80001232:	f1a0 0801 	sub.w	r8, r0, #1
80001236:	f800 1c01 	strb.w	r1, [r0, #-1]
8000123a:	9809      	ldr	r0, [sp, #36]	@ 0x24
8000123c:	a90f      	add	r1, sp, #60	@ 0x3c
8000123e:	eba1 0708 	sub.w	r7, r1, r8
80001242:	1dff      	adds	r7, r7, #7
80001244:	b100      	cbz	r0, 80001248 <_printf_fp_dec_real+0x1c6>
80001246:	2001      	movs	r0, #1
80001248:	1941      	adds	r1, r0, r5
8000124a:	eb01 70ea 	add.w	r0, r1, sl, asr #31
8000124e:	69a1      	ldr	r1, [r4, #24]
80001250:	4438      	add	r0, r7
80001252:	1a08      	subs	r0, r1, r0
80001254:	1e40      	subs	r0, r0, #1
80001256:	61a0      	str	r0, [r4, #24]
80001258:	7820      	ldrb	r0, [r4, #0]
8000125a:	06c0      	lsls	r0, r0, #27
8000125c:	d402      	bmi.n	80001264 <_printf_fp_dec_real+0x1e2>
8000125e:	4620      	mov	r0, r4
80001260:	f7ff fb78 	bl	80000954 <_printf_pre_padding>
80001264:	9809      	ldr	r0, [sp, #36]	@ 0x24
80001266:	b128      	cbz	r0, 80001274 <_printf_fp_dec_real+0x1f2>
80001268:	e9d4 2101 	ldrd	r2, r1, [r4, #4]
8000126c:	4790      	blx	r2
8000126e:	6a20      	ldr	r0, [r4, #32]
80001270:	1c40      	adds	r0, r0, #1
80001272:	6220      	str	r0, [r4, #32]
80001274:	7820      	ldrb	r0, [r4, #0]
80001276:	06c0      	lsls	r0, r0, #27
80001278:	d522      	bpl.n	800012c0 <_printf_fp_dec_real+0x23e>
8000127a:	4620      	mov	r0, r4
8000127c:	f7ff fb6a 	bl	80000954 <_printf_pre_padding>
80001280:	e01e      	b.n	800012c0 <_printf_fp_dec_real+0x23e>
80001282:	2e00      	cmp	r6, #0
80001284:	db04      	blt.n	80001290 <_printf_fp_dec_real+0x20e>
80001286:	45b3      	cmp	fp, r6
80001288:	dd02      	ble.n	80001290 <_printf_fp_dec_real+0x20e>
8000128a:	a801      	add	r0, sp, #4
8000128c:	5d80      	ldrb	r0, [r0, r6]
8000128e:	e000      	b.n	80001292 <_printf_fp_dec_real+0x210>
80001290:	2030      	movs	r0, #48	@ 0x30
80001292:	e9d4 2101 	ldrd	r2, r1, [r4, #4]
80001296:	4790      	blx	r2
80001298:	6a20      	ldr	r0, [r4, #32]
8000129a:	1c40      	adds	r0, r0, #1
8000129c:	6220      	str	r0, [r4, #32]
8000129e:	1c76      	adds	r6, r6, #1
800012a0:	f1aa 0001 	sub.w	r0, sl, #1
800012a4:	ea5f 0a00 	movs.w	sl, r0
800012a8:	d10a      	bne.n	800012c0 <_printf_fp_dec_real+0x23e>
800012aa:	f000 fb1b 	bl	800018e4 <__rt_locale>
800012ae:	68c0      	ldr	r0, [r0, #12]
800012b0:	6801      	ldr	r1, [r0, #0]
800012b2:	5c40      	ldrb	r0, [r0, r1]
800012b4:	e9d4 2101 	ldrd	r2, r1, [r4, #4]
800012b8:	4790      	blx	r2
800012ba:	6a20      	ldr	r0, [r4, #32]
800012bc:	1c40      	adds	r0, r0, #1
800012be:	6220      	str	r0, [r4, #32]
800012c0:	1e28      	subs	r0, r5, #0
800012c2:	f1a5 0501 	sub.w	r5, r5, #1
800012c6:	dcdc      	bgt.n	80001282 <_printf_fp_dec_real+0x200>
800012c8:	e007      	b.n	800012da <_printf_fp_dec_real+0x258>
800012ca:	e9d4 2101 	ldrd	r2, r1, [r4, #4]
800012ce:	f818 0b01 	ldrb.w	r0, [r8], #1
800012d2:	4790      	blx	r2
800012d4:	6a20      	ldr	r0, [r4, #32]
800012d6:	1c40      	adds	r0, r0, #1
800012d8:	6220      	str	r0, [r4, #32]
800012da:	1e38      	subs	r0, r7, #0
800012dc:	f1a7 0701 	sub.w	r7, r7, #1
800012e0:	dcf3      	bgt.n	800012ca <_printf_fp_dec_real+0x248>
800012e2:	4620      	mov	r0, r4
800012e4:	f7ff fb4c 	bl	80000980 <_printf_post_padding>
800012e8:	2003      	movs	r0, #3
800012ea:	b011      	add	sp, #68	@ 0x44
800012ec:	e641      	b.n	80000f72 <_fp_digits+0xa0>

800012ee <_printf_cs_common>:
_printf_cs_common():
800012ee:	b510      	push	{r4, lr}
800012f0:	6943      	ldr	r3, [r0, #20]
800012f2:	b113      	cbz	r3, 800012fa <_printf_cs_common+0xc>
800012f4:	f3af 8000 	nop.w
800012f8:	e001      	b.n	800012fe <_printf_cs_common+0x10>
800012fa:	f7ff fb52 	bl	800009a2 <_printf_str>
800012fe:	2001      	movs	r0, #1
80001300:	bd10      	pop	{r4, pc}

80001302 <_printf_char>:
_printf_char():
80001302:	7812      	ldrb	r2, [r2, #0]
80001304:	f100 0124 	add.w	r1, r0, #36	@ 0x24
80001308:	700a      	strb	r2, [r1, #0]
8000130a:	2200      	movs	r2, #0
8000130c:	704a      	strb	r2, [r1, #1]
8000130e:	2201      	movs	r2, #1
80001310:	e7ed      	b.n	800012ee <_printf_cs_common>

80001312 <_printf_string>:
_printf_string():
80001312:	6811      	ldr	r1, [r2, #0]
80001314:	f04f 32ff 	mov.w	r2, #4294967295	@ 0xffffffff
80001318:	e7e9      	b.n	800012ee <_printf_cs_common>
	...

8000131c <_printf_char_file>:
_printf_char_file():
8000131c:	4b07      	ldr	r3, [pc, #28]	@ (8000133c <_printf_char_file+0x20>)
8000131e:	b570      	push	{r4, r5, r6, lr}
80001320:	460d      	mov	r5, r1
80001322:	447b      	add	r3, pc
80001324:	f000 fb83 	bl	80001a2e <_printf_char_common>
80001328:	4604      	mov	r4, r0
8000132a:	4628      	mov	r0, r5
8000132c:	f000 fc44 	bl	80001bb8 <ferror>
80001330:	b110      	cbz	r0, 80001338 <_printf_char_file+0x1c>
80001332:	f04f 30ff 	mov.w	r0, #4294967295	@ 0xffffffff
80001336:	bd70      	pop	{r4, r5, r6, pc}
80001338:	4620      	mov	r0, r4
8000133a:	bd70      	pop	{r4, r5, r6, pc}
8000133c:	000048d1 	.word	0x000048d1

80001340 <__flsbuf>:
__flsbuf_byte():
80001340:	e92d 5ff0 	stmdb	sp!, {r4, r5, r6, r7, r8, r9, sl, fp, ip, lr}
__flsbuf():
80001344:	4605      	mov	r5, r0
80001346:	4617      	mov	r7, r2
80001348:	460c      	mov	r4, r1
8000134a:	68c8      	ldr	r0, [r1, #12]
8000134c:	f420 1020 	bic.w	r0, r0, #2621440	@ 0x280000
80001350:	f440 0080 	orr.w	r0, r0, #4194304	@ 0x400000
80001354:	60c8      	str	r0, [r1, #12]
80001356:	0680      	lsls	r0, r0, #26
80001358:	d502      	bpl.n	80001360 <__flsbuf+0x20>
8000135a:	4608      	mov	r0, r1
8000135c:	f000 f9c1 	bl	800016e2 <_deferredlazyseek>
80001360:	68e0      	ldr	r0, [r4, #12]
80001362:	f241 0182 	movw	r1, #4226	@ 0x1082
80001366:	f04f 3aff 	mov.w	sl, #4294967295	@ 0xffffffff
8000136a:	4001      	ands	r1, r0
8000136c:	2902      	cmp	r1, #2
8000136e:	d003      	beq.n	80001378 <__flsbuf+0x38>
80001370:	4620      	mov	r0, r4
80001372:	f000 f953 	bl	8000161c <_seterr>
80001376:	e0b9      	b.n	800014ec <__flsbuf+0x1ac>
80001378:	f400 4120 	and.w	r1, r0, #40960	@ 0xa000
8000137c:	f5b1 4f00 	cmp.w	r1, #32768	@ 0x8000
80001380:	d10f      	bne.n	800013a2 <__flsbuf+0x62>
80001382:	03c0      	lsls	r0, r0, #15
80001384:	d506      	bpl.n	80001394 <__flsbuf+0x54>
80001386:	6861      	ldr	r1, [r4, #4]
80001388:	6ae0      	ldr	r0, [r4, #44]	@ 0x2c
8000138a:	4288      	cmp	r0, r1
8000138c:	d800      	bhi.n	80001390 <__flsbuf+0x50>
8000138e:	4608      	mov	r0, r1
80001390:	6060      	str	r0, [r4, #4]
80001392:	e006      	b.n	800013a2 <__flsbuf+0x62>
80001394:	6920      	ldr	r0, [r4, #16]
80001396:	62e0      	str	r0, [r4, #44]	@ 0x2c
80001398:	6060      	str	r0, [r4, #4]
8000139a:	6960      	ldr	r0, [r4, #20]
8000139c:	f002 fd72 	bl	80003e84 <_sys_flen>
800013a0:	61a0      	str	r0, [r4, #24]
800013a2:	68a0      	ldr	r0, [r4, #8]
800013a4:	2200      	movs	r2, #0
800013a6:	b2ee      	uxtb	r6, r5
800013a8:	2800      	cmp	r0, #0
800013aa:	da0d      	bge.n	800013c8 <__flsbuf+0x88>
800013ac:	68e1      	ldr	r1, [r4, #12]
800013ae:	058b      	lsls	r3, r1, #22
800013b0:	d40a      	bmi.n	800013c8 <__flsbuf+0x88>
800013b2:	43c0      	mvns	r0, r0
800013b4:	60a0      	str	r0, [r4, #8]
800013b6:	f441 3090 	orr.w	r0, r1, #73728	@ 0x12000
800013ba:	6022      	str	r2, [r4, #0]
800013bc:	60e0      	str	r0, [r4, #12]
800013be:	6860      	ldr	r0, [r4, #4]
800013c0:	1c41      	adds	r1, r0, #1
800013c2:	6061      	str	r1, [r4, #4]
800013c4:	7006      	strb	r6, [r0, #0]
800013c6:	e0aa      	b.n	8000151e <__flsbuf+0x1de>
800013c8:	68e0      	ldr	r0, [r4, #12]
800013ca:	4691      	mov	r9, r2
800013cc:	6022      	str	r2, [r4, #0]
800013ce:	f440 5000 	orr.w	r0, r0, #8192	@ 0x2000
800013d2:	60e0      	str	r0, [r4, #12]
800013d4:	6920      	ldr	r0, [r4, #16]
800013d6:	bb78      	cbnz	r0, 80001438 <__flsbuf+0xf8>
800013d8:	6960      	ldr	r0, [r4, #20]
800013da:	f002 fd55 	bl	80003e88 <_sys_istty>
800013de:	f104 0524 	add.w	r5, r4, #36	@ 0x24
800013e2:	f04f 0801 	mov.w	r8, #1
800013e6:	b1a8      	cbz	r0, 80001414 <__flsbuf+0xd4>
800013e8:	89a0      	ldrh	r0, [r4, #12]
800013ea:	f410 7f40 	tst.w	r0, #768	@ 0x300
800013ee:	d008      	beq.n	80001402 <__flsbuf+0xc2>
800013f0:	69e0      	ldr	r0, [r4, #28]
800013f2:	f000 fa7b 	bl	800018ec <malloc>
800013f6:	6120      	str	r0, [r4, #16]
800013f8:	b118      	cbz	r0, 80001402 <__flsbuf+0xc2>
800013fa:	68e0      	ldr	r0, [r4, #12]
800013fc:	f440 6000 	orr.w	r0, r0, #2048	@ 0x800
80001400:	e017      	b.n	80001432 <__flsbuf+0xf2>
80001402:	f8c4 801c 	str.w	r8, [r4, #28]
80001406:	6125      	str	r5, [r4, #16]
80001408:	68e0      	ldr	r0, [r4, #12]
8000140a:	f420 7040 	bic.w	r0, r0, #768	@ 0x300
8000140e:	f440 6080 	orr.w	r0, r0, #1024	@ 0x400
80001412:	e00e      	b.n	80001432 <__flsbuf+0xf2>
80001414:	69e0      	ldr	r0, [r4, #28]
80001416:	f000 fa69 	bl	800018ec <malloc>
8000141a:	2800      	cmp	r0, #0
8000141c:	6120      	str	r0, [r4, #16]
8000141e:	d0f0      	beq.n	80001402 <__flsbuf+0xc2>
80001420:	68e0      	ldr	r0, [r4, #12]
80001422:	f440 6000 	orr.w	r0, r0, #2048	@ 0x800
80001426:	f410 7f40 	tst.w	r0, #768	@ 0x300
8000142a:	60e0      	str	r0, [r4, #12]
8000142c:	d102      	bne.n	80001434 <__flsbuf+0xf4>
8000142e:	f440 7080 	orr.w	r0, r0, #256	@ 0x100
80001432:	60e0      	str	r0, [r4, #12]
80001434:	6920      	ldr	r0, [r4, #16]
80001436:	6060      	str	r0, [r4, #4]
80001438:	68e0      	ldr	r0, [r4, #12]
8000143a:	6925      	ldr	r5, [r4, #16]
8000143c:	f06f 0b01 	mvn.w	fp, #1
80001440:	05c1      	lsls	r1, r0, #23
80001442:	d51e      	bpl.n	80001482 <__flsbuf+0x142>
80001444:	6861      	ldr	r1, [r4, #4]
80001446:	6ae0      	ldr	r0, [r4, #44]	@ 0x2c
80001448:	4288      	cmp	r0, r1
8000144a:	d800      	bhi.n	8000144e <__flsbuf+0x10e>
8000144c:	4608      	mov	r0, r1
8000144e:	1b41      	subs	r1, r0, r5
80001450:	d004      	beq.n	8000145c <__flsbuf+0x11c>
80001452:	4622      	mov	r2, r4
80001454:	4628      	mov	r0, r5
80001456:	f000 f8eb 	bl	80001630 <_writebuf>
8000145a:	bbe8      	cbnz	r0, 800014d8 <__flsbuf+0x198>
8000145c:	b11f      	cbz	r7, 80001466 <__flsbuf+0x126>
8000145e:	62e5      	str	r5, [r4, #44]	@ 0x2c
80001460:	e9c4 5901 	strd	r5, r9, [r4, #4]
80001464:	e059      	b.n	8000151a <__flsbuf+0x1da>
80001466:	1c68      	adds	r0, r5, #1
80001468:	62e0      	str	r0, [r4, #44]	@ 0x2c
8000146a:	6060      	str	r0, [r4, #4]
8000146c:	69e0      	ldr	r0, [r4, #28]
8000146e:	1e40      	subs	r0, r0, #1
80001470:	60a0      	str	r0, [r4, #8]
80001472:	68e0      	ldr	r0, [r4, #12]
80001474:	f440 3080 	orr.w	r0, r0, #65536	@ 0x10000
80001478:	60e0      	str	r0, [r4, #12]
8000147a:	4630      	mov	r0, r6
8000147c:	702e      	strb	r6, [r5, #0]
8000147e:	e8bd 9ff0 	ldmia.w	sp!, {r4, r5, r6, r7, r8, r9, sl, fp, ip, pc}
80001482:	b117      	cbz	r7, 8000148a <__flsbuf+0x14a>
80001484:	f400 3280 	and.w	r2, r0, #65536	@ 0x10000
80001488:	e00a      	b.n	800014a0 <__flsbuf+0x160>
8000148a:	6860      	ldr	r0, [r4, #4]
8000148c:	1c41      	adds	r1, r0, #1
8000148e:	6061      	str	r1, [r4, #4]
80001490:	7006      	strb	r6, [r0, #0]
80001492:	68e0      	ldr	r0, [r4, #12]
80001494:	2e0a      	cmp	r6, #10
80001496:	f440 3080 	orr.w	r0, r0, #65536	@ 0x10000
8000149a:	60e0      	str	r0, [r4, #12]
8000149c:	d006      	beq.n	800014ac <__flsbuf+0x16c>
8000149e:	2200      	movs	r2, #0
800014a0:	6ae1      	ldr	r1, [r4, #44]	@ 0x2c
800014a2:	6860      	ldr	r0, [r4, #4]
800014a4:	4281      	cmp	r1, r0
800014a6:	d903      	bls.n	800014b0 <__flsbuf+0x170>
800014a8:	460b      	mov	r3, r1
800014aa:	e002      	b.n	800014b2 <__flsbuf+0x172>
800014ac:	2201      	movs	r2, #1
800014ae:	e7f7      	b.n	800014a0 <__flsbuf+0x160>
800014b0:	4603      	mov	r3, r0
800014b2:	f8b4 c00c 	ldrh.w	ip, [r4, #12]
800014b6:	1b5b      	subs	r3, r3, r5
800014b8:	ea5f 5c4c 	movs.w	ip, ip, lsl #21
800014bc:	d404      	bmi.n	800014c8 <__flsbuf+0x188>
800014be:	f8d4 c01c 	ldr.w	ip, [r4, #28]
800014c2:	459c      	cmp	ip, r3
800014c4:	dd00      	ble.n	800014c8 <__flsbuf+0x188>
800014c6:	b302      	cbz	r2, 8000150a <__flsbuf+0x1ca>
800014c8:	4281      	cmp	r1, r0
800014ca:	d800      	bhi.n	800014ce <__flsbuf+0x18e>
800014cc:	4601      	mov	r1, r0
800014ce:	2b00      	cmp	r3, #0
800014d0:	eba1 0800 	sub.w	r8, r1, r0
800014d4:	62e5      	str	r5, [r4, #44]	@ 0x2c
800014d6:	e000      	b.n	800014da <__flsbuf+0x19a>
800014d8:	e008      	b.n	800014ec <__flsbuf+0x1ac>
800014da:	e9c4 5901 	strd	r5, r9, [r4, #4]
800014de:	dd07      	ble.n	800014f0 <__flsbuf+0x1b0>
800014e0:	4622      	mov	r2, r4
800014e2:	4619      	mov	r1, r3
800014e4:	4628      	mov	r0, r5
800014e6:	f000 f8a3 	bl	80001630 <_writebuf>
800014ea:	b108      	cbz	r0, 800014f0 <__flsbuf+0x1b0>
800014ec:	4650      	mov	r0, sl
800014ee:	e7c6      	b.n	8000147e <__flsbuf+0x13e>
800014f0:	f1b8 0f00 	cmp.w	r8, #0
800014f4:	d009      	beq.n	8000150a <__flsbuf+0x1ca>
800014f6:	69a1      	ldr	r1, [r4, #24]
800014f8:	62e5      	str	r5, [r4, #44]	@ 0x2c
800014fa:	6065      	str	r5, [r4, #4]
800014fc:	eba1 0008 	sub.w	r0, r1, r8
80001500:	61a0      	str	r0, [r4, #24]
80001502:	68e0      	ldr	r0, [r4, #12]
80001504:	f040 0010 	orr.w	r0, r0, #16
80001508:	60e0      	str	r0, [r4, #12]
8000150a:	b147      	cbz	r7, 8000151e <__flsbuf+0x1de>
8000150c:	6861      	ldr	r1, [r4, #4]
8000150e:	69a0      	ldr	r0, [r4, #24]
80001510:	62e5      	str	r5, [r4, #44]	@ 0x2c
80001512:	1b49      	subs	r1, r1, r5
80001514:	4408      	add	r0, r1
80001516:	6065      	str	r5, [r4, #4]
80001518:	61a0      	str	r0, [r4, #24]
8000151a:	4658      	mov	r0, fp
8000151c:	e7af      	b.n	8000147e <__flsbuf+0x13e>
8000151e:	4630      	mov	r0, r6
80001520:	e7ad      	b.n	8000147e <__flsbuf+0x13e>
	...

80001524 <_fseek>:
fseek():
80001524:	e92d 41f0 	stmdb	sp!, {r4, r5, r6, r7, r8, lr}
_fseek():
80001528:	4604      	mov	r4, r0
8000152a:	4616      	mov	r6, r2
8000152c:	460d      	mov	r5, r1
8000152e:	6947      	ldr	r7, [r0, #20]
80001530:	7b00      	ldrb	r0, [r0, #12]
80001532:	0780      	lsls	r0, r0, #30
80001534:	d02e      	beq.n	80001594 <_fseek+0x70>
80001536:	4638      	mov	r0, r7
80001538:	f002 fca6 	bl	80003e88 <_sys_istty>
8000153c:	bb50      	cbnz	r0, 80001594 <_fseek+0x70>
8000153e:	b33e      	cbz	r6, 80001590 <_fseek+0x6c>
80001540:	2e01      	cmp	r6, #1
80001542:	d002      	beq.n	8000154a <_fseek+0x26>
80001544:	2e02      	cmp	r6, #2
80001546:	d125      	bne.n	80001594 <_fseek+0x70>
80001548:	e004      	b.n	80001554 <_fseek+0x30>
8000154a:	4620      	mov	r0, r4
8000154c:	f000 fb38 	bl	80001bc0 <_ftell_internal>
80001550:	4405      	add	r5, r0
80001552:	e01d      	b.n	80001590 <_fseek+0x6c>
80001554:	4638      	mov	r0, r7
80001556:	f002 fc95 	bl	80003e84 <_sys_flen>
8000155a:	68e1      	ldr	r1, [r4, #12]
8000155c:	2800      	cmp	r0, #0
8000155e:	f041 0110 	orr.w	r1, r1, #16
80001562:	60e1      	str	r1, [r4, #12]
80001564:	da05      	bge.n	80001572 <_fseek+0x4e>
80001566:	4620      	mov	r0, r4
80001568:	f000 f858 	bl	8000161c <_seterr>
8000156c:	2001      	movs	r0, #1
8000156e:	e8bd 81f0 	ldmia.w	sp!, {r4, r5, r6, r7, r8, pc}
80001572:	03c9      	lsls	r1, r1, #15
80001574:	d50b      	bpl.n	8000158e <_fseek+0x6a>
80001576:	6862      	ldr	r2, [r4, #4]
80001578:	6ae1      	ldr	r1, [r4, #44]	@ 0x2c
8000157a:	4291      	cmp	r1, r2
8000157c:	d800      	bhi.n	80001580 <_fseek+0x5c>
8000157e:	4611      	mov	r1, r2
80001580:	69a2      	ldr	r2, [r4, #24]
80001582:	4411      	add	r1, r2
80001584:	6922      	ldr	r2, [r4, #16]
80001586:	1a89      	subs	r1, r1, r2
80001588:	4281      	cmp	r1, r0
8000158a:	dd00      	ble.n	8000158e <_fseek+0x6a>
8000158c:	4608      	mov	r0, r1
8000158e:	4405      	add	r5, r0
80001590:	2d00      	cmp	r5, #0
80001592:	da01      	bge.n	80001598 <_fseek+0x74>
80001594:	2002      	movs	r0, #2
80001596:	e7ea      	b.n	8000156e <_fseek+0x4a>
80001598:	6ae1      	ldr	r1, [r4, #44]	@ 0x2c
8000159a:	6860      	ldr	r0, [r4, #4]
8000159c:	68e2      	ldr	r2, [r4, #12]
8000159e:	4281      	cmp	r1, r0
800015a0:	d206      	bcs.n	800015b0 <_fseek+0x8c>
800015a2:	0391      	lsls	r1, r2, #14
800015a4:	62e0      	str	r0, [r4, #44]	@ 0x2c
800015a6:	d503      	bpl.n	800015b0 <_fseek+0x8c>
800015a8:	f422 3100 	bic.w	r1, r2, #131072	@ 0x20000
800015ac:	f041 0210 	orr.w	r2, r1, #16
800015b0:	69a6      	ldr	r6, [r4, #24]
800015b2:	2700      	movs	r7, #0
800015b4:	42ae      	cmp	r6, r5
800015b6:	dc13      	bgt.n	800015e0 <_fseek+0xbc>
800015b8:	6ae1      	ldr	r1, [r4, #44]	@ 0x2c
800015ba:	4281      	cmp	r1, r0
800015bc:	d901      	bls.n	800015c2 <_fseek+0x9e>
800015be:	460b      	mov	r3, r1
800015c0:	e000      	b.n	800015c4 <_fseek+0xa0>
800015c2:	4603      	mov	r3, r0
800015c4:	eb03 0c06 	add.w	ip, r3, r6
800015c8:	6923      	ldr	r3, [r4, #16]
800015ca:	ebac 0c03 	sub.w	ip, ip, r3
800015ce:	45ac      	cmp	ip, r5
800015d0:	dd06      	ble.n	800015e0 <_fseek+0xbc>
800015d2:	4281      	cmp	r1, r0
800015d4:	d901      	bls.n	800015da <_fseek+0xb6>
800015d6:	468c      	mov	ip, r1
800015d8:	e000      	b.n	800015dc <_fseek+0xb8>
800015da:	4684      	mov	ip, r0
800015dc:	459c      	cmp	ip, r3
800015de:	d105      	bne.n	800015ec <_fseek+0xc8>
800015e0:	60a7      	str	r7, [r4, #8]
800015e2:	6027      	str	r7, [r4, #0]
800015e4:	f042 0020 	orr.w	r0, r2, #32
800015e8:	62a5      	str	r5, [r4, #40]	@ 0x28
800015ea:	e00d      	b.n	80001608 <_fseek+0xe4>
800015ec:	1bad      	subs	r5, r5, r6
800015ee:	69e6      	ldr	r6, [r4, #28]
800015f0:	1bae      	subs	r6, r5, r6
800015f2:	4281      	cmp	r1, r0
800015f4:	60a6      	str	r6, [r4, #8]
800015f6:	d900      	bls.n	800015fa <_fseek+0xd6>
800015f8:	4608      	mov	r0, r1
800015fa:	1ac0      	subs	r0, r0, r3
800015fc:	1a28      	subs	r0, r5, r0
800015fe:	6020      	str	r0, [r4, #0]
80001600:	1958      	adds	r0, r3, r5
80001602:	6060      	str	r0, [r4, #4]
80001604:	f022 0020 	bic.w	r0, r2, #32
80001608:	4903      	ldr	r1, [pc, #12]	@ (80001618 <_fseek+0xf4>)
8000160a:	4008      	ands	r0, r1
8000160c:	60e0      	str	r0, [r4, #12]
8000160e:	2000      	movs	r0, #0
80001610:	f884 7048 	strb.w	r7, [r4, #72]	@ 0x48
80001614:	e7ab      	b.n	8000156e <_fseek+0x4a>
80001616:	0000      	.short	0x0000
80001618:	ffd7cfbf 	.word	0xffd7cfbf

8000161c <_seterr>:
_seterr():
8000161c:	68c1      	ldr	r1, [r0, #12]
8000161e:	f421 1100 	bic.w	r1, r1, #2097152	@ 0x200000
80001622:	f041 0180 	orr.w	r1, r1, #128	@ 0x80
80001626:	60c1      	str	r1, [r0, #12]
80001628:	2100      	movs	r1, #0
8000162a:	6081      	str	r1, [r0, #8]
8000162c:	6001      	str	r1, [r0, #0]
8000162e:	4770      	bx	lr

80001630 <_writebuf>:
_writebuf():
80001630:	e92d 4ff7 	stmdb	sp!, {r0, r1, r2, r4, r5, r6, r7, r8, r9, sl, fp, lr}
80001634:	4615      	mov	r5, r2
80001636:	460c      	mov	r4, r1
80001638:	f04f 3bff 	mov.w	fp, #4294967295	@ 0xffffffff
8000163c:	4838      	ldr	r0, [pc, #224]	@ (80001720 <_deferredlazyseek+0x3e>)
8000163e:	68d7      	ldr	r7, [r2, #12]
80001640:	f8d2 a014 	ldr.w	sl, [r2, #20]
80001644:	4207      	tst	r7, r0
80001646:	d009      	beq.n	8000165c <_writebuf+0x2c>
80001648:	4650      	mov	r0, sl
8000164a:	69a9      	ldr	r1, [r5, #24]
8000164c:	f002 fc3e 	bl	80003ecc <_sys_seek>
80001650:	2800      	cmp	r0, #0
80001652:	db19      	blt.n	80001688 <_writebuf+0x58>
80001654:	4832      	ldr	r0, [pc, #200]	@ (80001720 <_deferredlazyseek+0x3e>)
80001656:	43c0      	mvns	r0, r0
80001658:	4007      	ands	r7, r0
8000165a:	60ef      	str	r7, [r5, #12]
8000165c:	f04f 4900 	mov.w	r9, #2147483648	@ 0x80000000
80001660:	f06f 4800 	mvn.w	r8, #2147483648	@ 0x80000000
80001664:	454c      	cmp	r4, r9
80001666:	d301      	bcc.n	8000166c <_writebuf+0x3c>
80001668:	4646      	mov	r6, r8
8000166a:	e000      	b.n	8000166e <_writebuf+0x3e>
8000166c:	4626      	mov	r6, r4
8000166e:	9900      	ldr	r1, [sp, #0]
80001670:	463b      	mov	r3, r7
80001672:	4650      	mov	r0, sl
80001674:	4632      	mov	r2, r6
80001676:	f002 fc2b 	bl	80003ed0 <_sys_write>
8000167a:	69a9      	ldr	r1, [r5, #24]
8000167c:	f020 4200 	bic.w	r2, r0, #2147483648	@ 0x80000000
80001680:	1ab2      	subs	r2, r6, r2
80001682:	4411      	add	r1, r2
80001684:	61a9      	str	r1, [r5, #24]
80001686:	b128      	cbz	r0, 80001694 <_writebuf+0x64>
80001688:	4628      	mov	r0, r5
8000168a:	f7ff ffc7 	bl	8000161c <_seterr>
8000168e:	4658      	mov	r0, fp
80001690:	e8bd 8ffe 	ldmia.w	sp!, {r1, r2, r3, r4, r5, r6, r7, r8, r9, sl, fp, pc}
80001694:	1ba4      	subs	r4, r4, r6
80001696:	d1e5      	bne.n	80001664 <_writebuf+0x34>
80001698:	2000      	movs	r0, #0
8000169a:	e7f9      	b.n	80001690 <_writebuf+0x60>

8000169c <_fflush>:
_fflush():
8000169c:	b570      	push	{r4, r5, r6, lr}
8000169e:	4604      	mov	r4, r0
800016a0:	6905      	ldr	r5, [r0, #16]
800016a2:	6ac0      	ldr	r0, [r0, #44]	@ 0x2c
800016a4:	6861      	ldr	r1, [r4, #4]
800016a6:	4288      	cmp	r0, r1
800016a8:	d800      	bhi.n	800016ac <_fflush+0x10>
800016aa:	4608      	mov	r0, r1
800016ac:	68e1      	ldr	r1, [r4, #12]
800016ae:	f421 1120 	bic.w	r1, r1, #2621440	@ 0x280000
800016b2:	60e1      	str	r1, [r4, #12]
800016b4:	03c9      	lsls	r1, r1, #15
800016b6:	d512      	bpl.n	800016de <_fflush+0x42>
800016b8:	42a8      	cmp	r0, r5
800016ba:	d008      	beq.n	800016ce <_fflush+0x32>
800016bc:	4622      	mov	r2, r4
800016be:	1b41      	subs	r1, r0, r5
800016c0:	4628      	mov	r0, r5
800016c2:	f7ff ffb5 	bl	80001630 <_writebuf>
800016c6:	b110      	cbz	r0, 800016ce <_fflush+0x32>
800016c8:	f04f 30ff 	mov.w	r0, #4294967295	@ 0xffffffff
800016cc:	bd70      	pop	{r4, r5, r6, pc}
800016ce:	2000      	movs	r0, #0
800016d0:	62e5      	str	r5, [r4, #44]	@ 0x2c
800016d2:	e9c4 5001 	strd	r5, r0, [r4, #4]
800016d6:	68e0      	ldr	r0, [r4, #12]
800016d8:	f420 3080 	bic.w	r0, r0, #65536	@ 0x10000
800016dc:	60e0      	str	r0, [r4, #12]
800016de:	2000      	movs	r0, #0
800016e0:	bd70      	pop	{r4, r5, r6, pc}

800016e2 <_deferredlazyseek>:
_deferredlazyseek():
800016e2:	b510      	push	{r4, lr}
800016e4:	4604      	mov	r4, r0
800016e6:	68c0      	ldr	r0, [r0, #12]
800016e8:	f020 0020 	bic.w	r0, r0, #32
800016ec:	60e0      	str	r0, [r4, #12]
800016ee:	6aa1      	ldr	r1, [r4, #40]	@ 0x28
800016f0:	69a0      	ldr	r0, [r4, #24]
800016f2:	4288      	cmp	r0, r1
800016f4:	d00d      	beq.n	80001712 <_deferredlazyseek+0x30>
800016f6:	4620      	mov	r0, r4
800016f8:	f7ff ffd0 	bl	8000169c <_fflush>
800016fc:	68e0      	ldr	r0, [r4, #12]
800016fe:	f420 5040 	bic.w	r0, r0, #12288	@ 0x3000
80001702:	f040 0010 	orr.w	r0, r0, #16
80001706:	60e0      	str	r0, [r4, #12]
80001708:	6aa0      	ldr	r0, [r4, #40]	@ 0x28
8000170a:	61a0      	str	r0, [r4, #24]
8000170c:	6920      	ldr	r0, [r4, #16]
8000170e:	62e0      	str	r0, [r4, #44]	@ 0x2c
80001710:	6060      	str	r0, [r4, #4]
80001712:	f244 0140 	movw	r1, #16448	@ 0x4040
80001716:	68e0      	ldr	r0, [r4, #12]
80001718:	4388      	bics	r0, r1
8000171a:	60e0      	str	r0, [r4, #12]
8000171c:	bd10      	pop	{r4, pc}
8000171e:	0000      	.short	0x0000
80001720:	00020010 	.word	0x00020010

80001724 <_initio>:
_initio():
80001724:	b510      	push	{r4, lr}
80001726:	4842      	ldr	r0, [pc, #264]	@ (80001830 <_terminateio+0x3a>)
80001728:	2154      	movs	r1, #84	@ 0x54
8000172a:	f7ff fafc 	bl	80000d26 <__aeabi_memclr4>
8000172e:	4841      	ldr	r0, [pc, #260]	@ (80001834 <_terminateio+0x3e>)
80001730:	2154      	movs	r1, #84	@ 0x54
80001732:	f7ff faf8 	bl	80000d26 <__aeabi_memclr4>
80001736:	4840      	ldr	r0, [pc, #256]	@ (80001838 <_terminateio+0x42>)
80001738:	2154      	movs	r1, #84	@ 0x54
8000173a:	f7ff faf4 	bl	80000d26 <__aeabi_memclr4>
8000173e:	493f      	ldr	r1, [pc, #252]	@ (8000183c <_terminateio+0x46>)
80001740:	483b      	ldr	r0, [pc, #236]	@ (80001830 <_terminateio+0x3a>)
80001742:	4a3c      	ldr	r2, [pc, #240]	@ (80001834 <_terminateio+0x3e>)
80001744:	4b3f      	ldr	r3, [pc, #252]	@ (80001844 <_terminateio+0x4e>)
80001746:	6008      	str	r0, [r1, #0]
80001748:	493d      	ldr	r1, [pc, #244]	@ (80001840 <_terminateio+0x4a>)
8000174a:	600a      	str	r2, [r1, #0]
8000174c:	493a      	ldr	r1, [pc, #232]	@ (80001838 <_terminateio+0x42>)
8000174e:	6019      	str	r1, [r3, #0]
80001750:	1c53      	adds	r3, r2, #1
80001752:	6503      	str	r3, [r0, #80]	@ 0x50
80001754:	1c48      	adds	r0, r1, #1
80001756:	6510      	str	r0, [r2, #80]	@ 0x50
80001758:	2001      	movs	r0, #1
8000175a:	6508      	str	r0, [r1, #80]	@ 0x50
8000175c:	483b      	ldr	r0, [pc, #236]	@ (8000184c <_terminateio+0x56>)
8000175e:	4a34      	ldr	r2, [pc, #208]	@ (80001830 <_terminateio+0x3a>)
80001760:	a139      	add	r1, pc, #228	@ (adr r1, 80001848 <_terminateio+0x52>)
80001762:	4478      	add	r0, pc
80001764:	f000 fa70 	bl	80001c48 <freopen>
80001768:	b920      	cbnz	r0, 80001774 <_initio+0x50>
8000176a:	4838      	ldr	r0, [pc, #224]	@ (8000184c <_terminateio+0x56>)
8000176c:	4478      	add	r0, pc
8000176e:	380a      	subs	r0, #10
80001770:	f000 fb0f 	bl	80001d92 <__rt_SIGRTRED>
80001774:	4837      	ldr	r0, [pc, #220]	@ (80001854 <_terminateio+0x5e>)
80001776:	4a2f      	ldr	r2, [pc, #188]	@ (80001834 <_terminateio+0x3e>)
80001778:	a135      	add	r1, pc, #212	@ (adr r1, 80001850 <_terminateio+0x5a>)
8000177a:	4478      	add	r0, pc
8000177c:	f000 fa64 	bl	80001c48 <freopen>
80001780:	b920      	cbnz	r0, 8000178c <_initio+0x68>
80001782:	4834      	ldr	r0, [pc, #208]	@ (80001854 <_terminateio+0x5e>)
80001784:	4478      	add	r0, pc
80001786:	380a      	subs	r0, #10
80001788:	f000 fb03 	bl	80001d92 <__rt_SIGRTRED>
8000178c:	4832      	ldr	r0, [pc, #200]	@ (80001858 <_terminateio+0x62>)
8000178e:	4a2a      	ldr	r2, [pc, #168]	@ (80001838 <_terminateio+0x42>)
80001790:	a12f      	add	r1, pc, #188	@ (adr r1, 80001850 <_terminateio+0x5a>)
80001792:	4478      	add	r0, pc
80001794:	f000 fa58 	bl	80001c48 <freopen>
80001798:	b920      	cbnz	r0, 800017a4 <_initio+0x80>
8000179a:	482f      	ldr	r0, [pc, #188]	@ (80001858 <_terminateio+0x62>)
8000179c:	4478      	add	r0, pc
8000179e:	380a      	subs	r0, #10
800017a0:	f000 faf7 	bl	80001d92 <__rt_SIGRTRED>
800017a4:	2340      	movs	r3, #64	@ 0x40
800017a6:	4822      	ldr	r0, [pc, #136]	@ (80001830 <_terminateio+0x3a>)
800017a8:	00dc      	lsls	r4, r3, #3
800017aa:	2100      	movs	r1, #0
800017ac:	4622      	mov	r2, r4
800017ae:	f000 fa28 	bl	80001c02 <setvbuf>
800017b2:	b120      	cbz	r0, 800017be <_initio+0x9a>
800017b4:	4825      	ldr	r0, [pc, #148]	@ (8000184c <_terminateio+0x56>)
800017b6:	4478      	add	r0, pc
800017b8:	3854      	subs	r0, #84	@ 0x54
800017ba:	f000 faea 	bl	80001d92 <__rt_SIGRTRED>
800017be:	481d      	ldr	r0, [pc, #116]	@ (80001834 <_terminateio+0x3e>)
800017c0:	4622      	mov	r2, r4
800017c2:	2340      	movs	r3, #64	@ 0x40
800017c4:	2100      	movs	r1, #0
800017c6:	f000 fa1c 	bl	80001c02 <setvbuf>
800017ca:	b120      	cbz	r0, 800017d6 <_initio+0xb2>
800017cc:	4821      	ldr	r0, [pc, #132]	@ (80001854 <_terminateio+0x5e>)
800017ce:	4478      	add	r0, pc
800017d0:	3854      	subs	r0, #84	@ 0x54
800017d2:	f000 fade 	bl	80001d92 <__rt_SIGRTRED>
800017d6:	4818      	ldr	r0, [pc, #96]	@ (80001838 <_terminateio+0x42>)
800017d8:	4622      	mov	r2, r4
800017da:	2310      	movs	r3, #16
800017dc:	2100      	movs	r1, #0
800017de:	f000 fa10 	bl	80001c02 <setvbuf>
800017e2:	2800      	cmp	r0, #0
800017e4:	d006      	beq.n	800017f4 <_initio+0xd0>
800017e6:	481c      	ldr	r0, [pc, #112]	@ (80001858 <_terminateio+0x62>)
800017e8:	4478      	add	r0, pc
800017ea:	e8bd 4010 	ldmia.w	sp!, {r4, lr}
800017ee:	3856      	subs	r0, #86	@ 0x56
800017f0:	f000 bacf 	b.w	80001d92 <__rt_SIGRTRED>
800017f4:	bd10      	pop	{r4, pc}

800017f6 <_terminateio>:
_terminateio():
800017f6:	4810      	ldr	r0, [pc, #64]	@ (80001838 <_terminateio+0x42>)
800017f8:	b570      	push	{r4, r5, r6, lr}
800017fa:	6d00      	ldr	r0, [r0, #80]	@ 0x50
800017fc:	f020 0401 	bic.w	r4, r0, #1
80001800:	480b      	ldr	r0, [pc, #44]	@ (80001830 <_terminateio+0x3a>)
80001802:	f000 fa99 	bl	80001d38 <_fclose_internal>
80001806:	480b      	ldr	r0, [pc, #44]	@ (80001834 <_terminateio+0x3e>)
80001808:	f000 fa96 	bl	80001d38 <_fclose_internal>
8000180c:	480a      	ldr	r0, [pc, #40]	@ (80001838 <_terminateio+0x42>)
8000180e:	f000 fa93 	bl	80001d38 <_fclose_internal>
80001812:	e009      	b.n	80001828 <_terminateio+0x32>
80001814:	6d20      	ldr	r0, [r4, #80]	@ 0x50
80001816:	f020 0501 	bic.w	r5, r0, #1
8000181a:	4620      	mov	r0, r4
8000181c:	f000 fa8c 	bl	80001d38 <_fclose_internal>
80001820:	4620      	mov	r0, r4
80001822:	f000 f892 	bl	8000194a <free>
80001826:	462c      	mov	r4, r5
80001828:	2c00      	cmp	r4, #0
8000182a:	d1f3      	bne.n	80001814 <_terminateio+0x1e>
8000182c:	bd70      	pop	{r4, r5, r6, pc}
8000182e:	0000      	.short	0x0000
80001830:	20000698 	.word	0x20000698
80001834:	200006ec 	.word	0x200006ec
80001838:	20000740 	.word	0x20000740
8000183c:	20000000 	.word	0x20000000
80001840:	20000004 	.word	0x20000004
80001844:	20000008 	.word	0x20000008
80001848:	00000072 	.word	0x00000072
8000184c:	000044fc 	.word	0x000044fc
80001850:	00000077 	.word	0x00000077
80001854:	000044e8 	.word	0x000044e8
80001858:	000044d4 	.word	0x000044d4

8000185c <abort>:
abort():
8000185c:	b510      	push	{r4, lr}
8000185e:	2000      	movs	r0, #0
80001860:	f000 fa90 	bl	80001d84 <__rt_SIGABRT>
80001864:	f7ff f826 	bl	800008b4 <__rt_lib_shutdown>
80001868:	e8bd 4010 	ldmia.w	sp!, {r4, lr}
8000186c:	2001      	movs	r0, #1
8000186e:	f000 b833 	b.w	800018d8 <_sys_exit>

80001872 <__rt_memcpy_w>:
__aeabi_memcpy4():
80001872:	b510      	push	{r4, lr}
__rt_memcpy_w():
80001874:	3a20      	subs	r2, #32
80001876:	f0c0 800b 	bcc.w	80001890 <__rt_memcpy_w+0x1e>
8000187a:	e8b1 5018 	ldmia.w	r1!, {r3, r4, ip, lr}
8000187e:	e8a0 5018 	stmia.w	r0!, {r3, r4, ip, lr}
80001882:	e8b1 5018 	ldmia.w	r1!, {r3, r4, ip, lr}
80001886:	e8a0 5018 	stmia.w	r0!, {r3, r4, ip, lr}
8000188a:	3a20      	subs	r2, #32
8000188c:	f4bf aff5 	bcs.w	8000187a <__rt_memcpy_w+0x8>
80001890:	ea5f 7c02 	movs.w	ip, r2, lsl #28
80001894:	bf24      	itt	cs
80001896:	e8b1 5018 	ldmiacs.w	r1!, {r3, r4, ip, lr}
8000189a:	e8a0 5018 	stmiacs.w	r0!, {r3, r4, ip, lr}
8000189e:	bf44      	itt	mi
800018a0:	c918      	ldmiami	r1!, {r3, r4}
800018a2:	c018      	stmiami	r0!, {r3, r4}
800018a4:	e8bd 4010 	ldmia.w	sp!, {r4, lr}
800018a8:	ea5f 7c82 	movs.w	ip, r2, lsl #30
800018ac:	bf24      	itt	cs
800018ae:	f851 3b04 	ldrcs.w	r3, [r1], #4
800018b2:	f840 3b04 	strcs.w	r3, [r0], #4
800018b6:	bf08      	it	eq
800018b8:	4770      	bxeq	lr

800018ba <_memcpy_lastbytes_aligned>:
_memcpy_lastbytes_aligned():
800018ba:	07d2      	lsls	r2, r2, #31
800018bc:	bf28      	it	cs
800018be:	f831 3b02 	ldrhcs.w	r3, [r1], #2
800018c2:	bf48      	it	mi
800018c4:	f811 2b01 	ldrbmi.w	r2, [r1], #1
800018c8:	bf28      	it	cs
800018ca:	f820 3b02 	strhcs.w	r3, [r0], #2
800018ce:	bf48      	it	mi
800018d0:	f800 2b01 	strbmi.w	r2, [r0], #1
800018d4:	4770      	bx	lr
	...

800018d8 <_sys_exit>:
_sys_exit():
800018d8:	4901      	ldr	r1, [pc, #4]	@ (800018e0 <_sys_exit+0x8>)
800018da:	2018      	movs	r0, #24
800018dc:	beab      	bkpt	0x00ab
800018de:	e7fe      	b.n	800018de <_sys_exit+0x6>
800018e0:	00020026 	.word	0x00020026

800018e4 <__rt_locale>:
__rt_locale():
800018e4:	4800      	ldr	r0, [pc, #0]	@ (800018e8 <__rt_locale+0x4>)
800018e6:	4770      	bx	lr
800018e8:	200007b4 	.word	0x200007b4

800018ec <malloc>:
malloc():
800018ec:	b570      	push	{r4, r5, r6, lr}
800018ee:	4606      	mov	r6, r0
800018f0:	f000 fa58 	bl	80001da4 <__rt_heap_descriptor>
800018f4:	6805      	ldr	r5, [r0, #0]
800018f6:	f106 000b 	add.w	r0, r6, #11
800018fa:	f020 0407 	bic.w	r4, r0, #7
800018fe:	42b4      	cmp	r4, r6
80001900:	bf9c      	itt	ls
80001902:	2000      	movls	r0, #0
80001904:	bd70      	popls	{r4, r5, r6, pc}
80001906:	462b      	mov	r3, r5
80001908:	686a      	ldr	r2, [r5, #4]
8000190a:	b1ba      	cbz	r2, 8000193c <malloc+0x50>
8000190c:	6810      	ldr	r0, [r2, #0]
8000190e:	42a0      	cmp	r0, r4
80001910:	d310      	bcc.n	80001934 <malloc+0x48>
80001912:	f104 0108 	add.w	r1, r4, #8
80001916:	4288      	cmp	r0, r1
80001918:	bf3c      	itt	cc
8000191a:	6850      	ldrcc	r0, [r2, #4]
8000191c:	6058      	strcc	r0, [r3, #4]
8000191e:	d307      	bcc.n	80001930 <malloc+0x44>
80001920:	6851      	ldr	r1, [r2, #4]
80001922:	1910      	adds	r0, r2, r4
80001924:	6041      	str	r1, [r0, #4]
80001926:	6811      	ldr	r1, [r2, #0]
80001928:	1b09      	subs	r1, r1, r4
8000192a:	6001      	str	r1, [r0, #0]
8000192c:	6058      	str	r0, [r3, #4]
8000192e:	6014      	str	r4, [r2, #0]
80001930:	1d10      	adds	r0, r2, #4
80001932:	bd70      	pop	{r4, r5, r6, pc}
80001934:	4613      	mov	r3, r2
80001936:	6852      	ldr	r2, [r2, #4]
80001938:	2a00      	cmp	r2, #0
8000193a:	d1e7      	bne.n	8000190c <malloc+0x20>
8000193c:	4621      	mov	r1, r4
8000193e:	4628      	mov	r0, r5
80001940:	f000 fa3c 	bl	80001dbc <__Heap_Full>
80001944:	2800      	cmp	r0, #0
80001946:	d1de      	bne.n	80001906 <malloc+0x1a>
80001948:	bd70      	pop	{r4, r5, r6, pc}

8000194a <free>:
free():
8000194a:	b570      	push	{r4, r5, r6, lr}
8000194c:	4604      	mov	r4, r0
8000194e:	1f05      	subs	r5, r0, #4
80001950:	f000 fa28 	bl	80001da4 <__rt_heap_descriptor>
80001954:	6800      	ldr	r0, [r0, #0]
80001956:	2c00      	cmp	r4, #0
80001958:	bf14      	ite	ne
8000195a:	6844      	ldrne	r4, [r0, #4]
8000195c:	bd70      	popeq	{r4, r5, r6, pc}
8000195e:	2c00      	cmp	r4, #0
80001960:	bf18      	it	ne
80001962:	42ac      	cmpne	r4, r5
80001964:	bf3c      	itt	cc
80001966:	4620      	movcc	r0, r4
80001968:	6864      	ldrcc	r4, [r4, #4]
8000196a:	d3f8      	bcc.n	8000195e <free+0x14>
8000196c:	6801      	ldr	r1, [r0, #0]
8000196e:	180a      	adds	r2, r1, r0
80001970:	42aa      	cmp	r2, r5
80001972:	bf18      	it	ne
80001974:	6045      	strne	r5, [r0, #4]
80001976:	d103      	bne.n	80001980 <free+0x36>
80001978:	682a      	ldr	r2, [r5, #0]
8000197a:	4605      	mov	r5, r0
8000197c:	4411      	add	r1, r2
8000197e:	6001      	str	r1, [r0, #0]
80001980:	6828      	ldr	r0, [r5, #0]
80001982:	1941      	adds	r1, r0, r5
80001984:	42a1      	cmp	r1, r4
80001986:	bf1c      	itt	ne
80001988:	606c      	strne	r4, [r5, #4]
8000198a:	bd70      	popne	{r4, r5, r6, pc}
8000198c:	6861      	ldr	r1, [r4, #4]
8000198e:	6069      	str	r1, [r5, #4]
80001990:	6821      	ldr	r1, [r4, #0]
80001992:	4408      	add	r0, r1
80001994:	6028      	str	r0, [r5, #0]
80001996:	bd70      	pop	{r4, r5, r6, pc}

80001998 <_ll_udiv10>:
_ll_udiv10():
80001998:	b530      	push	{r4, r5, lr}
8000199a:	f1b0 020a 	subs.w	r2, r0, #10
8000199e:	f171 0300 	sbcs.w	r3, r1, #0
800019a2:	ea4f 0e90 	mov.w	lr, r0, lsr #2
800019a6:	ea4e 7e81 	orr.w	lr, lr, r1, lsl #30
800019aa:	ebb0 000e 	subs.w	r0, r0, lr
800019ae:	eb61 0191 	sbc.w	r1, r1, r1, lsr #2
800019b2:	ea4f 1e10 	mov.w	lr, r0, lsr #4
800019b6:	ea4e 7e01 	orr.w	lr, lr, r1, lsl #28
800019ba:	eb10 000e 	adds.w	r0, r0, lr
800019be:	eb41 1111 	adc.w	r1, r1, r1, lsr #4
800019c2:	ea4f 2e10 	mov.w	lr, r0, lsr #8
800019c6:	ea4e 6e01 	orr.w	lr, lr, r1, lsl #24
800019ca:	eb10 000e 	adds.w	r0, r0, lr
800019ce:	eb41 2111 	adc.w	r1, r1, r1, lsr #8
800019d2:	ea4f 4e10 	mov.w	lr, r0, lsr #16
800019d6:	ea4e 4e01 	orr.w	lr, lr, r1, lsl #16
800019da:	eb10 000e 	adds.w	r0, r0, lr
800019de:	eb41 4111 	adc.w	r1, r1, r1, lsr #16
800019e2:	1840      	adds	r0, r0, r1
800019e4:	f141 0100 	adc.w	r1, r1, #0
800019e8:	ea4f 00d0 	mov.w	r0, r0, lsr #3
800019ec:	ea40 7041 	orr.w	r0, r0, r1, lsl #29
800019f0:	ea4f 01d1 	mov.w	r1, r1, lsr #3
800019f4:	ea4f 0481 	mov.w	r4, r1, lsl #2
800019f8:	ea44 7490 	orr.w	r4, r4, r0, lsr #30
800019fc:	eb10 0580 	adds.w	r5, r0, r0, lsl #2
80001a00:	eb44 0401 	adc.w	r4, r4, r1
80001a04:	196d      	adds	r5, r5, r5
80001a06:	eb44 0404 	adc.w	r4, r4, r4
80001a0a:	1b52      	subs	r2, r2, r5
80001a0c:	41a3      	sbcs	r3, r4
80001a0e:	f04f 0300 	mov.w	r3, #0
80001a12:	bf48      	it	mi
80001a14:	320a      	addmi	r2, #10
80001a16:	d500      	bpl.n	80001a1a <_ll_udiv10+0x82>
80001a18:	bd30      	pop	{r4, r5, pc}
80001a1a:	1c40      	adds	r0, r0, #1
80001a1c:	f141 0100 	adc.w	r1, r1, #0
80001a20:	bd30      	pop	{r4, r5, pc}
	...

80001a24 <_printf_input_char>:
_printf_input_char():
80001a24:	6901      	ldr	r1, [r0, #16]
80001a26:	1c4a      	adds	r2, r1, #1
80001a28:	6102      	str	r2, [r0, #16]
80001a2a:	7808      	ldrb	r0, [r1, #0]
80001a2c:	4770      	bx	lr

80001a2e <_printf_char_common>:
_printf_char_common():
80001a2e:	b500      	push	{lr}
80001a30:	b08f      	sub	sp, #60	@ 0x3c
80001a32:	e9cd 3101 	strd	r3, r1, [sp, #4]
80001a36:	2100      	movs	r1, #0
80001a38:	9105      	str	r1, [sp, #20]
80001a3a:	4905      	ldr	r1, [pc, #20]	@ (80001a50 <_printf_char_common+0x22>)
80001a3c:	4479      	add	r1, pc
80001a3e:	e9cd 1003 	strd	r1, r0, [sp, #12]
80001a42:	4611      	mov	r1, r2
80001a44:	4668      	mov	r0, sp
80001a46:	f7ff f83d 	bl	80000ac4 <__printf>
80001a4a:	b00f      	add	sp, #60	@ 0x3c
80001a4c:	bd00      	pop	{pc}
80001a4e:	0000      	.short	0x0000
80001a50:	ffffffe5 	.word	0xffffffe5

80001a54 <_printf_fp_infnan>:
_printf_fp_infnan():
80001a54:	e92d 41f0 	stmdb	sp!, {r4, r5, r6, r7, r8, lr}
80001a58:	461f      	mov	r7, r3
80001a5a:	4604      	mov	r4, r0
80001a5c:	2603      	movs	r6, #3
80001a5e:	6801      	ldr	r1, [r0, #0]
80001a60:	2a07      	cmp	r2, #7
80001a62:	f401 6000 	and.w	r0, r1, #2048	@ 0x800
80001a66:	db04      	blt.n	80001a72 <_printf_fp_infnan+0x1e>
80001a68:	b108      	cbz	r0, 80001a6e <_printf_fp_infnan+0x1a>
80001a6a:	a516      	add	r5, pc, #88	@ (adr r5, 80001ac4 <_printf_fp_infnan+0x70>)
80001a6c:	e005      	b.n	80001a7a <_printf_fp_infnan+0x26>
80001a6e:	a516      	add	r5, pc, #88	@ (adr r5, 80001ac8 <_printf_fp_infnan+0x74>)
80001a70:	e003      	b.n	80001a7a <_printf_fp_infnan+0x26>
80001a72:	b108      	cbz	r0, 80001a78 <_printf_fp_infnan+0x24>
80001a74:	a515      	add	r5, pc, #84	@ (adr r5, 80001acc <_printf_fp_infnan+0x78>)
80001a76:	e000      	b.n	80001a7a <_printf_fp_infnan+0x26>
80001a78:	a515      	add	r5, pc, #84	@ (adr r5, 80001ad0 <_printf_fp_infnan+0x7c>)
80001a7a:	f021 0010 	bic.w	r0, r1, #16
80001a7e:	6020      	str	r0, [r4, #0]
80001a80:	69a0      	ldr	r0, [r4, #24]
80001a82:	1ec0      	subs	r0, r0, #3
80001a84:	61a0      	str	r0, [r4, #24]
80001a86:	b10f      	cbz	r7, 80001a8c <_printf_fp_infnan+0x38>
80001a88:	1e40      	subs	r0, r0, #1
80001a8a:	61a0      	str	r0, [r4, #24]
80001a8c:	4620      	mov	r0, r4
80001a8e:	f7fe ff61 	bl	80000954 <_printf_pre_padding>
80001a92:	b14f      	cbz	r7, 80001aa8 <_printf_fp_infnan+0x54>
80001a94:	e9d4 2101 	ldrd	r2, r1, [r4, #4]
80001a98:	4638      	mov	r0, r7
80001a9a:	4790      	blx	r2
80001a9c:	6a20      	ldr	r0, [r4, #32]
80001a9e:	1c40      	adds	r0, r0, #1
80001aa0:	6220      	str	r0, [r4, #32]
80001aa2:	1cc0      	adds	r0, r0, #3
80001aa4:	6220      	str	r0, [r4, #32]
80001aa6:	e006      	b.n	80001ab6 <_printf_fp_infnan+0x62>
80001aa8:	6a20      	ldr	r0, [r4, #32]
80001aaa:	e7fa      	b.n	80001aa2 <_printf_fp_infnan+0x4e>
80001aac:	e9d4 2101 	ldrd	r2, r1, [r4, #4]
80001ab0:	f815 0b01 	ldrb.w	r0, [r5], #1
80001ab4:	4790      	blx	r2
80001ab6:	1e76      	subs	r6, r6, #1
80001ab8:	d2f8      	bcs.n	80001aac <_printf_fp_infnan+0x58>
80001aba:	4620      	mov	r0, r4
80001abc:	f7fe ff60 	bl	80000980 <_printf_post_padding>
80001ac0:	e8bd 81f0 	ldmia.w	sp!, {r4, r5, r6, r7, r8, pc}
80001ac4:	004e414e 	.word	0x004e414e
80001ac8:	006e616e 	.word	0x006e616e
80001acc:	00464e49 	.word	0x00464e49
80001ad0:	00666e69 	.word	0x00666e69

80001ad4 <_btod_etento>:
_btod_etento():
80001ad4:	e92d 47f0 	stmdb	sp!, {r4, r5, r6, r7, r8, r9, sl, lr}
80001ad8:	4681      	mov	r9, r0
80001ada:	4616      	mov	r6, r2
80001adc:	b08a      	sub	sp, #40	@ 0x28
80001ade:	4835      	ldr	r0, [pc, #212]	@ (80001bb4 <_btod_etento+0xe0>)
80001ae0:	4478      	add	r0, pc
80001ae2:	c80d      	ldmia	r0, {r0, r2, r3}
80001ae4:	e88d 000d 	stmia.w	sp, {r0, r2, r3}
80001ae8:	4832      	ldr	r0, [pc, #200]	@ (80001bb4 <_btod_etento+0xe0>)
80001aea:	4478      	add	r0, pc
80001aec:	1c80      	adds	r0, r0, #2
80001aee:	ac03      	add	r4, sp, #12
80001af0:	c80d      	ldmia	r0, {r0, r2, r3}
80001af2:	e884 000d 	stmia.w	r4, {r0, r2, r3}
80001af6:	f641 309b 	movw	r0, #7067	@ 0x1b9b
80001afa:	4408      	add	r0, r1
80001afc:	2137      	movs	r1, #55	@ 0x37
80001afe:	fb90 f2f1 	sdiv	r2, r0, r1
80001b02:	fb90 f5f1 	sdiv	r5, r0, r1
80001b06:	f1a5 0580 	sub.w	r5, r5, #128	@ 0x80
80001b0a:	fb01 0412 	mls	r4, r1, r2, r0
80001b0e:	3c1b      	subs	r4, #27
80001b10:	d502      	bpl.n	80001b18 <_btod_etento+0x44>
80001b12:	4264      	negs	r4, r4
80001b14:	2001      	movs	r0, #1
80001b16:	e000      	b.n	80001b1a <_btod_etento+0x46>
80001b18:	2000      	movs	r0, #0
80001b1a:	f8df a098 	ldr.w	sl, [pc, #152]	@ 80001bb4 <_btod_etento+0xe0>
80001b1e:	4680      	mov	r8, r0
80001b20:	2700      	movs	r7, #0
80001b22:	44fa      	add	sl, pc
80001b24:	f1aa 0abe 	sub.w	sl, sl, #190	@ 0xbe
80001b28:	e00e      	b.n	80001b48 <_btod_etento+0x74>
80001b2a:	07e0      	lsls	r0, r4, #31
80001b2c:	d00a      	beq.n	80001b44 <_btod_etento+0x70>
80001b2e:	4632      	mov	r2, r6
80001b30:	4668      	mov	r0, sp
80001b32:	eb07 0147 	add.w	r1, r7, r7, lsl #1
80001b36:	2301      	movs	r3, #1
80001b38:	eb0a 0181 	add.w	r1, sl, r1, lsl #2
80001b3c:	f003 ff05 	bl	8000594a <_btod_emul>
80001b40:	e88d 0007 	stmia.w	sp, {r0, r1, r2}
80001b44:	1064      	asrs	r4, r4, #1
80001b46:	1c7f      	adds	r7, r7, #1
80001b48:	2c00      	cmp	r4, #0
80001b4a:	d1ee      	bne.n	80001b2a <_btod_etento+0x56>
80001b4c:	4f19      	ldr	r7, [pc, #100]	@ (80001bb4 <_btod_etento+0xe0>)
80001b4e:	447f      	add	r7, pc
80001b50:	3fae      	subs	r7, #174	@ 0xae
80001b52:	e019      	b.n	80001b88 <_btod_etento+0xb4>
80001b54:	07e8      	lsls	r0, r5, #31
80001b56:	d015      	beq.n	80001b84 <_btod_etento+0xb0>
80001b58:	eb07 1004 	add.w	r0, r7, r4, lsl #4
80001b5c:	f10d 0a18 	add.w	sl, sp, #24
80001b60:	e890 000e 	ldmia.w	r0, {r1, r2, r3}
80001b64:	e88a 000e 	stmia.w	sl, {r1, r2, r3}
80001b68:	68c0      	ldr	r0, [r0, #12]
80001b6a:	42f0      	cmn	r0, r6
80001b6c:	d101      	bne.n	80001b72 <_btod_etento+0x9e>
80001b6e:	1998      	adds	r0, r3, r6
80001b70:	9008      	str	r0, [sp, #32]
80001b72:	4632      	mov	r2, r6
80001b74:	2301      	movs	r3, #1
80001b76:	a906      	add	r1, sp, #24
80001b78:	a803      	add	r0, sp, #12
80001b7a:	f003 fee6 	bl	8000594a <_btod_emul>
80001b7e:	ab03      	add	r3, sp, #12
80001b80:	e883 0007 	stmia.w	r3, {r0, r1, r2}
80001b84:	106d      	asrs	r5, r5, #1
80001b86:	1c64      	adds	r4, r4, #1
80001b88:	2d00      	cmp	r5, #0
80001b8a:	d1e3      	bne.n	80001b54 <_btod_etento+0x80>
80001b8c:	f04f 0301 	mov.w	r3, #1
80001b90:	4632      	mov	r2, r6
80001b92:	4669      	mov	r1, sp
80001b94:	f1b8 0f00 	cmp.w	r8, #0
80001b98:	a803      	add	r0, sp, #12
80001b9a:	d002      	beq.n	80001ba2 <_btod_etento+0xce>
80001b9c:	f003 fec0 	bl	80005920 <_btod_ediv>
80001ba0:	e001      	b.n	80001ba6 <_btod_etento+0xd2>
80001ba2:	f003 fed2 	bl	8000594a <_btod_emul>
80001ba6:	e9c9 0100 	strd	r0, r1, [r9]
80001baa:	f8c9 2008 	str.w	r2, [r9, #8]
80001bae:	b00a      	add	sp, #40	@ 0x28
80001bb0:	e8bd 87f0 	ldmia.w	sp!, {r4, r5, r6, r7, r8, r9, sl, pc}
80001bb4:	00004240 	.word	0x00004240

80001bb8 <ferror>:
ferror():
80001bb8:	7b00      	ldrb	r0, [r0, #12]
80001bba:	f000 0080 	and.w	r0, r0, #128	@ 0x80
80001bbe:	4770      	bx	lr

80001bc0 <_ftell_internal>:
ftell():
80001bc0:	b510      	push	{r4, lr}
_ftell_internal():
80001bc2:	4601      	mov	r1, r0
80001bc4:	68c2      	ldr	r2, [r0, #12]
80001bc6:	0790      	lsls	r0, r2, #30
80001bc8:	d003      	beq.n	80001bd2 <_ftell_internal+0x12>
80001bca:	0690      	lsls	r0, r2, #26
80001bcc:	d507      	bpl.n	80001bde <_ftell_internal+0x1e>
80001bce:	6a88      	ldr	r0, [r1, #40]	@ 0x28
80001bd0:	e00a      	b.n	80001be8 <_ftell_internal+0x28>
80001bd2:	f000 f8eb 	bl	80001dac <__aeabi_errno_addr>
80001bd6:	2101      	movs	r1, #1
80001bd8:	6001      	str	r1, [r0, #0]
80001bda:	1e88      	subs	r0, r1, #2
80001bdc:	bd10      	pop	{r4, pc}
80001bde:	698b      	ldr	r3, [r1, #24]
80001be0:	6848      	ldr	r0, [r1, #4]
80001be2:	4418      	add	r0, r3
80001be4:	690b      	ldr	r3, [r1, #16]
80001be6:	1ac0      	subs	r0, r0, r3
80001be8:	f891 3048 	ldrb.w	r3, [r1, #72]	@ 0x48
80001bec:	b11b      	cbz	r3, 80001bf6 <_ftell_internal+0x36>
80001bee:	f891 1049 	ldrb.w	r1, [r1, #73]	@ 0x49
80001bf2:	1a40      	subs	r0, r0, r1
80001bf4:	bd10      	pop	{r4, pc}
80001bf6:	0311      	lsls	r1, r2, #12
80001bf8:	d5fc      	bpl.n	80001bf4 <_ftell_internal+0x34>
80001bfa:	2800      	cmp	r0, #0
80001bfc:	ddfa      	ble.n	80001bf4 <_ftell_internal+0x34>
80001bfe:	1e40      	subs	r0, r0, #1
80001c00:	bd10      	pop	{r4, pc}

80001c02 <setvbuf>:
setvbuf():
80001c02:	b570      	push	{r4, r5, r6, lr}
80001c04:	68c4      	ldr	r4, [r0, #12]
80001c06:	07a5      	lsls	r5, r4, #30
80001c08:	d013      	beq.n	80001c32 <setvbuf+0x30>
80001c0a:	0265      	lsls	r5, r4, #9
80001c0c:	d411      	bmi.n	80001c32 <setvbuf+0x30>
80001c0e:	f5b2 7f80 	cmp.w	r2, #256	@ 0x100
80001c12:	d009      	beq.n	80001c28 <setvbuf+0x26>
80001c14:	f5b2 7f00 	cmp.w	r2, #512	@ 0x200
80001c18:	d006      	beq.n	80001c28 <setvbuf+0x26>
80001c1a:	f5b2 6f80 	cmp.w	r2, #1024	@ 0x400
80001c1e:	d108      	bne.n	80001c32 <setvbuf+0x30>
80001c20:	2301      	movs	r3, #1
80001c22:	f100 0124 	add.w	r1, r0, #36	@ 0x24
80001c26:	e006      	b.n	80001c36 <setvbuf+0x34>
80001c28:	1e5d      	subs	r5, r3, #1
80001c2a:	f06f 467f 	mvn.w	r6, #4278190080	@ 0xff000000
80001c2e:	42b5      	cmp	r5, r6
80001c30:	d301      	bcc.n	80001c36 <setvbuf+0x34>
80001c32:	2001      	movs	r0, #1
80001c34:	bd70      	pop	{r4, r5, r6, pc}
80001c36:	6101      	str	r1, [r0, #16]
80001c38:	61c3      	str	r3, [r0, #28]
80001c3a:	6041      	str	r1, [r0, #4]
80001c3c:	f424 6170 	bic.w	r1, r4, #3840	@ 0xf00
80001c40:	4311      	orrs	r1, r2
80001c42:	60c1      	str	r1, [r0, #12]
80001c44:	2000      	movs	r0, #0
80001c46:	bd70      	pop	{r4, r5, r6, pc}

80001c48 <freopen>:
_freopen_locked():
80001c48:	e92d 41f0 	stmdb	sp!, {r4, r5, r6, r7, r8, lr}
freopen():
80001c4c:	460c      	mov	r4, r1
80001c4e:	4616      	mov	r6, r2
80001c50:	0007      	movs	r7, r0
80001c52:	d047      	beq.n	80001ce4 <freopen+0x9c>
80001c54:	4610      	mov	r0, r2
80001c56:	f000 f86f 	bl	80001d38 <_fclose_internal>
80001c5a:	7820      	ldrb	r0, [r4, #0]
80001c5c:	1c61      	adds	r1, r4, #1
80001c5e:	2861      	cmp	r0, #97	@ 0x61
80001c60:	d00a      	beq.n	80001c78 <freopen+0x30>
80001c62:	2872      	cmp	r0, #114	@ 0x72
80001c64:	d002      	beq.n	80001c6c <freopen+0x24>
80001c66:	2877      	cmp	r0, #119	@ 0x77
80001c68:	d13c      	bne.n	80001ce4 <freopen+0x9c>
80001c6a:	e002      	b.n	80001c72 <freopen+0x2a>
80001c6c:	2501      	movs	r5, #1
80001c6e:	2400      	movs	r4, #0
80001c70:	e005      	b.n	80001c7e <freopen+0x36>
80001c72:	2502      	movs	r5, #2
80001c74:	2404      	movs	r4, #4
80001c76:	e002      	b.n	80001c7e <freopen+0x36>
80001c78:	2408      	movs	r4, #8
80001c7a:	f248 0502 	movw	r5, #32770	@ 0x8002
80001c7e:	f811 0b01 	ldrb.w	r0, [r1], #1
80001c82:	282b      	cmp	r0, #43	@ 0x2b
80001c84:	d006      	beq.n	80001c94 <freopen+0x4c>
80001c86:	2862      	cmp	r0, #98	@ 0x62
80001c88:	d009      	beq.n	80001c9e <freopen+0x56>
80001c8a:	f811 0c01 	ldrb.w	r0, [r1, #-1]
80001c8e:	2874      	cmp	r0, #116	@ 0x74
80001c90:	d00a      	beq.n	80001ca8 <freopen+0x60>
80001c92:	e00b      	b.n	80001cac <freopen+0x64>
80001c94:	f045 0503 	orr.w	r5, r5, #3
80001c98:	f044 0402 	orr.w	r4, r4, #2
80001c9c:	e7ef      	b.n	80001c7e <freopen+0x36>
80001c9e:	f045 0504 	orr.w	r5, r5, #4
80001ca2:	f044 0401 	orr.w	r4, r4, #1
80001ca6:	e7ea      	b.n	80001c7e <freopen+0x36>
80001ca8:	f044 0410 	orr.w	r4, r4, #16
80001cac:	4638      	mov	r0, r7
80001cae:	4621      	mov	r1, r4
80001cb0:	f002 f8f0 	bl	80003e94 <_sys_open>
80001cb4:	1c41      	adds	r1, r0, #1
80001cb6:	d015      	beq.n	80001ce4 <freopen+0x9c>
80001cb8:	2100      	movs	r1, #0
80001cba:	6131      	str	r1, [r6, #16]
80001cbc:	6071      	str	r1, [r6, #4]
80001cbe:	f44f 7100 	mov.w	r1, #512	@ 0x200
80001cc2:	60f5      	str	r5, [r6, #12]
80001cc4:	61f1      	str	r1, [r6, #28]
80001cc6:	6170      	str	r0, [r6, #20]
80001cc8:	0720      	lsls	r0, r4, #28
80001cca:	d504      	bpl.n	80001cd6 <freopen+0x8e>
80001ccc:	4630      	mov	r0, r6
80001cce:	2202      	movs	r2, #2
80001cd0:	2100      	movs	r1, #0
80001cd2:	f7ff fc27 	bl	80001524 <_fseek>
80001cd6:	6d30      	ldr	r0, [r6, #80]	@ 0x50
80001cd8:	f040 0001 	orr.w	r0, r0, #1
80001cdc:	6530      	str	r0, [r6, #80]	@ 0x50
80001cde:	4630      	mov	r0, r6
80001ce0:	e8bd 81f0 	ldmia.w	sp!, {r4, r5, r6, r7, r8, pc}
80001ce4:	2000      	movs	r0, #0
80001ce6:	e7fb      	b.n	80001ce0 <freopen+0x98>

80001ce8 <fopen>:
fopen():
80001ce8:	e92d 41f0 	stmdb	sp!, {r4, r5, r6, r7, r8, lr}
80001cec:	460d      	mov	r5, r1
80001cee:	4606      	mov	r6, r0
80001cf0:	4c10      	ldr	r4, [pc, #64]	@ (80001d34 <fopen+0x4c>)
80001cf2:	6d20      	ldr	r0, [r4, #80]	@ 0x50
80001cf4:	07c1      	lsls	r1, r0, #31
80001cf6:	d004      	beq.n	80001d02 <fopen+0x1a>
80001cf8:	0841      	lsrs	r1, r0, #1
80001cfa:	d004      	beq.n	80001d06 <fopen+0x1e>
80001cfc:	f020 0401 	bic.w	r4, r0, #1
80001d00:	e7f7      	b.n	80001cf2 <fopen+0xa>
80001d02:	4622      	mov	r2, r4
80001d04:	e00e      	b.n	80001d24 <fopen+0x3c>
80001d06:	2054      	movs	r0, #84	@ 0x54
80001d08:	f7ff fdf0 	bl	800018ec <malloc>
80001d0c:	0007      	movs	r7, r0
80001d0e:	d00e      	beq.n	80001d2e <fopen+0x46>
80001d10:	6d20      	ldr	r0, [r4, #80]	@ 0x50
80001d12:	f047 0101 	orr.w	r1, r7, #1
80001d16:	4308      	orrs	r0, r1
80001d18:	2154      	movs	r1, #84	@ 0x54
80001d1a:	6520      	str	r0, [r4, #80]	@ 0x50
80001d1c:	4638      	mov	r0, r7
80001d1e:	f7ff f802 	bl	80000d26 <__aeabi_memclr4>
80001d22:	463a      	mov	r2, r7
80001d24:	4629      	mov	r1, r5
80001d26:	4630      	mov	r0, r6
80001d28:	e8bd 41f0 	ldmia.w	sp!, {r4, r5, r6, r7, r8, lr}
80001d2c:	e78c      	b.n	80001c48 <freopen>
80001d2e:	2000      	movs	r0, #0
80001d30:	e7d6      	b.n	80001ce0 <freopen+0x98>
80001d32:	0000      	.short	0x0000
80001d34:	20000698 	.word	0x20000698

80001d38 <_fclose_internal>:
fclose():
80001d38:	e92d 47f0 	stmdb	sp!, {r4, r5, r6, r7, r8, r9, sl, lr}
_fclose_internal():
80001d3c:	4604      	mov	r4, r0
80001d3e:	f04f 38ff 	mov.w	r8, #4294967295	@ 0xffffffff
80001d42:	2600      	movs	r6, #0
80001d44:	68c5      	ldr	r5, [r0, #12]
80001d46:	e9d4 9704 	ldrd	r9, r7, [r4, #16]
80001d4a:	07a8      	lsls	r0, r5, #30
80001d4c:	d018      	beq.n	80001d80 <_fclose_internal+0x48>
80001d4e:	4620      	mov	r0, r4
80001d50:	f7ff fca4 	bl	8000169c <_fflush>
80001d54:	4638      	mov	r0, r7
80001d56:	f002 f893 	bl	80003e80 <_sys_close>
80001d5a:	2800      	cmp	r0, #0
80001d5c:	da00      	bge.n	80001d60 <_fclose_internal+0x28>
80001d5e:	4646      	mov	r6, r8
80001d60:	0528      	lsls	r0, r5, #20
80001d62:	d502      	bpl.n	80001d6a <_fclose_internal+0x32>
80001d64:	4648      	mov	r0, r9
80001d66:	f7ff fdf0 	bl	8000194a <free>
80001d6a:	214c      	movs	r1, #76	@ 0x4c
80001d6c:	4620      	mov	r0, r4
80001d6e:	f7fe ffda 	bl	80000d26 <__aeabi_memclr4>
80001d72:	6d20      	ldr	r0, [r4, #80]	@ 0x50
80001d74:	f020 0001 	bic.w	r0, r0, #1
80001d78:	6520      	str	r0, [r4, #80]	@ 0x50
80001d7a:	4630      	mov	r0, r6
80001d7c:	e8bd 87f0 	ldmia.w	sp!, {r4, r5, r6, r7, r8, r9, sl, pc}
80001d80:	4640      	mov	r0, r8
80001d82:	e7fb      	b.n	80001d7c <_fclose_internal+0x44>

80001d84 <__rt_SIGABRT>:
__rt_SIGABRT():
80001d84:	b510      	push	{r4, lr}
80001d86:	f000 f871 	bl	80001e6c <__rt_SIGABRT_inner>
80001d8a:	e8bd 4010 	ldmia.w	sp!, {r4, lr}
80001d8e:	f000 b867 	b.w	80001e60 <__sig_exit>

80001d92 <__rt_SIGRTRED>:
__rt_SIGRTRED():
80001d92:	b510      	push	{r4, lr}
80001d94:	f000 f882 	bl	80001e9c <__rt_SIGRTRED_inner>
80001d98:	e8bd 4010 	ldmia.w	sp!, {r4, lr}
80001d9c:	f000 b860 	b.w	80001e60 <__sig_exit>

80001da0 <__use_no_semihosting_swi>:
__I$use$semihosting():
80001da0:	4770      	bx	lr

80001da2 <__semihosting_library_function>:
	...

80001da4 <__rt_heap_descriptor>:
__rt_heap_descriptor():
80001da4:	4800      	ldr	r0, [pc, #0]	@ (80001da8 <__rt_heap_descriptor+0x4>)
80001da6:	4770      	bx	lr
80001da8:	2000079c 	.word	0x2000079c

80001dac <__aeabi_errno_addr>:
__errno$intlibspace():
80001dac:	4800      	ldr	r0, [pc, #0]	@ (80001db0 <__aeabi_errno_addr+0x4>)
__aeabi_errno_addr():
80001dae:	4770      	bx	lr
80001db0:	20000794 	.word	0x20000794

80001db4 <__use_no_heap>:
__use_no_heap():
80001db4:	4770      	bx	lr

80001db6 <__heap$guard>:
__heap$guard():
80001db6:	4770      	bx	lr

80001db8 <_terminate_user_alloc>:
_terminate_user_alloc():
80001db8:	4770      	bx	lr

80001dba <_init_user_alloc>:
_init_user_alloc():
80001dba:	4770      	bx	lr

80001dbc <__Heap_Full>:
__Heap_Full():
80001dbc:	b538      	push	{r3, r4, r5, lr}
80001dbe:	4604      	mov	r4, r0
80001dc0:	460a      	mov	r2, r1
80001dc2:	2000      	movs	r0, #0
80001dc4:	4669      	mov	r1, sp
80001dc6:	f3af 8000 	nop.w
80001dca:	2800      	cmp	r0, #0
80001dcc:	bf08      	it	eq
80001dce:	bd38      	popeq	{r3, r4, r5, pc}
80001dd0:	4602      	mov	r2, r0
80001dd2:	9900      	ldr	r1, [sp, #0]
80001dd4:	4620      	mov	r0, r4
80001dd6:	f000 f87b 	bl	80001ed0 <__Heap_ProvideMemory>
80001dda:	2001      	movs	r0, #1
80001ddc:	bd38      	pop	{r3, r4, r5, pc}

80001dde <__Heap_Broken>:
__Heap_Broken():
80001dde:	2001      	movs	r0, #1
80001de0:	f000 b8a9 	b.w	80001f36 <__rt_SIGRTMEM>

80001de4 <_init_alloc>:
_init_alloc():
80001de4:	b5f8      	push	{r3, r4, r5, r6, r7, lr}
80001de6:	f3af 8000 	nop.w
80001dea:	4605      	mov	r5, r0
80001dec:	2000      	movs	r0, #0
80001dee:	460c      	mov	r4, r1
80001df0:	200c      	movs	r0, #12
80001df2:	bf00      	nop
80001df4:	4606      	mov	r6, r0
80001df6:	19a8      	adds	r0, r5, r6
80001df8:	42a0      	cmp	r0, r4
80001dfa:	d90d      	bls.n	80001e18 <_init_alloc+0x34>
80001dfc:	4632      	mov	r2, r6
80001dfe:	4669      	mov	r1, sp
80001e00:	2000      	movs	r0, #0
80001e02:	f3af 8000 	nop.w
80001e06:	0007      	movs	r7, r0
80001e08:	bf08      	it	eq
80001e0a:	f000 f894 	bleq	80001f36 <__rt_SIGRTMEM>
80001e0e:	9800      	ldr	r0, [sp, #0]
80001e10:	42a0      	cmp	r0, r4
80001e12:	bf18      	it	ne
80001e14:	4605      	movne	r5, r0
80001e16:	19c4      	adds	r4, r0, r7
80001e18:	f7ff ffc4 	bl	80001da4 <__rt_heap_descriptor>
80001e1c:	6005      	str	r5, [r0, #0]
80001e1e:	4607      	mov	r7, r0
80001e20:	1df0      	adds	r0, r6, #7
80001e22:	f020 0007 	bic.w	r0, r0, #7
80001e26:	1946      	adds	r6, r0, r5
80001e28:	4628      	mov	r0, r5
80001e2a:	f000 f80a 	bl	80001e42 <__Heap_Initialize>
80001e2e:	42b4      	cmp	r4, r6
80001e30:	bf08      	it	eq
80001e32:	bdf8      	popeq	{r3, r4, r5, r6, r7, pc}
80001e34:	1ba2      	subs	r2, r4, r6
80001e36:	4631      	mov	r1, r6
80001e38:	6838      	ldr	r0, [r7, #0]
80001e3a:	e8bd 40f8 	ldmia.w	sp!, {r3, r4, r5, r6, r7, lr}
80001e3e:	f000 b847 	b.w	80001ed0 <__Heap_ProvideMemory>

80001e42 <__Heap_Initialize>:
__Heap_Initialize():
80001e42:	2100      	movs	r1, #0
80001e44:	6001      	str	r1, [r0, #0]
80001e46:	6041      	str	r1, [r0, #4]
80001e48:	4770      	bx	lr

80001e4a <__Heap_DescSize>:
__Heap_DescSize():
80001e4a:	200c      	movs	r0, #12
80001e4c:	4770      	bx	lr

80001e4e <exit>:
exit():
80001e4e:	b510      	push	{r4, lr}
80001e50:	4604      	mov	r4, r0
80001e52:	f3af 8000 	nop.w
80001e56:	4620      	mov	r0, r4
80001e58:	e8bd 4010 	ldmia.w	sp!, {r4, lr}
80001e5c:	f7fe bd3a 	b.w	800008d4 <__rt_exit>

80001e60 <__sig_exit>:
__sig_exit():
80001e60:	2800      	cmp	r0, #0
80001e62:	d001      	beq.n	80001e68 <__sig_exit+0x8>
80001e64:	f7ff bd38 	b.w	800018d8 <_sys_exit>
80001e68:	4770      	bx	lr
	...

80001e6c <__rt_SIGABRT_inner>:
__rt_SIGABRT_inner():
80001e6c:	b510      	push	{r4, lr}
80001e6e:	2100      	movs	r1, #0
80001e70:	a002      	add	r0, pc, #8	@ (adr r0, 80001e7c <__rt_SIGABRT_inner+0x10>)
80001e72:	f000 f847 	bl	80001f04 <__default_signal_display>
80001e76:	2001      	movs	r0, #1
80001e78:	bd10      	pop	{r4, pc}
80001e7a:	0000      	.short	0x0000
80001e7c:	41474953 	.word	0x41474953
80001e80:	3a545242 	.word	0x3a545242
80001e84:	6e624120 	.word	0x6e624120
80001e88:	616d726f 	.word	0x616d726f
80001e8c:	6574206c 	.word	0x6574206c
80001e90:	6e696d72 	.word	0x6e696d72
80001e94:	6f697461 	.word	0x6f697461
80001e98:	0000006e 	.word	0x0000006e

80001e9c <__rt_SIGRTRED_inner>:
__rt_SIGRTRED_inner():
80001e9c:	b510      	push	{r4, lr}
80001e9e:	4601      	mov	r1, r0
80001ea0:	a002      	add	r0, pc, #8	@ (adr r0, 80001eac <__rt_SIGRTRED_inner+0x10>)
80001ea2:	f000 f82f 	bl	80001f04 <__default_signal_display>
80001ea6:	2001      	movs	r0, #1
80001ea8:	bd10      	pop	{r4, pc}
80001eaa:	0000      	.short	0x0000
80001eac:	52474953 	.word	0x52474953
80001eb0:	44455254 	.word	0x44455254
80001eb4:	6552203a 	.word	0x6552203a
80001eb8:	65726964 	.word	0x65726964
80001ebc:	203a7463 	.word	0x203a7463
80001ec0:	276e6163 	.word	0x276e6163
80001ec4:	706f2074 	.word	0x706f2074
80001ec8:	203a6e65 	.word	0x203a6e65
80001ecc:	00000000 	.word	0x00000000

80001ed0 <__Heap_ProvideMemory>:
_maybe_terminate_alloc():
80001ed0:	4603      	mov	r3, r0
__Heap_ProvideMemory():
80001ed2:	6840      	ldr	r0, [r0, #4]
80001ed4:	468c      	mov	ip, r1
80001ed6:	2800      	cmp	r0, #0
80001ed8:	bf18      	it	ne
80001eda:	4288      	cmpne	r0, r1
80001edc:	bf3c      	itt	cc
80001ede:	4603      	movcc	r3, r0
80001ee0:	6840      	ldrcc	r0, [r0, #4]
80001ee2:	d3f8      	bcc.n	80001ed6 <__Heap_ProvideMemory+0x6>
80001ee4:	6818      	ldr	r0, [r3, #0]
80001ee6:	4418      	add	r0, r3
80001ee8:	4288      	cmp	r0, r1
80001eea:	d007      	beq.n	80001efc <__Heap_ProvideMemory+0x2c>
80001eec:	f10c 0003 	add.w	r0, ip, #3
80001ef0:	f020 0007 	bic.w	r0, r0, #7
80001ef4:	1d00      	adds	r0, r0, #4
80001ef6:	1a41      	subs	r1, r0, r1
80001ef8:	1a52      	subs	r2, r2, r1
80001efa:	4601      	mov	r1, r0
80001efc:	1d08      	adds	r0, r1, #4
80001efe:	600a      	str	r2, [r1, #0]
80001f00:	f7ff bd23 	b.w	8000194a <free>

80001f04 <__default_signal_display>:
__default_signal_display():
80001f04:	b570      	push	{r4, r5, r6, lr}
80001f06:	4605      	mov	r5, r0
80001f08:	460c      	mov	r4, r1
80001f0a:	200a      	movs	r0, #10
80001f0c:	e000      	b.n	80001f10 <__default_signal_display+0xc>
80001f0e:	1c6d      	adds	r5, r5, #1
80001f10:	f001 ffea 	bl	80003ee8 <_ttywrch>
80001f14:	b135      	cbz	r5, 80001f24 <__default_signal_display+0x20>
80001f16:	7828      	ldrb	r0, [r5, #0]
80001f18:	2800      	cmp	r0, #0
80001f1a:	d1f8      	bne.n	80001f0e <__default_signal_display+0xa>
80001f1c:	e002      	b.n	80001f24 <__default_signal_display+0x20>
80001f1e:	1c64      	adds	r4, r4, #1
80001f20:	f001 ffe2 	bl	80003ee8 <_ttywrch>
80001f24:	b114      	cbz	r4, 80001f2c <__default_signal_display+0x28>
80001f26:	7820      	ldrb	r0, [r4, #0]
80001f28:	2800      	cmp	r0, #0
80001f2a:	d1f8      	bne.n	80001f1e <__default_signal_display+0x1a>
80001f2c:	e8bd 4070 	ldmia.w	sp!, {r4, r5, r6, lr}
80001f30:	200a      	movs	r0, #10
80001f32:	f001 bfd9 	b.w	80003ee8 <_ttywrch>

80001f36 <__rt_SIGRTMEM>:
__rt_SIGRTMEM():
80001f36:	b510      	push	{r4, lr}
80001f38:	f000 f804 	bl	80001f44 <__rt_SIGRTMEM_inner>
80001f3c:	e8bd 4010 	ldmia.w	sp!, {r4, lr}
80001f40:	f7ff bf8e 	b.w	80001e60 <__sig_exit>

80001f44 <__rt_SIGRTMEM_inner>:
__rt_SIGRTMEM_inner():
80001f44:	b510      	push	{r4, lr}
80001f46:	2801      	cmp	r0, #1
80001f48:	d005      	beq.n	80001f56 <__rt_SIGRTMEM_inner+0x12>
80001f4a:	2100      	movs	r1, #0
80001f4c:	a003      	add	r0, pc, #12	@ (adr r0, 80001f5c <__rt_SIGRTMEM_inner+0x18>)
80001f4e:	f7ff ffd9 	bl	80001f04 <__default_signal_display>
80001f52:	2001      	movs	r0, #1
80001f54:	bd10      	pop	{r4, pc}
80001f56:	a109      	add	r1, pc, #36	@ (adr r1, 80001f7c <__rt_SIGRTMEM_inner+0x38>)
80001f58:	e7f8      	b.n	80001f4c <__rt_SIGRTMEM_inner+0x8>
80001f5a:	0000      	.short	0x0000
80001f5c:	52474953 	.word	0x52474953
80001f60:	4d454d54 	.word	0x4d454d54
80001f64:	754f203a 	.word	0x754f203a
80001f68:	666f2074 	.word	0x666f2074
80001f6c:	61656820 	.word	0x61656820
80001f70:	656d2070 	.word	0x656d2070
80001f74:	79726f6d 	.word	0x79726f6d
80001f78:	00000000 	.word	0x00000000
80001f7c:	6548203a 	.word	0x6548203a
80001f80:	6d207061 	.word	0x6d207061
80001f84:	726f6d65 	.word	0x726f6d65
80001f88:	6f632079 	.word	0x6f632079
80001f8c:	70757272 	.word	0x70757272
80001f90:	00646574 	.word	0x00646574

80001f94 <BusFault_Handler>:
BusFault_Handler():
/Users/till/Documents/Studium/Module/2025_SoSe/Tests/alif_e7_tests/libs/common_app_utils/fault_handler/fault_handler.c:331
}

__attribute__((naked))
void BusFault_Handler(void)
{
    __asm("MOVS R0, #2\n\t"
80001f94:	2002      	movs	r0, #2
80001f96:	f003 b915 	b.w	800051c4 <CommonAsmFaultHandler>
	...

80001f9c <Default_Handler>:
Default_Handler():
/Users/till/.cache/arm/packs/AlifSemiconductor/Ensemble/1.3.3/Device/core/M55_HE/source/startup_M55_HE.c:1118
/*----------------------------------------------------------------------------
  Default Handler for Exceptions / Interrupts
 *----------------------------------------------------------------------------*/
void Default_Handler(void)
{
  while(1);
80001f9c:	e7fe      	b.n	80001f9c <Default_Handler>
	...

80001fa0 <GPIO0_IRQ0Handler>:
GPIO_IRQ_Handler():
/Users/till/.cache/arm/packs/AlifSemiconductor/Ensemble/1.3.3/Alif_CMSIS/Source/Driver_GPIO.c:505
  \return  execution_status
*/
static void GPIO_IRQ_Handler (GPIO_RESOURCES *GPIO, uint8_t pin_no)
{
    /* clear pin interrupt */
    gpio_interrupt_eoi(GPIO->reg_base, pin_no);
80001fa0:	f240 000c 	movw	r0, #12
80001fa4:	f2c2 0000 	movt	r0, #8192	@ 0x2000
80001fa8:	6802      	ldr	r2, [r0, #0]
/Users/till/.cache/arm/packs/AlifSemiconductor/Ensemble/1.3.3/Alif_CMSIS/Source/Driver_GPIO.c:507

    if (GPIO->cb_event[pin_no] != NULL)
80001faa:	69c1      	ldr	r1, [r0, #28]
gpio_interrupt_eoi():
/Users/till/.cache/arm/packs/AlifSemiconductor/Ensemble/1.3.3/drivers/include/gpio.h:349
  \param       pin_no   pin number
  \return      none
*/
static inline void gpio_interrupt_eoi (GPIO_Type *gpio, uint8_t pin_no)
{
    gpio->GPIO_PORTA_EOI |= (1 << pin_no);
80001fac:	6cd0      	ldr	r0, [r2, #76]	@ 0x4c
GPIO_IRQ_Handler():
/Users/till/.cache/arm/packs/AlifSemiconductor/Ensemble/1.3.3/Alif_CMSIS/Source/Driver_GPIO.c:507
80001fae:	2900      	cmp	r1, #0
gpio_interrupt_eoi():
/Users/till/.cache/arm/packs/AlifSemiconductor/Ensemble/1.3.3/drivers/include/gpio.h:349
80001fb0:	f040 0001 	orr.w	r0, r0, #1
80001fb4:	64d0      	str	r0, [r2, #76]	@ 0x4c
/Users/till/.cache/arm/packs/AlifSemiconductor/Ensemble/1.3.3/drivers/include/gpio.h:350
    (void) gpio->GPIO_PORTA_EOI;
80001fb6:	6cd0      	ldr	r0, [r2, #76]	@ 0x4c
GPIO0_IRQ0Handler():
/Users/till/.cache/arm/packs/AlifSemiconductor/Ensemble/1.3.3/Alif_CMSIS/Source/Driver_GPIO.c:532
        RTE_GPIO0_PIN6_IRQ_PRIORITY,
        RTE_GPIO0_PIN7_IRQ_PRIORITY
    }
};

void GPIO0_IRQ0Handler  (void) {   GPIO_IRQ_Handler (&GPIO0_RES, 0);    }
80001fb8:	bf08      	it	eq
80001fba:	4770      	bxeq	lr
GPIO_IRQ_Handler():
/Users/till/.cache/arm/packs/AlifSemiconductor/Ensemble/1.3.3/Alif_CMSIS/Source/Driver_GPIO.c:509
        GPIO->cb_event[pin_no](ARM_GPIO_IRQ_EVENT_EXTERNAL);
80001fbc:	2001      	movs	r0, #1
80001fbe:	4708      	bx	r1

80001fc0 <GPIO0_IRQ1Handler>:
/Users/till/.cache/arm/packs/AlifSemiconductor/Ensemble/1.3.3/Alif_CMSIS/Source/Driver_GPIO.c:505
    gpio_interrupt_eoi(GPIO->reg_base, pin_no);
80001fc0:	f240 000c 	movw	r0, #12
80001fc4:	f2c2 0000 	movt	r0, #8192	@ 0x2000
80001fc8:	6802      	ldr	r2, [r0, #0]
/Users/till/.cache/arm/packs/AlifSemiconductor/Ensemble/1.3.3/Alif_CMSIS/Source/Driver_GPIO.c:507
    if (GPIO->cb_event[pin_no] != NULL)
80001fca:	6a01      	ldr	r1, [r0, #32]
gpio_interrupt_eoi():
/Users/till/.cache/arm/packs/AlifSemiconductor/Ensemble/1.3.3/drivers/include/gpio.h:349
    gpio->GPIO_PORTA_EOI |= (1 << pin_no);
80001fcc:	6cd0      	ldr	r0, [r2, #76]	@ 0x4c
GPIO_IRQ_Handler():
/Users/till/.cache/arm/packs/AlifSemiconductor/Ensemble/1.3.3/Alif_CMSIS/Source/Driver_GPIO.c:507
80001fce:	2900      	cmp	r1, #0
gpio_interrupt_eoi():
/Users/till/.cache/arm/packs/AlifSemiconductor/Ensemble/1.3.3/drivers/include/gpio.h:349
80001fd0:	f040 0002 	orr.w	r0, r0, #2
80001fd4:	64d0      	str	r0, [r2, #76]	@ 0x4c
/Users/till/.cache/arm/packs/AlifSemiconductor/Ensemble/1.3.3/drivers/include/gpio.h:350
    (void) gpio->GPIO_PORTA_EOI;
80001fd6:	6cd0      	ldr	r0, [r2, #76]	@ 0x4c
GPIO0_IRQ1Handler():
/Users/till/.cache/arm/packs/AlifSemiconductor/Ensemble/1.3.3/Alif_CMSIS/Source/Driver_GPIO.c:534

void GPIO0_IRQ1Handler  (void) {   GPIO_IRQ_Handler (&GPIO0_RES, 1);    }
80001fd8:	bf08      	it	eq
80001fda:	4770      	bxeq	lr
GPIO_IRQ_Handler():
/Users/till/.cache/arm/packs/AlifSemiconductor/Ensemble/1.3.3/Alif_CMSIS/Source/Driver_GPIO.c:509
        GPIO->cb_event[pin_no](ARM_GPIO_IRQ_EVENT_EXTERNAL);
80001fdc:	2001      	movs	r0, #1
80001fde:	4708      	bx	r1

80001fe0 <GPIO0_IRQ2Handler>:
/Users/till/.cache/arm/packs/AlifSemiconductor/Ensemble/1.3.3/Alif_CMSIS/Source/Driver_GPIO.c:505
    gpio_interrupt_eoi(GPIO->reg_base, pin_no);
80001fe0:	f240 000c 	movw	r0, #12
80001fe4:	f2c2 0000 	movt	r0, #8192	@ 0x2000
80001fe8:	6802      	ldr	r2, [r0, #0]
/Users/till/.cache/arm/packs/AlifSemiconductor/Ensemble/1.3.3/Alif_CMSIS/Source/Driver_GPIO.c:507
    if (GPIO->cb_event[pin_no] != NULL)
80001fea:	6a41      	ldr	r1, [r0, #36]	@ 0x24
gpio_interrupt_eoi():
/Users/till/.cache/arm/packs/AlifSemiconductor/Ensemble/1.3.3/drivers/include/gpio.h:349
    gpio->GPIO_PORTA_EOI |= (1 << pin_no);
80001fec:	6cd0      	ldr	r0, [r2, #76]	@ 0x4c
GPIO_IRQ_Handler():
/Users/till/.cache/arm/packs/AlifSemiconductor/Ensemble/1.3.3/Alif_CMSIS/Source/Driver_GPIO.c:507
80001fee:	2900      	cmp	r1, #0
gpio_interrupt_eoi():
/Users/till/.cache/arm/packs/AlifSemiconductor/Ensemble/1.3.3/drivers/include/gpio.h:349
80001ff0:	f040 0004 	orr.w	r0, r0, #4
80001ff4:	64d0      	str	r0, [r2, #76]	@ 0x4c
/Users/till/.cache/arm/packs/AlifSemiconductor/Ensemble/1.3.3/drivers/include/gpio.h:350
    (void) gpio->GPIO_PORTA_EOI;
80001ff6:	6cd0      	ldr	r0, [r2, #76]	@ 0x4c
GPIO0_IRQ2Handler():
/Users/till/.cache/arm/packs/AlifSemiconductor/Ensemble/1.3.3/Alif_CMSIS/Source/Driver_GPIO.c:536

void GPIO0_IRQ2Handler  (void) {   GPIO_IRQ_Handler (&GPIO0_RES, 2);    }
80001ff8:	bf08      	it	eq
80001ffa:	4770      	bxeq	lr
GPIO_IRQ_Handler():
/Users/till/.cache/arm/packs/AlifSemiconductor/Ensemble/1.3.3/Alif_CMSIS/Source/Driver_GPIO.c:509
        GPIO->cb_event[pin_no](ARM_GPIO_IRQ_EVENT_EXTERNAL);
80001ffc:	2001      	movs	r0, #1
80001ffe:	4708      	bx	r1

80002000 <GPIO0_IRQ3Handler>:
/Users/till/.cache/arm/packs/AlifSemiconductor/Ensemble/1.3.3/Alif_CMSIS/Source/Driver_GPIO.c:505
    gpio_interrupt_eoi(GPIO->reg_base, pin_no);
80002000:	f240 000c 	movw	r0, #12
80002004:	f2c2 0000 	movt	r0, #8192	@ 0x2000
80002008:	6802      	ldr	r2, [r0, #0]
/Users/till/.cache/arm/packs/AlifSemiconductor/Ensemble/1.3.3/Alif_CMSIS/Source/Driver_GPIO.c:507
    if (GPIO->cb_event[pin_no] != NULL)
8000200a:	6a81      	ldr	r1, [r0, #40]	@ 0x28
gpio_interrupt_eoi():
/Users/till/.cache/arm/packs/AlifSemiconductor/Ensemble/1.3.3/drivers/include/gpio.h:349
    gpio->GPIO_PORTA_EOI |= (1 << pin_no);
8000200c:	6cd0      	ldr	r0, [r2, #76]	@ 0x4c
GPIO_IRQ_Handler():
/Users/till/.cache/arm/packs/AlifSemiconductor/Ensemble/1.3.3/Alif_CMSIS/Source/Driver_GPIO.c:507
8000200e:	2900      	cmp	r1, #0
gpio_interrupt_eoi():
/Users/till/.cache/arm/packs/AlifSemiconductor/Ensemble/1.3.3/drivers/include/gpio.h:349
80002010:	f040 0008 	orr.w	r0, r0, #8
80002014:	64d0      	str	r0, [r2, #76]	@ 0x4c
/Users/till/.cache/arm/packs/AlifSemiconductor/Ensemble/1.3.3/drivers/include/gpio.h:350
    (void) gpio->GPIO_PORTA_EOI;
80002016:	6cd0      	ldr	r0, [r2, #76]	@ 0x4c
GPIO0_IRQ3Handler():
/Users/till/.cache/arm/packs/AlifSemiconductor/Ensemble/1.3.3/Alif_CMSIS/Source/Driver_GPIO.c:538

void GPIO0_IRQ3Handler  (void) {   GPIO_IRQ_Handler (&GPIO0_RES, 3);    }
80002018:	bf08      	it	eq
8000201a:	4770      	bxeq	lr
GPIO_IRQ_Handler():
/Users/till/.cache/arm/packs/AlifSemiconductor/Ensemble/1.3.3/Alif_CMSIS/Source/Driver_GPIO.c:509
        GPIO->cb_event[pin_no](ARM_GPIO_IRQ_EVENT_EXTERNAL);
8000201c:	2001      	movs	r0, #1
8000201e:	4708      	bx	r1

80002020 <GPIO0_IRQ4Handler>:
/Users/till/.cache/arm/packs/AlifSemiconductor/Ensemble/1.3.3/Alif_CMSIS/Source/Driver_GPIO.c:505
    gpio_interrupt_eoi(GPIO->reg_base, pin_no);
80002020:	f240 000c 	movw	r0, #12
80002024:	f2c2 0000 	movt	r0, #8192	@ 0x2000
80002028:	6802      	ldr	r2, [r0, #0]
/Users/till/.cache/arm/packs/AlifSemiconductor/Ensemble/1.3.3/Alif_CMSIS/Source/Driver_GPIO.c:507
    if (GPIO->cb_event[pin_no] != NULL)
8000202a:	6ac1      	ldr	r1, [r0, #44]	@ 0x2c
gpio_interrupt_eoi():
/Users/till/.cache/arm/packs/AlifSemiconductor/Ensemble/1.3.3/drivers/include/gpio.h:349
    gpio->GPIO_PORTA_EOI |= (1 << pin_no);
8000202c:	6cd0      	ldr	r0, [r2, #76]	@ 0x4c
GPIO_IRQ_Handler():
/Users/till/.cache/arm/packs/AlifSemiconductor/Ensemble/1.3.3/Alif_CMSIS/Source/Driver_GPIO.c:507
8000202e:	2900      	cmp	r1, #0
gpio_interrupt_eoi():
/Users/till/.cache/arm/packs/AlifSemiconductor/Ensemble/1.3.3/drivers/include/gpio.h:349
80002030:	f040 0010 	orr.w	r0, r0, #16
80002034:	64d0      	str	r0, [r2, #76]	@ 0x4c
/Users/till/.cache/arm/packs/AlifSemiconductor/Ensemble/1.3.3/drivers/include/gpio.h:350
    (void) gpio->GPIO_PORTA_EOI;
80002036:	6cd0      	ldr	r0, [r2, #76]	@ 0x4c
GPIO0_IRQ4Handler():
/Users/till/.cache/arm/packs/AlifSemiconductor/Ensemble/1.3.3/Alif_CMSIS/Source/Driver_GPIO.c:540

void GPIO0_IRQ4Handler  (void) {   GPIO_IRQ_Handler (&GPIO0_RES, 4);    }
80002038:	bf08      	it	eq
8000203a:	4770      	bxeq	lr
GPIO_IRQ_Handler():
/Users/till/.cache/arm/packs/AlifSemiconductor/Ensemble/1.3.3/Alif_CMSIS/Source/Driver_GPIO.c:509
        GPIO->cb_event[pin_no](ARM_GPIO_IRQ_EVENT_EXTERNAL);
8000203c:	2001      	movs	r0, #1
8000203e:	4708      	bx	r1

80002040 <GPIO0_IRQ5Handler>:
/Users/till/.cache/arm/packs/AlifSemiconductor/Ensemble/1.3.3/Alif_CMSIS/Source/Driver_GPIO.c:505
    gpio_interrupt_eoi(GPIO->reg_base, pin_no);
80002040:	f240 000c 	movw	r0, #12
80002044:	f2c2 0000 	movt	r0, #8192	@ 0x2000
80002048:	6802      	ldr	r2, [r0, #0]
/Users/till/.cache/arm/packs/AlifSemiconductor/Ensemble/1.3.3/Alif_CMSIS/Source/Driver_GPIO.c:507
    if (GPIO->cb_event[pin_no] != NULL)
8000204a:	6b01      	ldr	r1, [r0, #48]	@ 0x30
gpio_interrupt_eoi():
/Users/till/.cache/arm/packs/AlifSemiconductor/Ensemble/1.3.3/drivers/include/gpio.h:349
    gpio->GPIO_PORTA_EOI |= (1 << pin_no);
8000204c:	6cd0      	ldr	r0, [r2, #76]	@ 0x4c
GPIO_IRQ_Handler():
/Users/till/.cache/arm/packs/AlifSemiconductor/Ensemble/1.3.3/Alif_CMSIS/Source/Driver_GPIO.c:507
8000204e:	2900      	cmp	r1, #0
gpio_interrupt_eoi():
/Users/till/.cache/arm/packs/AlifSemiconductor/Ensemble/1.3.3/drivers/include/gpio.h:349
80002050:	f040 0020 	orr.w	r0, r0, #32
80002054:	64d0      	str	r0, [r2, #76]	@ 0x4c
/Users/till/.cache/arm/packs/AlifSemiconductor/Ensemble/1.3.3/drivers/include/gpio.h:350
    (void) gpio->GPIO_PORTA_EOI;
80002056:	6cd0      	ldr	r0, [r2, #76]	@ 0x4c
GPIO0_IRQ5Handler():
/Users/till/.cache/arm/packs/AlifSemiconductor/Ensemble/1.3.3/Alif_CMSIS/Source/Driver_GPIO.c:542

void GPIO0_IRQ5Handler  (void) {   GPIO_IRQ_Handler (&GPIO0_RES, 5);    }
80002058:	bf08      	it	eq
8000205a:	4770      	bxeq	lr
GPIO_IRQ_Handler():
/Users/till/.cache/arm/packs/AlifSemiconductor/Ensemble/1.3.3/Alif_CMSIS/Source/Driver_GPIO.c:509
        GPIO->cb_event[pin_no](ARM_GPIO_IRQ_EVENT_EXTERNAL);
8000205c:	2001      	movs	r0, #1
8000205e:	4708      	bx	r1

80002060 <GPIO0_IRQ6Handler>:
/Users/till/.cache/arm/packs/AlifSemiconductor/Ensemble/1.3.3/Alif_CMSIS/Source/Driver_GPIO.c:505
    gpio_interrupt_eoi(GPIO->reg_base, pin_no);
80002060:	f240 000c 	movw	r0, #12
80002064:	f2c2 0000 	movt	r0, #8192	@ 0x2000
80002068:	6802      	ldr	r2, [r0, #0]
/Users/till/.cache/arm/packs/AlifSemiconductor/Ensemble/1.3.3/Alif_CMSIS/Source/Driver_GPIO.c:507
    if (GPIO->cb_event[pin_no] != NULL)
8000206a:	6b41      	ldr	r1, [r0, #52]	@ 0x34
gpio_interrupt_eoi():
/Users/till/.cache/arm/packs/AlifSemiconductor/Ensemble/1.3.3/drivers/include/gpio.h:349
    gpio->GPIO_PORTA_EOI |= (1 << pin_no);
8000206c:	6cd0      	ldr	r0, [r2, #76]	@ 0x4c
GPIO_IRQ_Handler():
/Users/till/.cache/arm/packs/AlifSemiconductor/Ensemble/1.3.3/Alif_CMSIS/Source/Driver_GPIO.c:507
8000206e:	2900      	cmp	r1, #0
gpio_interrupt_eoi():
/Users/till/.cache/arm/packs/AlifSemiconductor/Ensemble/1.3.3/drivers/include/gpio.h:349
80002070:	f040 0040 	orr.w	r0, r0, #64	@ 0x40
80002074:	64d0      	str	r0, [r2, #76]	@ 0x4c
/Users/till/.cache/arm/packs/AlifSemiconductor/Ensemble/1.3.3/drivers/include/gpio.h:350
    (void) gpio->GPIO_PORTA_EOI;
80002076:	6cd0      	ldr	r0, [r2, #76]	@ 0x4c
GPIO0_IRQ6Handler():
/Users/till/.cache/arm/packs/AlifSemiconductor/Ensemble/1.3.3/Alif_CMSIS/Source/Driver_GPIO.c:544

void GPIO0_IRQ6Handler  (void) {   GPIO_IRQ_Handler (&GPIO0_RES, 6);    }
80002078:	bf08      	it	eq
8000207a:	4770      	bxeq	lr
GPIO_IRQ_Handler():
/Users/till/.cache/arm/packs/AlifSemiconductor/Ensemble/1.3.3/Alif_CMSIS/Source/Driver_GPIO.c:509
        GPIO->cb_event[pin_no](ARM_GPIO_IRQ_EVENT_EXTERNAL);
8000207c:	2001      	movs	r0, #1
8000207e:	4708      	bx	r1

80002080 <GPIO0_IRQ7Handler>:
/Users/till/.cache/arm/packs/AlifSemiconductor/Ensemble/1.3.3/Alif_CMSIS/Source/Driver_GPIO.c:505
    gpio_interrupt_eoi(GPIO->reg_base, pin_no);
80002080:	f240 000c 	movw	r0, #12
80002084:	f2c2 0000 	movt	r0, #8192	@ 0x2000
80002088:	6802      	ldr	r2, [r0, #0]
/Users/till/.cache/arm/packs/AlifSemiconductor/Ensemble/1.3.3/Alif_CMSIS/Source/Driver_GPIO.c:507
    if (GPIO->cb_event[pin_no] != NULL)
8000208a:	6b81      	ldr	r1, [r0, #56]	@ 0x38
gpio_interrupt_eoi():
/Users/till/.cache/arm/packs/AlifSemiconductor/Ensemble/1.3.3/drivers/include/gpio.h:349
    gpio->GPIO_PORTA_EOI |= (1 << pin_no);
8000208c:	6cd0      	ldr	r0, [r2, #76]	@ 0x4c
GPIO_IRQ_Handler():
/Users/till/.cache/arm/packs/AlifSemiconductor/Ensemble/1.3.3/Alif_CMSIS/Source/Driver_GPIO.c:507
8000208e:	2900      	cmp	r1, #0
gpio_interrupt_eoi():
/Users/till/.cache/arm/packs/AlifSemiconductor/Ensemble/1.3.3/drivers/include/gpio.h:349
80002090:	f040 0080 	orr.w	r0, r0, #128	@ 0x80
80002094:	64d0      	str	r0, [r2, #76]	@ 0x4c
/Users/till/.cache/arm/packs/AlifSemiconductor/Ensemble/1.3.3/drivers/include/gpio.h:350
    (void) gpio->GPIO_PORTA_EOI;
80002096:	6cd0      	ldr	r0, [r2, #76]	@ 0x4c
GPIO0_IRQ7Handler():
/Users/till/.cache/arm/packs/AlifSemiconductor/Ensemble/1.3.3/Alif_CMSIS/Source/Driver_GPIO.c:546

void GPIO0_IRQ7Handler  (void) {   GPIO_IRQ_Handler (&GPIO0_RES, 7);    }
80002098:	bf08      	it	eq
8000209a:	4770      	bxeq	lr
GPIO_IRQ_Handler():
/Users/till/.cache/arm/packs/AlifSemiconductor/Ensemble/1.3.3/Alif_CMSIS/Source/Driver_GPIO.c:509
        GPIO->cb_event[pin_no](ARM_GPIO_IRQ_EVENT_EXTERNAL);
8000209c:	2001      	movs	r0, #1
8000209e:	4708      	bx	r1

800020a0 <GPIO10_IRQ0Handler>:
/Users/till/.cache/arm/packs/AlifSemiconductor/Ensemble/1.3.3/Alif_CMSIS/Source/Driver_GPIO.c:505
    gpio_interrupt_eoi(GPIO->reg_base, pin_no);
800020a0:	f240 0048 	movw	r0, #72	@ 0x48
800020a4:	f2c2 0000 	movt	r0, #8192	@ 0x2000
800020a8:	6802      	ldr	r2, [r0, #0]
/Users/till/.cache/arm/packs/AlifSemiconductor/Ensemble/1.3.3/Alif_CMSIS/Source/Driver_GPIO.c:507
    if (GPIO->cb_event[pin_no] != NULL)
800020aa:	69c1      	ldr	r1, [r0, #28]
gpio_interrupt_eoi():
/Users/till/.cache/arm/packs/AlifSemiconductor/Ensemble/1.3.3/drivers/include/gpio.h:349
    gpio->GPIO_PORTA_EOI |= (1 << pin_no);
800020ac:	6cd0      	ldr	r0, [r2, #76]	@ 0x4c
GPIO_IRQ_Handler():
/Users/till/.cache/arm/packs/AlifSemiconductor/Ensemble/1.3.3/Alif_CMSIS/Source/Driver_GPIO.c:507
800020ae:	2900      	cmp	r1, #0
gpio_interrupt_eoi():
/Users/till/.cache/arm/packs/AlifSemiconductor/Ensemble/1.3.3/drivers/include/gpio.h:349
800020b0:	f040 0001 	orr.w	r0, r0, #1
800020b4:	64d0      	str	r0, [r2, #76]	@ 0x4c
/Users/till/.cache/arm/packs/AlifSemiconductor/Ensemble/1.3.3/drivers/include/gpio.h:350
    (void) gpio->GPIO_PORTA_EOI;
800020b6:	6cd0      	ldr	r0, [r2, #76]	@ 0x4c
GPIO10_IRQ0Handler():
/Users/till/.cache/arm/packs/AlifSemiconductor/Ensemble/1.3.3/Alif_CMSIS/Source/Driver_GPIO.c:1426
            RTE_GPIO10_PIN6_IRQ_PRIORITY,
            RTE_GPIO10_PIN7_IRQ_PRIORITY,
    }
};

void GPIO10_IRQ0Handler  (void) {   GPIO_IRQ_Handler (&GPIO10_RES, 0);    }
800020b8:	bf08      	it	eq
800020ba:	4770      	bxeq	lr
GPIO_IRQ_Handler():
/Users/till/.cache/arm/packs/AlifSemiconductor/Ensemble/1.3.3/Alif_CMSIS/Source/Driver_GPIO.c:509
        GPIO->cb_event[pin_no](ARM_GPIO_IRQ_EVENT_EXTERNAL);
800020bc:	2001      	movs	r0, #1
800020be:	4708      	bx	r1

800020c0 <GPIO10_IRQ1Handler>:
/Users/till/.cache/arm/packs/AlifSemiconductor/Ensemble/1.3.3/Alif_CMSIS/Source/Driver_GPIO.c:505
    gpio_interrupt_eoi(GPIO->reg_base, pin_no);
800020c0:	f240 0048 	movw	r0, #72	@ 0x48
800020c4:	f2c2 0000 	movt	r0, #8192	@ 0x2000
800020c8:	6802      	ldr	r2, [r0, #0]
/Users/till/.cache/arm/packs/AlifSemiconductor/Ensemble/1.3.3/Alif_CMSIS/Source/Driver_GPIO.c:507
    if (GPIO->cb_event[pin_no] != NULL)
800020ca:	6a01      	ldr	r1, [r0, #32]
gpio_interrupt_eoi():
/Users/till/.cache/arm/packs/AlifSemiconductor/Ensemble/1.3.3/drivers/include/gpio.h:349
    gpio->GPIO_PORTA_EOI |= (1 << pin_no);
800020cc:	6cd0      	ldr	r0, [r2, #76]	@ 0x4c
GPIO_IRQ_Handler():
/Users/till/.cache/arm/packs/AlifSemiconductor/Ensemble/1.3.3/Alif_CMSIS/Source/Driver_GPIO.c:507
800020ce:	2900      	cmp	r1, #0
gpio_interrupt_eoi():
/Users/till/.cache/arm/packs/AlifSemiconductor/Ensemble/1.3.3/drivers/include/gpio.h:349
800020d0:	f040 0002 	orr.w	r0, r0, #2
800020d4:	64d0      	str	r0, [r2, #76]	@ 0x4c
/Users/till/.cache/arm/packs/AlifSemiconductor/Ensemble/1.3.3/drivers/include/gpio.h:350
    (void) gpio->GPIO_PORTA_EOI;
800020d6:	6cd0      	ldr	r0, [r2, #76]	@ 0x4c
GPIO10_IRQ1Handler():
/Users/till/.cache/arm/packs/AlifSemiconductor/Ensemble/1.3.3/Alif_CMSIS/Source/Driver_GPIO.c:1428

void GPIO10_IRQ1Handler  (void) {   GPIO_IRQ_Handler (&GPIO10_RES, 1);    }
800020d8:	bf08      	it	eq
800020da:	4770      	bxeq	lr
GPIO_IRQ_Handler():
/Users/till/.cache/arm/packs/AlifSemiconductor/Ensemble/1.3.3/Alif_CMSIS/Source/Driver_GPIO.c:509
        GPIO->cb_event[pin_no](ARM_GPIO_IRQ_EVENT_EXTERNAL);
800020dc:	2001      	movs	r0, #1
800020de:	4708      	bx	r1

800020e0 <GPIO10_IRQ2Handler>:
/Users/till/.cache/arm/packs/AlifSemiconductor/Ensemble/1.3.3/Alif_CMSIS/Source/Driver_GPIO.c:505
    gpio_interrupt_eoi(GPIO->reg_base, pin_no);
800020e0:	f240 0048 	movw	r0, #72	@ 0x48
800020e4:	f2c2 0000 	movt	r0, #8192	@ 0x2000
800020e8:	6802      	ldr	r2, [r0, #0]
/Users/till/.cache/arm/packs/AlifSemiconductor/Ensemble/1.3.3/Alif_CMSIS/Source/Driver_GPIO.c:507
    if (GPIO->cb_event[pin_no] != NULL)
800020ea:	6a41      	ldr	r1, [r0, #36]	@ 0x24
gpio_interrupt_eoi():
/Users/till/.cache/arm/packs/AlifSemiconductor/Ensemble/1.3.3/drivers/include/gpio.h:349
    gpio->GPIO_PORTA_EOI |= (1 << pin_no);
800020ec:	6cd0      	ldr	r0, [r2, #76]	@ 0x4c
GPIO_IRQ_Handler():
/Users/till/.cache/arm/packs/AlifSemiconductor/Ensemble/1.3.3/Alif_CMSIS/Source/Driver_GPIO.c:507
800020ee:	2900      	cmp	r1, #0
gpio_interrupt_eoi():
/Users/till/.cache/arm/packs/AlifSemiconductor/Ensemble/1.3.3/drivers/include/gpio.h:349
800020f0:	f040 0004 	orr.w	r0, r0, #4
800020f4:	64d0      	str	r0, [r2, #76]	@ 0x4c
/Users/till/.cache/arm/packs/AlifSemiconductor/Ensemble/1.3.3/drivers/include/gpio.h:350
    (void) gpio->GPIO_PORTA_EOI;
800020f6:	6cd0      	ldr	r0, [r2, #76]	@ 0x4c
GPIO10_IRQ2Handler():
/Users/till/.cache/arm/packs/AlifSemiconductor/Ensemble/1.3.3/Alif_CMSIS/Source/Driver_GPIO.c:1430

void GPIO10_IRQ2Handler  (void) {   GPIO_IRQ_Handler (&GPIO10_RES, 2);    }
800020f8:	bf08      	it	eq
800020fa:	4770      	bxeq	lr
GPIO_IRQ_Handler():
/Users/till/.cache/arm/packs/AlifSemiconductor/Ensemble/1.3.3/Alif_CMSIS/Source/Driver_GPIO.c:509
        GPIO->cb_event[pin_no](ARM_GPIO_IRQ_EVENT_EXTERNAL);
800020fc:	2001      	movs	r0, #1
800020fe:	4708      	bx	r1

80002100 <GPIO10_IRQ3Handler>:
/Users/till/.cache/arm/packs/AlifSemiconductor/Ensemble/1.3.3/Alif_CMSIS/Source/Driver_GPIO.c:505
    gpio_interrupt_eoi(GPIO->reg_base, pin_no);
80002100:	f240 0048 	movw	r0, #72	@ 0x48
80002104:	f2c2 0000 	movt	r0, #8192	@ 0x2000
80002108:	6802      	ldr	r2, [r0, #0]
/Users/till/.cache/arm/packs/AlifSemiconductor/Ensemble/1.3.3/Alif_CMSIS/Source/Driver_GPIO.c:507
    if (GPIO->cb_event[pin_no] != NULL)
8000210a:	6a81      	ldr	r1, [r0, #40]	@ 0x28
gpio_interrupt_eoi():
/Users/till/.cache/arm/packs/AlifSemiconductor/Ensemble/1.3.3/drivers/include/gpio.h:349
    gpio->GPIO_PORTA_EOI |= (1 << pin_no);
8000210c:	6cd0      	ldr	r0, [r2, #76]	@ 0x4c
GPIO_IRQ_Handler():
/Users/till/.cache/arm/packs/AlifSemiconductor/Ensemble/1.3.3/Alif_CMSIS/Source/Driver_GPIO.c:507
8000210e:	2900      	cmp	r1, #0
gpio_interrupt_eoi():
/Users/till/.cache/arm/packs/AlifSemiconductor/Ensemble/1.3.3/drivers/include/gpio.h:349
80002110:	f040 0008 	orr.w	r0, r0, #8
80002114:	64d0      	str	r0, [r2, #76]	@ 0x4c
/Users/till/.cache/arm/packs/AlifSemiconductor/Ensemble/1.3.3/drivers/include/gpio.h:350
    (void) gpio->GPIO_PORTA_EOI;
80002116:	6cd0      	ldr	r0, [r2, #76]	@ 0x4c
GPIO10_IRQ3Handler():
/Users/till/.cache/arm/packs/AlifSemiconductor/Ensemble/1.3.3/Alif_CMSIS/Source/Driver_GPIO.c:1432

void GPIO10_IRQ3Handler  (void) {   GPIO_IRQ_Handler (&GPIO10_RES, 3);    }
80002118:	bf08      	it	eq
8000211a:	4770      	bxeq	lr
GPIO_IRQ_Handler():
/Users/till/.cache/arm/packs/AlifSemiconductor/Ensemble/1.3.3/Alif_CMSIS/Source/Driver_GPIO.c:509
        GPIO->cb_event[pin_no](ARM_GPIO_IRQ_EVENT_EXTERNAL);
8000211c:	2001      	movs	r0, #1
8000211e:	4708      	bx	r1

80002120 <GPIO10_IRQ4Handler>:
/Users/till/.cache/arm/packs/AlifSemiconductor/Ensemble/1.3.3/Alif_CMSIS/Source/Driver_GPIO.c:505
    gpio_interrupt_eoi(GPIO->reg_base, pin_no);
80002120:	f240 0048 	movw	r0, #72	@ 0x48
80002124:	f2c2 0000 	movt	r0, #8192	@ 0x2000
80002128:	6802      	ldr	r2, [r0, #0]
/Users/till/.cache/arm/packs/AlifSemiconductor/Ensemble/1.3.3/Alif_CMSIS/Source/Driver_GPIO.c:507
    if (GPIO->cb_event[pin_no] != NULL)
8000212a:	6ac1      	ldr	r1, [r0, #44]	@ 0x2c
gpio_interrupt_eoi():
/Users/till/.cache/arm/packs/AlifSemiconductor/Ensemble/1.3.3/drivers/include/gpio.h:349
    gpio->GPIO_PORTA_EOI |= (1 << pin_no);
8000212c:	6cd0      	ldr	r0, [r2, #76]	@ 0x4c
GPIO_IRQ_Handler():
/Users/till/.cache/arm/packs/AlifSemiconductor/Ensemble/1.3.3/Alif_CMSIS/Source/Driver_GPIO.c:507
8000212e:	2900      	cmp	r1, #0
gpio_interrupt_eoi():
/Users/till/.cache/arm/packs/AlifSemiconductor/Ensemble/1.3.3/drivers/include/gpio.h:349
80002130:	f040 0010 	orr.w	r0, r0, #16
80002134:	64d0      	str	r0, [r2, #76]	@ 0x4c
/Users/till/.cache/arm/packs/AlifSemiconductor/Ensemble/1.3.3/drivers/include/gpio.h:350
    (void) gpio->GPIO_PORTA_EOI;
80002136:	6cd0      	ldr	r0, [r2, #76]	@ 0x4c
GPIO10_IRQ4Handler():
/Users/till/.cache/arm/packs/AlifSemiconductor/Ensemble/1.3.3/Alif_CMSIS/Source/Driver_GPIO.c:1434

void GPIO10_IRQ4Handler  (void) {   GPIO_IRQ_Handler (&GPIO10_RES, 4);    }
80002138:	bf08      	it	eq
8000213a:	4770      	bxeq	lr
GPIO_IRQ_Handler():
/Users/till/.cache/arm/packs/AlifSemiconductor/Ensemble/1.3.3/Alif_CMSIS/Source/Driver_GPIO.c:509
        GPIO->cb_event[pin_no](ARM_GPIO_IRQ_EVENT_EXTERNAL);
8000213c:	2001      	movs	r0, #1
8000213e:	4708      	bx	r1

80002140 <GPIO10_IRQ5Handler>:
/Users/till/.cache/arm/packs/AlifSemiconductor/Ensemble/1.3.3/Alif_CMSIS/Source/Driver_GPIO.c:505
    gpio_interrupt_eoi(GPIO->reg_base, pin_no);
80002140:	f240 0048 	movw	r0, #72	@ 0x48
80002144:	f2c2 0000 	movt	r0, #8192	@ 0x2000
80002148:	6802      	ldr	r2, [r0, #0]
/Users/till/.cache/arm/packs/AlifSemiconductor/Ensemble/1.3.3/Alif_CMSIS/Source/Driver_GPIO.c:507
    if (GPIO->cb_event[pin_no] != NULL)
8000214a:	6b01      	ldr	r1, [r0, #48]	@ 0x30
gpio_interrupt_eoi():
/Users/till/.cache/arm/packs/AlifSemiconductor/Ensemble/1.3.3/drivers/include/gpio.h:349
    gpio->GPIO_PORTA_EOI |= (1 << pin_no);
8000214c:	6cd0      	ldr	r0, [r2, #76]	@ 0x4c
GPIO_IRQ_Handler():
/Users/till/.cache/arm/packs/AlifSemiconductor/Ensemble/1.3.3/Alif_CMSIS/Source/Driver_GPIO.c:507
8000214e:	2900      	cmp	r1, #0
gpio_interrupt_eoi():
/Users/till/.cache/arm/packs/AlifSemiconductor/Ensemble/1.3.3/drivers/include/gpio.h:349
80002150:	f040 0020 	orr.w	r0, r0, #32
80002154:	64d0      	str	r0, [r2, #76]	@ 0x4c
/Users/till/.cache/arm/packs/AlifSemiconductor/Ensemble/1.3.3/drivers/include/gpio.h:350
    (void) gpio->GPIO_PORTA_EOI;
80002156:	6cd0      	ldr	r0, [r2, #76]	@ 0x4c
GPIO10_IRQ5Handler():
/Users/till/.cache/arm/packs/AlifSemiconductor/Ensemble/1.3.3/Alif_CMSIS/Source/Driver_GPIO.c:1436

void GPIO10_IRQ5Handler  (void) {   GPIO_IRQ_Handler (&GPIO10_RES, 5);    }
80002158:	bf08      	it	eq
8000215a:	4770      	bxeq	lr
GPIO_IRQ_Handler():
/Users/till/.cache/arm/packs/AlifSemiconductor/Ensemble/1.3.3/Alif_CMSIS/Source/Driver_GPIO.c:509
        GPIO->cb_event[pin_no](ARM_GPIO_IRQ_EVENT_EXTERNAL);
8000215c:	2001      	movs	r0, #1
8000215e:	4708      	bx	r1

80002160 <GPIO10_IRQ6Handler>:
/Users/till/.cache/arm/packs/AlifSemiconductor/Ensemble/1.3.3/Alif_CMSIS/Source/Driver_GPIO.c:505
    gpio_interrupt_eoi(GPIO->reg_base, pin_no);
80002160:	f240 0048 	movw	r0, #72	@ 0x48
80002164:	f2c2 0000 	movt	r0, #8192	@ 0x2000
80002168:	6802      	ldr	r2, [r0, #0]
/Users/till/.cache/arm/packs/AlifSemiconductor/Ensemble/1.3.3/Alif_CMSIS/Source/Driver_GPIO.c:507
    if (GPIO->cb_event[pin_no] != NULL)
8000216a:	6b41      	ldr	r1, [r0, #52]	@ 0x34
gpio_interrupt_eoi():
/Users/till/.cache/arm/packs/AlifSemiconductor/Ensemble/1.3.3/drivers/include/gpio.h:349
    gpio->GPIO_PORTA_EOI |= (1 << pin_no);
8000216c:	6cd0      	ldr	r0, [r2, #76]	@ 0x4c
GPIO_IRQ_Handler():
/Users/till/.cache/arm/packs/AlifSemiconductor/Ensemble/1.3.3/Alif_CMSIS/Source/Driver_GPIO.c:507
8000216e:	2900      	cmp	r1, #0
gpio_interrupt_eoi():
/Users/till/.cache/arm/packs/AlifSemiconductor/Ensemble/1.3.3/drivers/include/gpio.h:349
80002170:	f040 0040 	orr.w	r0, r0, #64	@ 0x40
80002174:	64d0      	str	r0, [r2, #76]	@ 0x4c
/Users/till/.cache/arm/packs/AlifSemiconductor/Ensemble/1.3.3/drivers/include/gpio.h:350
    (void) gpio->GPIO_PORTA_EOI;
80002176:	6cd0      	ldr	r0, [r2, #76]	@ 0x4c
GPIO10_IRQ6Handler():
/Users/till/.cache/arm/packs/AlifSemiconductor/Ensemble/1.3.3/Alif_CMSIS/Source/Driver_GPIO.c:1438

void GPIO10_IRQ6Handler  (void) {   GPIO_IRQ_Handler (&GPIO10_RES, 6);    }
80002178:	bf08      	it	eq
8000217a:	4770      	bxeq	lr
GPIO_IRQ_Handler():
/Users/till/.cache/arm/packs/AlifSemiconductor/Ensemble/1.3.3/Alif_CMSIS/Source/Driver_GPIO.c:509
        GPIO->cb_event[pin_no](ARM_GPIO_IRQ_EVENT_EXTERNAL);
8000217c:	2001      	movs	r0, #1
8000217e:	4708      	bx	r1

80002180 <GPIO10_IRQ7Handler>:
/Users/till/.cache/arm/packs/AlifSemiconductor/Ensemble/1.3.3/Alif_CMSIS/Source/Driver_GPIO.c:505
    gpio_interrupt_eoi(GPIO->reg_base, pin_no);
80002180:	f240 0048 	movw	r0, #72	@ 0x48
80002184:	f2c2 0000 	movt	r0, #8192	@ 0x2000
80002188:	6802      	ldr	r2, [r0, #0]
/Users/till/.cache/arm/packs/AlifSemiconductor/Ensemble/1.3.3/Alif_CMSIS/Source/Driver_GPIO.c:507
    if (GPIO->cb_event[pin_no] != NULL)
8000218a:	6b81      	ldr	r1, [r0, #56]	@ 0x38
gpio_interrupt_eoi():
/Users/till/.cache/arm/packs/AlifSemiconductor/Ensemble/1.3.3/drivers/include/gpio.h:349
    gpio->GPIO_PORTA_EOI |= (1 << pin_no);
8000218c:	6cd0      	ldr	r0, [r2, #76]	@ 0x4c
GPIO_IRQ_Handler():
/Users/till/.cache/arm/packs/AlifSemiconductor/Ensemble/1.3.3/Alif_CMSIS/Source/Driver_GPIO.c:507
8000218e:	2900      	cmp	r1, #0
gpio_interrupt_eoi():
/Users/till/.cache/arm/packs/AlifSemiconductor/Ensemble/1.3.3/drivers/include/gpio.h:349
80002190:	f040 0080 	orr.w	r0, r0, #128	@ 0x80
80002194:	64d0      	str	r0, [r2, #76]	@ 0x4c
/Users/till/.cache/arm/packs/AlifSemiconductor/Ensemble/1.3.3/drivers/include/gpio.h:350
    (void) gpio->GPIO_PORTA_EOI;
80002196:	6cd0      	ldr	r0, [r2, #76]	@ 0x4c
GPIO10_IRQ7Handler():
/Users/till/.cache/arm/packs/AlifSemiconductor/Ensemble/1.3.3/Alif_CMSIS/Source/Driver_GPIO.c:1440

void GPIO10_IRQ7Handler  (void) {   GPIO_IRQ_Handler (&GPIO10_RES, 7);    }
80002198:	bf08      	it	eq
8000219a:	4770      	bxeq	lr
GPIO_IRQ_Handler():
/Users/till/.cache/arm/packs/AlifSemiconductor/Ensemble/1.3.3/Alif_CMSIS/Source/Driver_GPIO.c:509
        GPIO->cb_event[pin_no](ARM_GPIO_IRQ_EVENT_EXTERNAL);
8000219c:	2001      	movs	r0, #1
8000219e:	4708      	bx	r1

800021a0 <GPIO11_IRQ0Handler>:
/Users/till/.cache/arm/packs/AlifSemiconductor/Ensemble/1.3.3/Alif_CMSIS/Source/Driver_GPIO.c:505
    gpio_interrupt_eoi(GPIO->reg_base, pin_no);
800021a0:	f240 0084 	movw	r0, #132	@ 0x84
800021a4:	f2c2 0000 	movt	r0, #8192	@ 0x2000
800021a8:	6802      	ldr	r2, [r0, #0]
/Users/till/.cache/arm/packs/AlifSemiconductor/Ensemble/1.3.3/Alif_CMSIS/Source/Driver_GPIO.c:507
    if (GPIO->cb_event[pin_no] != NULL)
800021aa:	69c1      	ldr	r1, [r0, #28]
gpio_interrupt_eoi():
/Users/till/.cache/arm/packs/AlifSemiconductor/Ensemble/1.3.3/drivers/include/gpio.h:349
    gpio->GPIO_PORTA_EOI |= (1 << pin_no);
800021ac:	6cd0      	ldr	r0, [r2, #76]	@ 0x4c
GPIO_IRQ_Handler():
/Users/till/.cache/arm/packs/AlifSemiconductor/Ensemble/1.3.3/Alif_CMSIS/Source/Driver_GPIO.c:507
800021ae:	2900      	cmp	r1, #0
gpio_interrupt_eoi():
/Users/till/.cache/arm/packs/AlifSemiconductor/Ensemble/1.3.3/drivers/include/gpio.h:349
800021b0:	f040 0001 	orr.w	r0, r0, #1
800021b4:	64d0      	str	r0, [r2, #76]	@ 0x4c
/Users/till/.cache/arm/packs/AlifSemiconductor/Ensemble/1.3.3/drivers/include/gpio.h:350
    (void) gpio->GPIO_PORTA_EOI;
800021b6:	6cd0      	ldr	r0, [r2, #76]	@ 0x4c
GPIO11_IRQ0Handler():
/Users/till/.cache/arm/packs/AlifSemiconductor/Ensemble/1.3.3/Alif_CMSIS/Source/Driver_GPIO.c:1515
            RTE_GPIO11_PIN6_IRQ_PRIORITY,
            RTE_GPIO11_PIN7_IRQ_PRIORITY,
    }
};

void GPIO11_IRQ0Handler  (void) {   GPIO_IRQ_Handler (&GPIO11_RES, 0);    }
800021b8:	bf08      	it	eq
800021ba:	4770      	bxeq	lr
GPIO_IRQ_Handler():
/Users/till/.cache/arm/packs/AlifSemiconductor/Ensemble/1.3.3/Alif_CMSIS/Source/Driver_GPIO.c:509
        GPIO->cb_event[pin_no](ARM_GPIO_IRQ_EVENT_EXTERNAL);
800021bc:	2001      	movs	r0, #1
800021be:	4708      	bx	r1

800021c0 <GPIO11_IRQ1Handler>:
/Users/till/.cache/arm/packs/AlifSemiconductor/Ensemble/1.3.3/Alif_CMSIS/Source/Driver_GPIO.c:505
    gpio_interrupt_eoi(GPIO->reg_base, pin_no);
800021c0:	f240 0084 	movw	r0, #132	@ 0x84
800021c4:	f2c2 0000 	movt	r0, #8192	@ 0x2000
800021c8:	6802      	ldr	r2, [r0, #0]
/Users/till/.cache/arm/packs/AlifSemiconductor/Ensemble/1.3.3/Alif_CMSIS/Source/Driver_GPIO.c:507
    if (GPIO->cb_event[pin_no] != NULL)
800021ca:	6a01      	ldr	r1, [r0, #32]
gpio_interrupt_eoi():
/Users/till/.cache/arm/packs/AlifSemiconductor/Ensemble/1.3.3/drivers/include/gpio.h:349
    gpio->GPIO_PORTA_EOI |= (1 << pin_no);
800021cc:	6cd0      	ldr	r0, [r2, #76]	@ 0x4c
GPIO_IRQ_Handler():
/Users/till/.cache/arm/packs/AlifSemiconductor/Ensemble/1.3.3/Alif_CMSIS/Source/Driver_GPIO.c:507
800021ce:	2900      	cmp	r1, #0
gpio_interrupt_eoi():
/Users/till/.cache/arm/packs/AlifSemiconductor/Ensemble/1.3.3/drivers/include/gpio.h:349
800021d0:	f040 0002 	orr.w	r0, r0, #2
800021d4:	64d0      	str	r0, [r2, #76]	@ 0x4c
/Users/till/.cache/arm/packs/AlifSemiconductor/Ensemble/1.3.3/drivers/include/gpio.h:350
    (void) gpio->GPIO_PORTA_EOI;
800021d6:	6cd0      	ldr	r0, [r2, #76]	@ 0x4c
GPIO11_IRQ1Handler():
/Users/till/.cache/arm/packs/AlifSemiconductor/Ensemble/1.3.3/Alif_CMSIS/Source/Driver_GPIO.c:1517

void GPIO11_IRQ1Handler  (void) {   GPIO_IRQ_Handler (&GPIO11_RES, 1);    }
800021d8:	bf08      	it	eq
800021da:	4770      	bxeq	lr
GPIO_IRQ_Handler():
/Users/till/.cache/arm/packs/AlifSemiconductor/Ensemble/1.3.3/Alif_CMSIS/Source/Driver_GPIO.c:509
        GPIO->cb_event[pin_no](ARM_GPIO_IRQ_EVENT_EXTERNAL);
800021dc:	2001      	movs	r0, #1
800021de:	4708      	bx	r1

800021e0 <GPIO11_IRQ2Handler>:
/Users/till/.cache/arm/packs/AlifSemiconductor/Ensemble/1.3.3/Alif_CMSIS/Source/Driver_GPIO.c:505
    gpio_interrupt_eoi(GPIO->reg_base, pin_no);
800021e0:	f240 0084 	movw	r0, #132	@ 0x84
800021e4:	f2c2 0000 	movt	r0, #8192	@ 0x2000
800021e8:	6802      	ldr	r2, [r0, #0]
/Users/till/.cache/arm/packs/AlifSemiconductor/Ensemble/1.3.3/Alif_CMSIS/Source/Driver_GPIO.c:507
    if (GPIO->cb_event[pin_no] != NULL)
800021ea:	6a41      	ldr	r1, [r0, #36]	@ 0x24
gpio_interrupt_eoi():
/Users/till/.cache/arm/packs/AlifSemiconductor/Ensemble/1.3.3/drivers/include/gpio.h:349
    gpio->GPIO_PORTA_EOI |= (1 << pin_no);
800021ec:	6cd0      	ldr	r0, [r2, #76]	@ 0x4c
GPIO_IRQ_Handler():
/Users/till/.cache/arm/packs/AlifSemiconductor/Ensemble/1.3.3/Alif_CMSIS/Source/Driver_GPIO.c:507
800021ee:	2900      	cmp	r1, #0
gpio_interrupt_eoi():
/Users/till/.cache/arm/packs/AlifSemiconductor/Ensemble/1.3.3/drivers/include/gpio.h:349
800021f0:	f040 0004 	orr.w	r0, r0, #4
800021f4:	64d0      	str	r0, [r2, #76]	@ 0x4c
/Users/till/.cache/arm/packs/AlifSemiconductor/Ensemble/1.3.3/drivers/include/gpio.h:350
    (void) gpio->GPIO_PORTA_EOI;
800021f6:	6cd0      	ldr	r0, [r2, #76]	@ 0x4c
GPIO11_IRQ2Handler():
/Users/till/.cache/arm/packs/AlifSemiconductor/Ensemble/1.3.3/Alif_CMSIS/Source/Driver_GPIO.c:1519

void GPIO11_IRQ2Handler  (void) {   GPIO_IRQ_Handler (&GPIO11_RES, 2);    }
800021f8:	bf08      	it	eq
800021fa:	4770      	bxeq	lr
GPIO_IRQ_Handler():
/Users/till/.cache/arm/packs/AlifSemiconductor/Ensemble/1.3.3/Alif_CMSIS/Source/Driver_GPIO.c:509
        GPIO->cb_event[pin_no](ARM_GPIO_IRQ_EVENT_EXTERNAL);
800021fc:	2001      	movs	r0, #1
800021fe:	4708      	bx	r1

80002200 <GPIO11_IRQ3Handler>:
/Users/till/.cache/arm/packs/AlifSemiconductor/Ensemble/1.3.3/Alif_CMSIS/Source/Driver_GPIO.c:505
    gpio_interrupt_eoi(GPIO->reg_base, pin_no);
80002200:	f240 0084 	movw	r0, #132	@ 0x84
80002204:	f2c2 0000 	movt	r0, #8192	@ 0x2000
80002208:	6802      	ldr	r2, [r0, #0]
/Users/till/.cache/arm/packs/AlifSemiconductor/Ensemble/1.3.3/Alif_CMSIS/Source/Driver_GPIO.c:507
    if (GPIO->cb_event[pin_no] != NULL)
8000220a:	6a81      	ldr	r1, [r0, #40]	@ 0x28
gpio_interrupt_eoi():
/Users/till/.cache/arm/packs/AlifSemiconductor/Ensemble/1.3.3/drivers/include/gpio.h:349
    gpio->GPIO_PORTA_EOI |= (1 << pin_no);
8000220c:	6cd0      	ldr	r0, [r2, #76]	@ 0x4c
GPIO_IRQ_Handler():
/Users/till/.cache/arm/packs/AlifSemiconductor/Ensemble/1.3.3/Alif_CMSIS/Source/Driver_GPIO.c:507
8000220e:	2900      	cmp	r1, #0
gpio_interrupt_eoi():
/Users/till/.cache/arm/packs/AlifSemiconductor/Ensemble/1.3.3/drivers/include/gpio.h:349
80002210:	f040 0008 	orr.w	r0, r0, #8
80002214:	64d0      	str	r0, [r2, #76]	@ 0x4c
/Users/till/.cache/arm/packs/AlifSemiconductor/Ensemble/1.3.3/drivers/include/gpio.h:350
    (void) gpio->GPIO_PORTA_EOI;
80002216:	6cd0      	ldr	r0, [r2, #76]	@ 0x4c
GPIO11_IRQ3Handler():
/Users/till/.cache/arm/packs/AlifSemiconductor/Ensemble/1.3.3/Alif_CMSIS/Source/Driver_GPIO.c:1521

void GPIO11_IRQ3Handler  (void) {   GPIO_IRQ_Handler (&GPIO11_RES, 3);    }
80002218:	bf08      	it	eq
8000221a:	4770      	bxeq	lr
GPIO_IRQ_Handler():
/Users/till/.cache/arm/packs/AlifSemiconductor/Ensemble/1.3.3/Alif_CMSIS/Source/Driver_GPIO.c:509
        GPIO->cb_event[pin_no](ARM_GPIO_IRQ_EVENT_EXTERNAL);
8000221c:	2001      	movs	r0, #1
8000221e:	4708      	bx	r1

80002220 <GPIO11_IRQ4Handler>:
/Users/till/.cache/arm/packs/AlifSemiconductor/Ensemble/1.3.3/Alif_CMSIS/Source/Driver_GPIO.c:505
    gpio_interrupt_eoi(GPIO->reg_base, pin_no);
80002220:	f240 0084 	movw	r0, #132	@ 0x84
80002224:	f2c2 0000 	movt	r0, #8192	@ 0x2000
80002228:	6802      	ldr	r2, [r0, #0]
/Users/till/.cache/arm/packs/AlifSemiconductor/Ensemble/1.3.3/Alif_CMSIS/Source/Driver_GPIO.c:507
    if (GPIO->cb_event[pin_no] != NULL)
8000222a:	6ac1      	ldr	r1, [r0, #44]	@ 0x2c
gpio_interrupt_eoi():
/Users/till/.cache/arm/packs/AlifSemiconductor/Ensemble/1.3.3/drivers/include/gpio.h:349
    gpio->GPIO_PORTA_EOI |= (1 << pin_no);
8000222c:	6cd0      	ldr	r0, [r2, #76]	@ 0x4c
GPIO_IRQ_Handler():
/Users/till/.cache/arm/packs/AlifSemiconductor/Ensemble/1.3.3/Alif_CMSIS/Source/Driver_GPIO.c:507
8000222e:	2900      	cmp	r1, #0
gpio_interrupt_eoi():
/Users/till/.cache/arm/packs/AlifSemiconductor/Ensemble/1.3.3/drivers/include/gpio.h:349
80002230:	f040 0010 	orr.w	r0, r0, #16
80002234:	64d0      	str	r0, [r2, #76]	@ 0x4c
/Users/till/.cache/arm/packs/AlifSemiconductor/Ensemble/1.3.3/drivers/include/gpio.h:350
    (void) gpio->GPIO_PORTA_EOI;
80002236:	6cd0      	ldr	r0, [r2, #76]	@ 0x4c
GPIO11_IRQ4Handler():
/Users/till/.cache/arm/packs/AlifSemiconductor/Ensemble/1.3.3/Alif_CMSIS/Source/Driver_GPIO.c:1523

void GPIO11_IRQ4Handler  (void) {   GPIO_IRQ_Handler (&GPIO11_RES, 4);    }
80002238:	bf08      	it	eq
8000223a:	4770      	bxeq	lr
GPIO_IRQ_Handler():
/Users/till/.cache/arm/packs/AlifSemiconductor/Ensemble/1.3.3/Alif_CMSIS/Source/Driver_GPIO.c:509
        GPIO->cb_event[pin_no](ARM_GPIO_IRQ_EVENT_EXTERNAL);
8000223c:	2001      	movs	r0, #1
8000223e:	4708      	bx	r1

80002240 <GPIO11_IRQ5Handler>:
/Users/till/.cache/arm/packs/AlifSemiconductor/Ensemble/1.3.3/Alif_CMSIS/Source/Driver_GPIO.c:505
    gpio_interrupt_eoi(GPIO->reg_base, pin_no);
80002240:	f240 0084 	movw	r0, #132	@ 0x84
80002244:	f2c2 0000 	movt	r0, #8192	@ 0x2000
80002248:	6802      	ldr	r2, [r0, #0]
/Users/till/.cache/arm/packs/AlifSemiconductor/Ensemble/1.3.3/Alif_CMSIS/Source/Driver_GPIO.c:507
    if (GPIO->cb_event[pin_no] != NULL)
8000224a:	6b01      	ldr	r1, [r0, #48]	@ 0x30
gpio_interrupt_eoi():
/Users/till/.cache/arm/packs/AlifSemiconductor/Ensemble/1.3.3/drivers/include/gpio.h:349
    gpio->GPIO_PORTA_EOI |= (1 << pin_no);
8000224c:	6cd0      	ldr	r0, [r2, #76]	@ 0x4c
GPIO_IRQ_Handler():
/Users/till/.cache/arm/packs/AlifSemiconductor/Ensemble/1.3.3/Alif_CMSIS/Source/Driver_GPIO.c:507
8000224e:	2900      	cmp	r1, #0
gpio_interrupt_eoi():
/Users/till/.cache/arm/packs/AlifSemiconductor/Ensemble/1.3.3/drivers/include/gpio.h:349
80002250:	f040 0020 	orr.w	r0, r0, #32
80002254:	64d0      	str	r0, [r2, #76]	@ 0x4c
/Users/till/.cache/arm/packs/AlifSemiconductor/Ensemble/1.3.3/drivers/include/gpio.h:350
    (void) gpio->GPIO_PORTA_EOI;
80002256:	6cd0      	ldr	r0, [r2, #76]	@ 0x4c
GPIO11_IRQ5Handler():
/Users/till/.cache/arm/packs/AlifSemiconductor/Ensemble/1.3.3/Alif_CMSIS/Source/Driver_GPIO.c:1525

void GPIO11_IRQ5Handler  (void) {   GPIO_IRQ_Handler (&GPIO11_RES, 5);    }
80002258:	bf08      	it	eq
8000225a:	4770      	bxeq	lr
GPIO_IRQ_Handler():
/Users/till/.cache/arm/packs/AlifSemiconductor/Ensemble/1.3.3/Alif_CMSIS/Source/Driver_GPIO.c:509
        GPIO->cb_event[pin_no](ARM_GPIO_IRQ_EVENT_EXTERNAL);
8000225c:	2001      	movs	r0, #1
8000225e:	4708      	bx	r1

80002260 <GPIO11_IRQ6Handler>:
/Users/till/.cache/arm/packs/AlifSemiconductor/Ensemble/1.3.3/Alif_CMSIS/Source/Driver_GPIO.c:505
    gpio_interrupt_eoi(GPIO->reg_base, pin_no);
80002260:	f240 0084 	movw	r0, #132	@ 0x84
80002264:	f2c2 0000 	movt	r0, #8192	@ 0x2000
80002268:	6802      	ldr	r2, [r0, #0]
/Users/till/.cache/arm/packs/AlifSemiconductor/Ensemble/1.3.3/Alif_CMSIS/Source/Driver_GPIO.c:507
    if (GPIO->cb_event[pin_no] != NULL)
8000226a:	6b41      	ldr	r1, [r0, #52]	@ 0x34
gpio_interrupt_eoi():
/Users/till/.cache/arm/packs/AlifSemiconductor/Ensemble/1.3.3/drivers/include/gpio.h:349
    gpio->GPIO_PORTA_EOI |= (1 << pin_no);
8000226c:	6cd0      	ldr	r0, [r2, #76]	@ 0x4c
GPIO_IRQ_Handler():
/Users/till/.cache/arm/packs/AlifSemiconductor/Ensemble/1.3.3/Alif_CMSIS/Source/Driver_GPIO.c:507
8000226e:	2900      	cmp	r1, #0
gpio_interrupt_eoi():
/Users/till/.cache/arm/packs/AlifSemiconductor/Ensemble/1.3.3/drivers/include/gpio.h:349
80002270:	f040 0040 	orr.w	r0, r0, #64	@ 0x40
80002274:	64d0      	str	r0, [r2, #76]	@ 0x4c
/Users/till/.cache/arm/packs/AlifSemiconductor/Ensemble/1.3.3/drivers/include/gpio.h:350
    (void) gpio->GPIO_PORTA_EOI;
80002276:	6cd0      	ldr	r0, [r2, #76]	@ 0x4c
GPIO11_IRQ6Handler():
/Users/till/.cache/arm/packs/AlifSemiconductor/Ensemble/1.3.3/Alif_CMSIS/Source/Driver_GPIO.c:1527

void GPIO11_IRQ6Handler  (void) {   GPIO_IRQ_Handler (&GPIO11_RES, 6);    }
80002278:	bf08      	it	eq
8000227a:	4770      	bxeq	lr
GPIO_IRQ_Handler():
/Users/till/.cache/arm/packs/AlifSemiconductor/Ensemble/1.3.3/Alif_CMSIS/Source/Driver_GPIO.c:509
        GPIO->cb_event[pin_no](ARM_GPIO_IRQ_EVENT_EXTERNAL);
8000227c:	2001      	movs	r0, #1
8000227e:	4708      	bx	r1

80002280 <GPIO11_IRQ7Handler>:
/Users/till/.cache/arm/packs/AlifSemiconductor/Ensemble/1.3.3/Alif_CMSIS/Source/Driver_GPIO.c:505
    gpio_interrupt_eoi(GPIO->reg_base, pin_no);
80002280:	f240 0084 	movw	r0, #132	@ 0x84
80002284:	f2c2 0000 	movt	r0, #8192	@ 0x2000
80002288:	6802      	ldr	r2, [r0, #0]
/Users/till/.cache/arm/packs/AlifSemiconductor/Ensemble/1.3.3/Alif_CMSIS/Source/Driver_GPIO.c:507
    if (GPIO->cb_event[pin_no] != NULL)
8000228a:	6b81      	ldr	r1, [r0, #56]	@ 0x38
gpio_interrupt_eoi():
/Users/till/.cache/arm/packs/AlifSemiconductor/Ensemble/1.3.3/drivers/include/gpio.h:349
    gpio->GPIO_PORTA_EOI |= (1 << pin_no);
8000228c:	6cd0      	ldr	r0, [r2, #76]	@ 0x4c
GPIO_IRQ_Handler():
/Users/till/.cache/arm/packs/AlifSemiconductor/Ensemble/1.3.3/Alif_CMSIS/Source/Driver_GPIO.c:507
8000228e:	2900      	cmp	r1, #0
gpio_interrupt_eoi():
/Users/till/.cache/arm/packs/AlifSemiconductor/Ensemble/1.3.3/drivers/include/gpio.h:349
80002290:	f040 0080 	orr.w	r0, r0, #128	@ 0x80
80002294:	64d0      	str	r0, [r2, #76]	@ 0x4c
/Users/till/.cache/arm/packs/AlifSemiconductor/Ensemble/1.3.3/drivers/include/gpio.h:350
    (void) gpio->GPIO_PORTA_EOI;
80002296:	6cd0      	ldr	r0, [r2, #76]	@ 0x4c
GPIO11_IRQ7Handler():
/Users/till/.cache/arm/packs/AlifSemiconductor/Ensemble/1.3.3/Alif_CMSIS/Source/Driver_GPIO.c:1529

void GPIO11_IRQ7Handler  (void) {   GPIO_IRQ_Handler (&GPIO11_RES, 7);    }
80002298:	bf08      	it	eq
8000229a:	4770      	bxeq	lr
GPIO_IRQ_Handler():
/Users/till/.cache/arm/packs/AlifSemiconductor/Ensemble/1.3.3/Alif_CMSIS/Source/Driver_GPIO.c:509
        GPIO->cb_event[pin_no](ARM_GPIO_IRQ_EVENT_EXTERNAL);
8000229c:	2001      	movs	r0, #1
8000229e:	4708      	bx	r1

800022a0 <GPIO12_IRQ0Handler>:
/Users/till/.cache/arm/packs/AlifSemiconductor/Ensemble/1.3.3/Alif_CMSIS/Source/Driver_GPIO.c:505
    gpio_interrupt_eoi(GPIO->reg_base, pin_no);
800022a0:	f240 00c0 	movw	r0, #192	@ 0xc0
800022a4:	f2c2 0000 	movt	r0, #8192	@ 0x2000
800022a8:	6802      	ldr	r2, [r0, #0]
/Users/till/.cache/arm/packs/AlifSemiconductor/Ensemble/1.3.3/Alif_CMSIS/Source/Driver_GPIO.c:507
    if (GPIO->cb_event[pin_no] != NULL)
800022aa:	69c1      	ldr	r1, [r0, #28]
gpio_interrupt_eoi():
/Users/till/.cache/arm/packs/AlifSemiconductor/Ensemble/1.3.3/drivers/include/gpio.h:349
    gpio->GPIO_PORTA_EOI |= (1 << pin_no);
800022ac:	6cd0      	ldr	r0, [r2, #76]	@ 0x4c
GPIO_IRQ_Handler():
/Users/till/.cache/arm/packs/AlifSemiconductor/Ensemble/1.3.3/Alif_CMSIS/Source/Driver_GPIO.c:507
800022ae:	2900      	cmp	r1, #0
gpio_interrupt_eoi():
/Users/till/.cache/arm/packs/AlifSemiconductor/Ensemble/1.3.3/drivers/include/gpio.h:349
800022b0:	f040 0001 	orr.w	r0, r0, #1
800022b4:	64d0      	str	r0, [r2, #76]	@ 0x4c
/Users/till/.cache/arm/packs/AlifSemiconductor/Ensemble/1.3.3/drivers/include/gpio.h:350
    (void) gpio->GPIO_PORTA_EOI;
800022b6:	6cd0      	ldr	r0, [r2, #76]	@ 0x4c
GPIO12_IRQ0Handler():
/Users/till/.cache/arm/packs/AlifSemiconductor/Ensemble/1.3.3/Alif_CMSIS/Source/Driver_GPIO.c:1604
            RTE_GPIO12_PIN6_IRQ_PRIORITY,
            RTE_GPIO12_PIN7_IRQ_PRIORITY,
    }
};

void GPIO12_IRQ0Handler  (void) {   GPIO_IRQ_Handler (&GPIO12_RES, 0);    }
800022b8:	bf08      	it	eq
800022ba:	4770      	bxeq	lr
GPIO_IRQ_Handler():
/Users/till/.cache/arm/packs/AlifSemiconductor/Ensemble/1.3.3/Alif_CMSIS/Source/Driver_GPIO.c:509
        GPIO->cb_event[pin_no](ARM_GPIO_IRQ_EVENT_EXTERNAL);
800022bc:	2001      	movs	r0, #1
800022be:	4708      	bx	r1

800022c0 <GPIO12_IRQ1Handler>:
/Users/till/.cache/arm/packs/AlifSemiconductor/Ensemble/1.3.3/Alif_CMSIS/Source/Driver_GPIO.c:505
    gpio_interrupt_eoi(GPIO->reg_base, pin_no);
800022c0:	f240 00c0 	movw	r0, #192	@ 0xc0
800022c4:	f2c2 0000 	movt	r0, #8192	@ 0x2000
800022c8:	6802      	ldr	r2, [r0, #0]
/Users/till/.cache/arm/packs/AlifSemiconductor/Ensemble/1.3.3/Alif_CMSIS/Source/Driver_GPIO.c:507
    if (GPIO->cb_event[pin_no] != NULL)
800022ca:	6a01      	ldr	r1, [r0, #32]
gpio_interrupt_eoi():
/Users/till/.cache/arm/packs/AlifSemiconductor/Ensemble/1.3.3/drivers/include/gpio.h:349
    gpio->GPIO_PORTA_EOI |= (1 << pin_no);
800022cc:	6cd0      	ldr	r0, [r2, #76]	@ 0x4c
GPIO_IRQ_Handler():
/Users/till/.cache/arm/packs/AlifSemiconductor/Ensemble/1.3.3/Alif_CMSIS/Source/Driver_GPIO.c:507
800022ce:	2900      	cmp	r1, #0
gpio_interrupt_eoi():
/Users/till/.cache/arm/packs/AlifSemiconductor/Ensemble/1.3.3/drivers/include/gpio.h:349
800022d0:	f040 0002 	orr.w	r0, r0, #2
800022d4:	64d0      	str	r0, [r2, #76]	@ 0x4c
/Users/till/.cache/arm/packs/AlifSemiconductor/Ensemble/1.3.3/drivers/include/gpio.h:350
    (void) gpio->GPIO_PORTA_EOI;
800022d6:	6cd0      	ldr	r0, [r2, #76]	@ 0x4c
GPIO12_IRQ1Handler():
/Users/till/.cache/arm/packs/AlifSemiconductor/Ensemble/1.3.3/Alif_CMSIS/Source/Driver_GPIO.c:1606

void GPIO12_IRQ1Handler  (void) {   GPIO_IRQ_Handler (&GPIO12_RES, 1);    }
800022d8:	bf08      	it	eq
800022da:	4770      	bxeq	lr
GPIO_IRQ_Handler():
/Users/till/.cache/arm/packs/AlifSemiconductor/Ensemble/1.3.3/Alif_CMSIS/Source/Driver_GPIO.c:509
        GPIO->cb_event[pin_no](ARM_GPIO_IRQ_EVENT_EXTERNAL);
800022dc:	2001      	movs	r0, #1
800022de:	4708      	bx	r1

800022e0 <GPIO12_IRQ2Handler>:
/Users/till/.cache/arm/packs/AlifSemiconductor/Ensemble/1.3.3/Alif_CMSIS/Source/Driver_GPIO.c:505
    gpio_interrupt_eoi(GPIO->reg_base, pin_no);
800022e0:	f240 00c0 	movw	r0, #192	@ 0xc0
800022e4:	f2c2 0000 	movt	r0, #8192	@ 0x2000
800022e8:	6802      	ldr	r2, [r0, #0]
/Users/till/.cache/arm/packs/AlifSemiconductor/Ensemble/1.3.3/Alif_CMSIS/Source/Driver_GPIO.c:507
    if (GPIO->cb_event[pin_no] != NULL)
800022ea:	6a41      	ldr	r1, [r0, #36]	@ 0x24
gpio_interrupt_eoi():
/Users/till/.cache/arm/packs/AlifSemiconductor/Ensemble/1.3.3/drivers/include/gpio.h:349
    gpio->GPIO_PORTA_EOI |= (1 << pin_no);
800022ec:	6cd0      	ldr	r0, [r2, #76]	@ 0x4c
GPIO_IRQ_Handler():
/Users/till/.cache/arm/packs/AlifSemiconductor/Ensemble/1.3.3/Alif_CMSIS/Source/Driver_GPIO.c:507
800022ee:	2900      	cmp	r1, #0
gpio_interrupt_eoi():
/Users/till/.cache/arm/packs/AlifSemiconductor/Ensemble/1.3.3/drivers/include/gpio.h:349
800022f0:	f040 0004 	orr.w	r0, r0, #4
800022f4:	64d0      	str	r0, [r2, #76]	@ 0x4c
/Users/till/.cache/arm/packs/AlifSemiconductor/Ensemble/1.3.3/drivers/include/gpio.h:350
    (void) gpio->GPIO_PORTA_EOI;
800022f6:	6cd0      	ldr	r0, [r2, #76]	@ 0x4c
GPIO12_IRQ2Handler():
/Users/till/.cache/arm/packs/AlifSemiconductor/Ensemble/1.3.3/Alif_CMSIS/Source/Driver_GPIO.c:1608

void GPIO12_IRQ2Handler  (void) {   GPIO_IRQ_Handler (&GPIO12_RES, 2);    }
800022f8:	bf08      	it	eq
800022fa:	4770      	bxeq	lr
GPIO_IRQ_Handler():
/Users/till/.cache/arm/packs/AlifSemiconductor/Ensemble/1.3.3/Alif_CMSIS/Source/Driver_GPIO.c:509
        GPIO->cb_event[pin_no](ARM_GPIO_IRQ_EVENT_EXTERNAL);
800022fc:	2001      	movs	r0, #1
800022fe:	4708      	bx	r1

80002300 <GPIO12_IRQ3Handler>:
/Users/till/.cache/arm/packs/AlifSemiconductor/Ensemble/1.3.3/Alif_CMSIS/Source/Driver_GPIO.c:505
    gpio_interrupt_eoi(GPIO->reg_base, pin_no);
80002300:	f240 00c0 	movw	r0, #192	@ 0xc0
80002304:	f2c2 0000 	movt	r0, #8192	@ 0x2000
80002308:	6802      	ldr	r2, [r0, #0]
/Users/till/.cache/arm/packs/AlifSemiconductor/Ensemble/1.3.3/Alif_CMSIS/Source/Driver_GPIO.c:507
    if (GPIO->cb_event[pin_no] != NULL)
8000230a:	6a81      	ldr	r1, [r0, #40]	@ 0x28
gpio_interrupt_eoi():
/Users/till/.cache/arm/packs/AlifSemiconductor/Ensemble/1.3.3/drivers/include/gpio.h:349
    gpio->GPIO_PORTA_EOI |= (1 << pin_no);
8000230c:	6cd0      	ldr	r0, [r2, #76]	@ 0x4c
GPIO_IRQ_Handler():
/Users/till/.cache/arm/packs/AlifSemiconductor/Ensemble/1.3.3/Alif_CMSIS/Source/Driver_GPIO.c:507
8000230e:	2900      	cmp	r1, #0
gpio_interrupt_eoi():
/Users/till/.cache/arm/packs/AlifSemiconductor/Ensemble/1.3.3/drivers/include/gpio.h:349
80002310:	f040 0008 	orr.w	r0, r0, #8
80002314:	64d0      	str	r0, [r2, #76]	@ 0x4c
/Users/till/.cache/arm/packs/AlifSemiconductor/Ensemble/1.3.3/drivers/include/gpio.h:350
    (void) gpio->GPIO_PORTA_EOI;
80002316:	6cd0      	ldr	r0, [r2, #76]	@ 0x4c
GPIO12_IRQ3Handler():
/Users/till/.cache/arm/packs/AlifSemiconductor/Ensemble/1.3.3/Alif_CMSIS/Source/Driver_GPIO.c:1610

void GPIO12_IRQ3Handler  (void) {   GPIO_IRQ_Handler (&GPIO12_RES, 3);    }
80002318:	bf08      	it	eq
8000231a:	4770      	bxeq	lr
GPIO_IRQ_Handler():
/Users/till/.cache/arm/packs/AlifSemiconductor/Ensemble/1.3.3/Alif_CMSIS/Source/Driver_GPIO.c:509
        GPIO->cb_event[pin_no](ARM_GPIO_IRQ_EVENT_EXTERNAL);
8000231c:	2001      	movs	r0, #1
8000231e:	4708      	bx	r1

80002320 <GPIO12_IRQ4Handler>:
/Users/till/.cache/arm/packs/AlifSemiconductor/Ensemble/1.3.3/Alif_CMSIS/Source/Driver_GPIO.c:505
    gpio_interrupt_eoi(GPIO->reg_base, pin_no);
80002320:	f240 00c0 	movw	r0, #192	@ 0xc0
80002324:	f2c2 0000 	movt	r0, #8192	@ 0x2000
80002328:	6802      	ldr	r2, [r0, #0]
/Users/till/.cache/arm/packs/AlifSemiconductor/Ensemble/1.3.3/Alif_CMSIS/Source/Driver_GPIO.c:507
    if (GPIO->cb_event[pin_no] != NULL)
8000232a:	6ac1      	ldr	r1, [r0, #44]	@ 0x2c
gpio_interrupt_eoi():
/Users/till/.cache/arm/packs/AlifSemiconductor/Ensemble/1.3.3/drivers/include/gpio.h:349
    gpio->GPIO_PORTA_EOI |= (1 << pin_no);
8000232c:	6cd0      	ldr	r0, [r2, #76]	@ 0x4c
GPIO_IRQ_Handler():
/Users/till/.cache/arm/packs/AlifSemiconductor/Ensemble/1.3.3/Alif_CMSIS/Source/Driver_GPIO.c:507
8000232e:	2900      	cmp	r1, #0
gpio_interrupt_eoi():
/Users/till/.cache/arm/packs/AlifSemiconductor/Ensemble/1.3.3/drivers/include/gpio.h:349
80002330:	f040 0010 	orr.w	r0, r0, #16
80002334:	64d0      	str	r0, [r2, #76]	@ 0x4c
/Users/till/.cache/arm/packs/AlifSemiconductor/Ensemble/1.3.3/drivers/include/gpio.h:350
    (void) gpio->GPIO_PORTA_EOI;
80002336:	6cd0      	ldr	r0, [r2, #76]	@ 0x4c
GPIO12_IRQ4Handler():
/Users/till/.cache/arm/packs/AlifSemiconductor/Ensemble/1.3.3/Alif_CMSIS/Source/Driver_GPIO.c:1612

void GPIO12_IRQ4Handler  (void) {   GPIO_IRQ_Handler (&GPIO12_RES, 4);    }
80002338:	bf08      	it	eq
8000233a:	4770      	bxeq	lr
GPIO_IRQ_Handler():
/Users/till/.cache/arm/packs/AlifSemiconductor/Ensemble/1.3.3/Alif_CMSIS/Source/Driver_GPIO.c:509
        GPIO->cb_event[pin_no](ARM_GPIO_IRQ_EVENT_EXTERNAL);
8000233c:	2001      	movs	r0, #1
8000233e:	4708      	bx	r1

80002340 <GPIO12_IRQ5Handler>:
/Users/till/.cache/arm/packs/AlifSemiconductor/Ensemble/1.3.3/Alif_CMSIS/Source/Driver_GPIO.c:505
    gpio_interrupt_eoi(GPIO->reg_base, pin_no);
80002340:	f240 00c0 	movw	r0, #192	@ 0xc0
80002344:	f2c2 0000 	movt	r0, #8192	@ 0x2000
80002348:	6802      	ldr	r2, [r0, #0]
/Users/till/.cache/arm/packs/AlifSemiconductor/Ensemble/1.3.3/Alif_CMSIS/Source/Driver_GPIO.c:507
    if (GPIO->cb_event[pin_no] != NULL)
8000234a:	6b01      	ldr	r1, [r0, #48]	@ 0x30
gpio_interrupt_eoi():
/Users/till/.cache/arm/packs/AlifSemiconductor/Ensemble/1.3.3/drivers/include/gpio.h:349
    gpio->GPIO_PORTA_EOI |= (1 << pin_no);
8000234c:	6cd0      	ldr	r0, [r2, #76]	@ 0x4c
GPIO_IRQ_Handler():
/Users/till/.cache/arm/packs/AlifSemiconductor/Ensemble/1.3.3/Alif_CMSIS/Source/Driver_GPIO.c:507
8000234e:	2900      	cmp	r1, #0
gpio_interrupt_eoi():
/Users/till/.cache/arm/packs/AlifSemiconductor/Ensemble/1.3.3/drivers/include/gpio.h:349
80002350:	f040 0020 	orr.w	r0, r0, #32
80002354:	64d0      	str	r0, [r2, #76]	@ 0x4c
/Users/till/.cache/arm/packs/AlifSemiconductor/Ensemble/1.3.3/drivers/include/gpio.h:350
    (void) gpio->GPIO_PORTA_EOI;
80002356:	6cd0      	ldr	r0, [r2, #76]	@ 0x4c
GPIO12_IRQ5Handler():
/Users/till/.cache/arm/packs/AlifSemiconductor/Ensemble/1.3.3/Alif_CMSIS/Source/Driver_GPIO.c:1614

void GPIO12_IRQ5Handler  (void) {   GPIO_IRQ_Handler (&GPIO12_RES, 5);    }
80002358:	bf08      	it	eq
8000235a:	4770      	bxeq	lr
GPIO_IRQ_Handler():
/Users/till/.cache/arm/packs/AlifSemiconductor/Ensemble/1.3.3/Alif_CMSIS/Source/Driver_GPIO.c:509
        GPIO->cb_event[pin_no](ARM_GPIO_IRQ_EVENT_EXTERNAL);
8000235c:	2001      	movs	r0, #1
8000235e:	4708      	bx	r1

80002360 <GPIO12_IRQ6Handler>:
/Users/till/.cache/arm/packs/AlifSemiconductor/Ensemble/1.3.3/Alif_CMSIS/Source/Driver_GPIO.c:505
    gpio_interrupt_eoi(GPIO->reg_base, pin_no);
80002360:	f240 00c0 	movw	r0, #192	@ 0xc0
80002364:	f2c2 0000 	movt	r0, #8192	@ 0x2000
80002368:	6802      	ldr	r2, [r0, #0]
/Users/till/.cache/arm/packs/AlifSemiconductor/Ensemble/1.3.3/Alif_CMSIS/Source/Driver_GPIO.c:507
    if (GPIO->cb_event[pin_no] != NULL)
8000236a:	6b41      	ldr	r1, [r0, #52]	@ 0x34
gpio_interrupt_eoi():
/Users/till/.cache/arm/packs/AlifSemiconductor/Ensemble/1.3.3/drivers/include/gpio.h:349
    gpio->GPIO_PORTA_EOI |= (1 << pin_no);
8000236c:	6cd0      	ldr	r0, [r2, #76]	@ 0x4c
GPIO_IRQ_Handler():
/Users/till/.cache/arm/packs/AlifSemiconductor/Ensemble/1.3.3/Alif_CMSIS/Source/Driver_GPIO.c:507
8000236e:	2900      	cmp	r1, #0
gpio_interrupt_eoi():
/Users/till/.cache/arm/packs/AlifSemiconductor/Ensemble/1.3.3/drivers/include/gpio.h:349
80002370:	f040 0040 	orr.w	r0, r0, #64	@ 0x40
80002374:	64d0      	str	r0, [r2, #76]	@ 0x4c
/Users/till/.cache/arm/packs/AlifSemiconductor/Ensemble/1.3.3/drivers/include/gpio.h:350
    (void) gpio->GPIO_PORTA_EOI;
80002376:	6cd0      	ldr	r0, [r2, #76]	@ 0x4c
GPIO12_IRQ6Handler():
/Users/till/.cache/arm/packs/AlifSemiconductor/Ensemble/1.3.3/Alif_CMSIS/Source/Driver_GPIO.c:1616

void GPIO12_IRQ6Handler  (void) {   GPIO_IRQ_Handler (&GPIO12_RES, 6);    }
80002378:	bf08      	it	eq
8000237a:	4770      	bxeq	lr
GPIO_IRQ_Handler():
/Users/till/.cache/arm/packs/AlifSemiconductor/Ensemble/1.3.3/Alif_CMSIS/Source/Driver_GPIO.c:509
        GPIO->cb_event[pin_no](ARM_GPIO_IRQ_EVENT_EXTERNAL);
8000237c:	2001      	movs	r0, #1
8000237e:	4708      	bx	r1

80002380 <GPIO12_IRQ7Handler>:
/Users/till/.cache/arm/packs/AlifSemiconductor/Ensemble/1.3.3/Alif_CMSIS/Source/Driver_GPIO.c:505
    gpio_interrupt_eoi(GPIO->reg_base, pin_no);
80002380:	f240 00c0 	movw	r0, #192	@ 0xc0
80002384:	f2c2 0000 	movt	r0, #8192	@ 0x2000
80002388:	6802      	ldr	r2, [r0, #0]
/Users/till/.cache/arm/packs/AlifSemiconductor/Ensemble/1.3.3/Alif_CMSIS/Source/Driver_GPIO.c:507
    if (GPIO->cb_event[pin_no] != NULL)
8000238a:	6b81      	ldr	r1, [r0, #56]	@ 0x38
gpio_interrupt_eoi():
/Users/till/.cache/arm/packs/AlifSemiconductor/Ensemble/1.3.3/drivers/include/gpio.h:349
    gpio->GPIO_PORTA_EOI |= (1 << pin_no);
8000238c:	6cd0      	ldr	r0, [r2, #76]	@ 0x4c
GPIO_IRQ_Handler():
/Users/till/.cache/arm/packs/AlifSemiconductor/Ensemble/1.3.3/Alif_CMSIS/Source/Driver_GPIO.c:507
8000238e:	2900      	cmp	r1, #0
gpio_interrupt_eoi():
/Users/till/.cache/arm/packs/AlifSemiconductor/Ensemble/1.3.3/drivers/include/gpio.h:349
80002390:	f040 0080 	orr.w	r0, r0, #128	@ 0x80
80002394:	64d0      	str	r0, [r2, #76]	@ 0x4c
/Users/till/.cache/arm/packs/AlifSemiconductor/Ensemble/1.3.3/drivers/include/gpio.h:350
    (void) gpio->GPIO_PORTA_EOI;
80002396:	6cd0      	ldr	r0, [r2, #76]	@ 0x4c
GPIO12_IRQ7Handler():
/Users/till/.cache/arm/packs/AlifSemiconductor/Ensemble/1.3.3/Alif_CMSIS/Source/Driver_GPIO.c:1618

void GPIO12_IRQ7Handler  (void) {   GPIO_IRQ_Handler (&GPIO12_RES, 7);    }
80002398:	bf08      	it	eq
8000239a:	4770      	bxeq	lr
GPIO_IRQ_Handler():
/Users/till/.cache/arm/packs/AlifSemiconductor/Ensemble/1.3.3/Alif_CMSIS/Source/Driver_GPIO.c:509
        GPIO->cb_event[pin_no](ARM_GPIO_IRQ_EVENT_EXTERNAL);
8000239c:	2001      	movs	r0, #1
8000239e:	4708      	bx	r1

800023a0 <GPIO13_IRQ0Handler>:
/Users/till/.cache/arm/packs/AlifSemiconductor/Ensemble/1.3.3/Alif_CMSIS/Source/Driver_GPIO.c:505
    gpio_interrupt_eoi(GPIO->reg_base, pin_no);
800023a0:	f240 00fc 	movw	r0, #252	@ 0xfc
800023a4:	f2c2 0000 	movt	r0, #8192	@ 0x2000
800023a8:	6802      	ldr	r2, [r0, #0]
/Users/till/.cache/arm/packs/AlifSemiconductor/Ensemble/1.3.3/Alif_CMSIS/Source/Driver_GPIO.c:507
    if (GPIO->cb_event[pin_no] != NULL)
800023aa:	69c1      	ldr	r1, [r0, #28]
gpio_interrupt_eoi():
/Users/till/.cache/arm/packs/AlifSemiconductor/Ensemble/1.3.3/drivers/include/gpio.h:349
    gpio->GPIO_PORTA_EOI |= (1 << pin_no);
800023ac:	6cd0      	ldr	r0, [r2, #76]	@ 0x4c
GPIO_IRQ_Handler():
/Users/till/.cache/arm/packs/AlifSemiconductor/Ensemble/1.3.3/Alif_CMSIS/Source/Driver_GPIO.c:507
800023ae:	2900      	cmp	r1, #0
gpio_interrupt_eoi():
/Users/till/.cache/arm/packs/AlifSemiconductor/Ensemble/1.3.3/drivers/include/gpio.h:349
800023b0:	f040 0001 	orr.w	r0, r0, #1
800023b4:	64d0      	str	r0, [r2, #76]	@ 0x4c
/Users/till/.cache/arm/packs/AlifSemiconductor/Ensemble/1.3.3/drivers/include/gpio.h:350
    (void) gpio->GPIO_PORTA_EOI;
800023b6:	6cd0      	ldr	r0, [r2, #76]	@ 0x4c
GPIO13_IRQ0Handler():
/Users/till/.cache/arm/packs/AlifSemiconductor/Ensemble/1.3.3/Alif_CMSIS/Source/Driver_GPIO.c:1693
            RTE_GPIO13_PIN6_IRQ_PRIORITY,
            RTE_GPIO13_PIN7_IRQ_PRIORITY,
    }
};

void GPIO13_IRQ0Handler  (void) {   GPIO_IRQ_Handler (&GPIO13_RES, 0);    }
800023b8:	bf08      	it	eq
800023ba:	4770      	bxeq	lr
GPIO_IRQ_Handler():
/Users/till/.cache/arm/packs/AlifSemiconductor/Ensemble/1.3.3/Alif_CMSIS/Source/Driver_GPIO.c:509
        GPIO->cb_event[pin_no](ARM_GPIO_IRQ_EVENT_EXTERNAL);
800023bc:	2001      	movs	r0, #1
800023be:	4708      	bx	r1

800023c0 <GPIO13_IRQ1Handler>:
/Users/till/.cache/arm/packs/AlifSemiconductor/Ensemble/1.3.3/Alif_CMSIS/Source/Driver_GPIO.c:505
    gpio_interrupt_eoi(GPIO->reg_base, pin_no);
800023c0:	f240 00fc 	movw	r0, #252	@ 0xfc
800023c4:	f2c2 0000 	movt	r0, #8192	@ 0x2000
800023c8:	6802      	ldr	r2, [r0, #0]
/Users/till/.cache/arm/packs/AlifSemiconductor/Ensemble/1.3.3/Alif_CMSIS/Source/Driver_GPIO.c:507
    if (GPIO->cb_event[pin_no] != NULL)
800023ca:	6a01      	ldr	r1, [r0, #32]
gpio_interrupt_eoi():
/Users/till/.cache/arm/packs/AlifSemiconductor/Ensemble/1.3.3/drivers/include/gpio.h:349
    gpio->GPIO_PORTA_EOI |= (1 << pin_no);
800023cc:	6cd0      	ldr	r0, [r2, #76]	@ 0x4c
GPIO_IRQ_Handler():
/Users/till/.cache/arm/packs/AlifSemiconductor/Ensemble/1.3.3/Alif_CMSIS/Source/Driver_GPIO.c:507
800023ce:	2900      	cmp	r1, #0
gpio_interrupt_eoi():
/Users/till/.cache/arm/packs/AlifSemiconductor/Ensemble/1.3.3/drivers/include/gpio.h:349
800023d0:	f040 0002 	orr.w	r0, r0, #2
800023d4:	64d0      	str	r0, [r2, #76]	@ 0x4c
/Users/till/.cache/arm/packs/AlifSemiconductor/Ensemble/1.3.3/drivers/include/gpio.h:350
    (void) gpio->GPIO_PORTA_EOI;
800023d6:	6cd0      	ldr	r0, [r2, #76]	@ 0x4c
GPIO13_IRQ1Handler():
/Users/till/.cache/arm/packs/AlifSemiconductor/Ensemble/1.3.3/Alif_CMSIS/Source/Driver_GPIO.c:1695

void GPIO13_IRQ1Handler  (void) {   GPIO_IRQ_Handler (&GPIO13_RES, 1);    }
800023d8:	bf08      	it	eq
800023da:	4770      	bxeq	lr
GPIO_IRQ_Handler():
/Users/till/.cache/arm/packs/AlifSemiconductor/Ensemble/1.3.3/Alif_CMSIS/Source/Driver_GPIO.c:509
        GPIO->cb_event[pin_no](ARM_GPIO_IRQ_EVENT_EXTERNAL);
800023dc:	2001      	movs	r0, #1
800023de:	4708      	bx	r1

800023e0 <GPIO13_IRQ2Handler>:
/Users/till/.cache/arm/packs/AlifSemiconductor/Ensemble/1.3.3/Alif_CMSIS/Source/Driver_GPIO.c:505
    gpio_interrupt_eoi(GPIO->reg_base, pin_no);
800023e0:	f240 00fc 	movw	r0, #252	@ 0xfc
800023e4:	f2c2 0000 	movt	r0, #8192	@ 0x2000
800023e8:	6802      	ldr	r2, [r0, #0]
/Users/till/.cache/arm/packs/AlifSemiconductor/Ensemble/1.3.3/Alif_CMSIS/Source/Driver_GPIO.c:507
    if (GPIO->cb_event[pin_no] != NULL)
800023ea:	6a41      	ldr	r1, [r0, #36]	@ 0x24
gpio_interrupt_eoi():
/Users/till/.cache/arm/packs/AlifSemiconductor/Ensemble/1.3.3/drivers/include/gpio.h:349
    gpio->GPIO_PORTA_EOI |= (1 << pin_no);
800023ec:	6cd0      	ldr	r0, [r2, #76]	@ 0x4c
GPIO_IRQ_Handler():
/Users/till/.cache/arm/packs/AlifSemiconductor/Ensemble/1.3.3/Alif_CMSIS/Source/Driver_GPIO.c:507
800023ee:	2900      	cmp	r1, #0
gpio_interrupt_eoi():
/Users/till/.cache/arm/packs/AlifSemiconductor/Ensemble/1.3.3/drivers/include/gpio.h:349
800023f0:	f040 0004 	orr.w	r0, r0, #4
800023f4:	64d0      	str	r0, [r2, #76]	@ 0x4c
/Users/till/.cache/arm/packs/AlifSemiconductor/Ensemble/1.3.3/drivers/include/gpio.h:350
    (void) gpio->GPIO_PORTA_EOI;
800023f6:	6cd0      	ldr	r0, [r2, #76]	@ 0x4c
GPIO13_IRQ2Handler():
/Users/till/.cache/arm/packs/AlifSemiconductor/Ensemble/1.3.3/Alif_CMSIS/Source/Driver_GPIO.c:1697

void GPIO13_IRQ2Handler  (void) {   GPIO_IRQ_Handler (&GPIO13_RES, 2);    }
800023f8:	bf08      	it	eq
800023fa:	4770      	bxeq	lr
GPIO_IRQ_Handler():
/Users/till/.cache/arm/packs/AlifSemiconductor/Ensemble/1.3.3/Alif_CMSIS/Source/Driver_GPIO.c:509
        GPIO->cb_event[pin_no](ARM_GPIO_IRQ_EVENT_EXTERNAL);
800023fc:	2001      	movs	r0, #1
800023fe:	4708      	bx	r1

80002400 <GPIO13_IRQ3Handler>:
/Users/till/.cache/arm/packs/AlifSemiconductor/Ensemble/1.3.3/Alif_CMSIS/Source/Driver_GPIO.c:505
    gpio_interrupt_eoi(GPIO->reg_base, pin_no);
80002400:	f240 00fc 	movw	r0, #252	@ 0xfc
80002404:	f2c2 0000 	movt	r0, #8192	@ 0x2000
80002408:	6802      	ldr	r2, [r0, #0]
/Users/till/.cache/arm/packs/AlifSemiconductor/Ensemble/1.3.3/Alif_CMSIS/Source/Driver_GPIO.c:507
    if (GPIO->cb_event[pin_no] != NULL)
8000240a:	6a81      	ldr	r1, [r0, #40]	@ 0x28
gpio_interrupt_eoi():
/Users/till/.cache/arm/packs/AlifSemiconductor/Ensemble/1.3.3/drivers/include/gpio.h:349
    gpio->GPIO_PORTA_EOI |= (1 << pin_no);
8000240c:	6cd0      	ldr	r0, [r2, #76]	@ 0x4c
GPIO_IRQ_Handler():
/Users/till/.cache/arm/packs/AlifSemiconductor/Ensemble/1.3.3/Alif_CMSIS/Source/Driver_GPIO.c:507
8000240e:	2900      	cmp	r1, #0
gpio_interrupt_eoi():
/Users/till/.cache/arm/packs/AlifSemiconductor/Ensemble/1.3.3/drivers/include/gpio.h:349
80002410:	f040 0008 	orr.w	r0, r0, #8
80002414:	64d0      	str	r0, [r2, #76]	@ 0x4c
/Users/till/.cache/arm/packs/AlifSemiconductor/Ensemble/1.3.3/drivers/include/gpio.h:350
    (void) gpio->GPIO_PORTA_EOI;
80002416:	6cd0      	ldr	r0, [r2, #76]	@ 0x4c
GPIO13_IRQ3Handler():
/Users/till/.cache/arm/packs/AlifSemiconductor/Ensemble/1.3.3/Alif_CMSIS/Source/Driver_GPIO.c:1699

void GPIO13_IRQ3Handler  (void) {   GPIO_IRQ_Handler (&GPIO13_RES, 3);    }
80002418:	bf08      	it	eq
8000241a:	4770      	bxeq	lr
GPIO_IRQ_Handler():
/Users/till/.cache/arm/packs/AlifSemiconductor/Ensemble/1.3.3/Alif_CMSIS/Source/Driver_GPIO.c:509
        GPIO->cb_event[pin_no](ARM_GPIO_IRQ_EVENT_EXTERNAL);
8000241c:	2001      	movs	r0, #1
8000241e:	4708      	bx	r1

80002420 <GPIO13_IRQ4Handler>:
/Users/till/.cache/arm/packs/AlifSemiconductor/Ensemble/1.3.3/Alif_CMSIS/Source/Driver_GPIO.c:505
    gpio_interrupt_eoi(GPIO->reg_base, pin_no);
80002420:	f240 00fc 	movw	r0, #252	@ 0xfc
80002424:	f2c2 0000 	movt	r0, #8192	@ 0x2000
80002428:	6802      	ldr	r2, [r0, #0]
/Users/till/.cache/arm/packs/AlifSemiconductor/Ensemble/1.3.3/Alif_CMSIS/Source/Driver_GPIO.c:507
    if (GPIO->cb_event[pin_no] != NULL)
8000242a:	6ac1      	ldr	r1, [r0, #44]	@ 0x2c
gpio_interrupt_eoi():
/Users/till/.cache/arm/packs/AlifSemiconductor/Ensemble/1.3.3/drivers/include/gpio.h:349
    gpio->GPIO_PORTA_EOI |= (1 << pin_no);
8000242c:	6cd0      	ldr	r0, [r2, #76]	@ 0x4c
GPIO_IRQ_Handler():
/Users/till/.cache/arm/packs/AlifSemiconductor/Ensemble/1.3.3/Alif_CMSIS/Source/Driver_GPIO.c:507
8000242e:	2900      	cmp	r1, #0
gpio_interrupt_eoi():
/Users/till/.cache/arm/packs/AlifSemiconductor/Ensemble/1.3.3/drivers/include/gpio.h:349
80002430:	f040 0010 	orr.w	r0, r0, #16
80002434:	64d0      	str	r0, [r2, #76]	@ 0x4c
/Users/till/.cache/arm/packs/AlifSemiconductor/Ensemble/1.3.3/drivers/include/gpio.h:350
    (void) gpio->GPIO_PORTA_EOI;
80002436:	6cd0      	ldr	r0, [r2, #76]	@ 0x4c
GPIO13_IRQ4Handler():
/Users/till/.cache/arm/packs/AlifSemiconductor/Ensemble/1.3.3/Alif_CMSIS/Source/Driver_GPIO.c:1701

void GPIO13_IRQ4Handler  (void) {   GPIO_IRQ_Handler (&GPIO13_RES, 4);    }
80002438:	bf08      	it	eq
8000243a:	4770      	bxeq	lr
GPIO_IRQ_Handler():
/Users/till/.cache/arm/packs/AlifSemiconductor/Ensemble/1.3.3/Alif_CMSIS/Source/Driver_GPIO.c:509
        GPIO->cb_event[pin_no](ARM_GPIO_IRQ_EVENT_EXTERNAL);
8000243c:	2001      	movs	r0, #1
8000243e:	4708      	bx	r1

80002440 <GPIO13_IRQ5Handler>:
/Users/till/.cache/arm/packs/AlifSemiconductor/Ensemble/1.3.3/Alif_CMSIS/Source/Driver_GPIO.c:505
    gpio_interrupt_eoi(GPIO->reg_base, pin_no);
80002440:	f240 00fc 	movw	r0, #252	@ 0xfc
80002444:	f2c2 0000 	movt	r0, #8192	@ 0x2000
80002448:	6802      	ldr	r2, [r0, #0]
/Users/till/.cache/arm/packs/AlifSemiconductor/Ensemble/1.3.3/Alif_CMSIS/Source/Driver_GPIO.c:507
    if (GPIO->cb_event[pin_no] != NULL)
8000244a:	6b01      	ldr	r1, [r0, #48]	@ 0x30
gpio_interrupt_eoi():
/Users/till/.cache/arm/packs/AlifSemiconductor/Ensemble/1.3.3/drivers/include/gpio.h:349
    gpio->GPIO_PORTA_EOI |= (1 << pin_no);
8000244c:	6cd0      	ldr	r0, [r2, #76]	@ 0x4c
GPIO_IRQ_Handler():
/Users/till/.cache/arm/packs/AlifSemiconductor/Ensemble/1.3.3/Alif_CMSIS/Source/Driver_GPIO.c:507
8000244e:	2900      	cmp	r1, #0
gpio_interrupt_eoi():
/Users/till/.cache/arm/packs/AlifSemiconductor/Ensemble/1.3.3/drivers/include/gpio.h:349
80002450:	f040 0020 	orr.w	r0, r0, #32
80002454:	64d0      	str	r0, [r2, #76]	@ 0x4c
/Users/till/.cache/arm/packs/AlifSemiconductor/Ensemble/1.3.3/drivers/include/gpio.h:350
    (void) gpio->GPIO_PORTA_EOI;
80002456:	6cd0      	ldr	r0, [r2, #76]	@ 0x4c
GPIO13_IRQ5Handler():
/Users/till/.cache/arm/packs/AlifSemiconductor/Ensemble/1.3.3/Alif_CMSIS/Source/Driver_GPIO.c:1703

void GPIO13_IRQ5Handler  (void) {   GPIO_IRQ_Handler (&GPIO13_RES, 5);    }
80002458:	bf08      	it	eq
8000245a:	4770      	bxeq	lr
GPIO_IRQ_Handler():
/Users/till/.cache/arm/packs/AlifSemiconductor/Ensemble/1.3.3/Alif_CMSIS/Source/Driver_GPIO.c:509
        GPIO->cb_event[pin_no](ARM_GPIO_IRQ_EVENT_EXTERNAL);
8000245c:	2001      	movs	r0, #1
8000245e:	4708      	bx	r1

80002460 <GPIO13_IRQ6Handler>:
/Users/till/.cache/arm/packs/AlifSemiconductor/Ensemble/1.3.3/Alif_CMSIS/Source/Driver_GPIO.c:505
    gpio_interrupt_eoi(GPIO->reg_base, pin_no);
80002460:	f240 00fc 	movw	r0, #252	@ 0xfc
80002464:	f2c2 0000 	movt	r0, #8192	@ 0x2000
80002468:	6802      	ldr	r2, [r0, #0]
/Users/till/.cache/arm/packs/AlifSemiconductor/Ensemble/1.3.3/Alif_CMSIS/Source/Driver_GPIO.c:507
    if (GPIO->cb_event[pin_no] != NULL)
8000246a:	6b41      	ldr	r1, [r0, #52]	@ 0x34
gpio_interrupt_eoi():
/Users/till/.cache/arm/packs/AlifSemiconductor/Ensemble/1.3.3/drivers/include/gpio.h:349
    gpio->GPIO_PORTA_EOI |= (1 << pin_no);
8000246c:	6cd0      	ldr	r0, [r2, #76]	@ 0x4c
GPIO_IRQ_Handler():
/Users/till/.cache/arm/packs/AlifSemiconductor/Ensemble/1.3.3/Alif_CMSIS/Source/Driver_GPIO.c:507
8000246e:	2900      	cmp	r1, #0
gpio_interrupt_eoi():
/Users/till/.cache/arm/packs/AlifSemiconductor/Ensemble/1.3.3/drivers/include/gpio.h:349
80002470:	f040 0040 	orr.w	r0, r0, #64	@ 0x40
80002474:	64d0      	str	r0, [r2, #76]	@ 0x4c
/Users/till/.cache/arm/packs/AlifSemiconductor/Ensemble/1.3.3/drivers/include/gpio.h:350
    (void) gpio->GPIO_PORTA_EOI;
80002476:	6cd0      	ldr	r0, [r2, #76]	@ 0x4c
GPIO13_IRQ6Handler():
/Users/till/.cache/arm/packs/AlifSemiconductor/Ensemble/1.3.3/Alif_CMSIS/Source/Driver_GPIO.c:1705

void GPIO13_IRQ6Handler  (void) {   GPIO_IRQ_Handler (&GPIO13_RES, 6);    }
80002478:	bf08      	it	eq
8000247a:	4770      	bxeq	lr
GPIO_IRQ_Handler():
/Users/till/.cache/arm/packs/AlifSemiconductor/Ensemble/1.3.3/Alif_CMSIS/Source/Driver_GPIO.c:509
        GPIO->cb_event[pin_no](ARM_GPIO_IRQ_EVENT_EXTERNAL);
8000247c:	2001      	movs	r0, #1
8000247e:	4708      	bx	r1

80002480 <GPIO13_IRQ7Handler>:
/Users/till/.cache/arm/packs/AlifSemiconductor/Ensemble/1.3.3/Alif_CMSIS/Source/Driver_GPIO.c:505
    gpio_interrupt_eoi(GPIO->reg_base, pin_no);
80002480:	f240 00fc 	movw	r0, #252	@ 0xfc
80002484:	f2c2 0000 	movt	r0, #8192	@ 0x2000
80002488:	6802      	ldr	r2, [r0, #0]
/Users/till/.cache/arm/packs/AlifSemiconductor/Ensemble/1.3.3/Alif_CMSIS/Source/Driver_GPIO.c:507
    if (GPIO->cb_event[pin_no] != NULL)
8000248a:	6b81      	ldr	r1, [r0, #56]	@ 0x38
gpio_interrupt_eoi():
/Users/till/.cache/arm/packs/AlifSemiconductor/Ensemble/1.3.3/drivers/include/gpio.h:349
    gpio->GPIO_PORTA_EOI |= (1 << pin_no);
8000248c:	6cd0      	ldr	r0, [r2, #76]	@ 0x4c
GPIO_IRQ_Handler():
/Users/till/.cache/arm/packs/AlifSemiconductor/Ensemble/1.3.3/Alif_CMSIS/Source/Driver_GPIO.c:507
8000248e:	2900      	cmp	r1, #0
gpio_interrupt_eoi():
/Users/till/.cache/arm/packs/AlifSemiconductor/Ensemble/1.3.3/drivers/include/gpio.h:349
80002490:	f040 0080 	orr.w	r0, r0, #128	@ 0x80
80002494:	64d0      	str	r0, [r2, #76]	@ 0x4c
/Users/till/.cache/arm/packs/AlifSemiconductor/Ensemble/1.3.3/drivers/include/gpio.h:350
    (void) gpio->GPIO_PORTA_EOI;
80002496:	6cd0      	ldr	r0, [r2, #76]	@ 0x4c
GPIO13_IRQ7Handler():
/Users/till/.cache/arm/packs/AlifSemiconductor/Ensemble/1.3.3/Alif_CMSIS/Source/Driver_GPIO.c:1707

void GPIO13_IRQ7Handler  (void) {   GPIO_IRQ_Handler (&GPIO13_RES, 7);    }
80002498:	bf08      	it	eq
8000249a:	4770      	bxeq	lr
GPIO_IRQ_Handler():
/Users/till/.cache/arm/packs/AlifSemiconductor/Ensemble/1.3.3/Alif_CMSIS/Source/Driver_GPIO.c:509
        GPIO->cb_event[pin_no](ARM_GPIO_IRQ_EVENT_EXTERNAL);
8000249c:	2001      	movs	r0, #1
8000249e:	4708      	bx	r1

800024a0 <GPIO14_IRQ0Handler>:
/Users/till/.cache/arm/packs/AlifSemiconductor/Ensemble/1.3.3/Alif_CMSIS/Source/Driver_GPIO.c:505
    gpio_interrupt_eoi(GPIO->reg_base, pin_no);
800024a0:	f240 1038 	movw	r0, #312	@ 0x138
800024a4:	f2c2 0000 	movt	r0, #8192	@ 0x2000
800024a8:	6802      	ldr	r2, [r0, #0]
/Users/till/.cache/arm/packs/AlifSemiconductor/Ensemble/1.3.3/Alif_CMSIS/Source/Driver_GPIO.c:507
    if (GPIO->cb_event[pin_no] != NULL)
800024aa:	69c1      	ldr	r1, [r0, #28]
gpio_interrupt_eoi():
/Users/till/.cache/arm/packs/AlifSemiconductor/Ensemble/1.3.3/drivers/include/gpio.h:349
    gpio->GPIO_PORTA_EOI |= (1 << pin_no);
800024ac:	6cd0      	ldr	r0, [r2, #76]	@ 0x4c
GPIO_IRQ_Handler():
/Users/till/.cache/arm/packs/AlifSemiconductor/Ensemble/1.3.3/Alif_CMSIS/Source/Driver_GPIO.c:507
800024ae:	2900      	cmp	r1, #0
gpio_interrupt_eoi():
/Users/till/.cache/arm/packs/AlifSemiconductor/Ensemble/1.3.3/drivers/include/gpio.h:349
800024b0:	f040 0001 	orr.w	r0, r0, #1
800024b4:	64d0      	str	r0, [r2, #76]	@ 0x4c
/Users/till/.cache/arm/packs/AlifSemiconductor/Ensemble/1.3.3/drivers/include/gpio.h:350
    (void) gpio->GPIO_PORTA_EOI;
800024b6:	6cd0      	ldr	r0, [r2, #76]	@ 0x4c
GPIO14_IRQ0Handler():
/Users/till/.cache/arm/packs/AlifSemiconductor/Ensemble/1.3.3/Alif_CMSIS/Source/Driver_GPIO.c:1782
            RTE_GPIO14_PIN6_IRQ_PRIORITY,
            RTE_GPIO14_PIN7_IRQ_PRIORITY,
    }
};

void GPIO14_IRQ0Handler  (void) {   GPIO_IRQ_Handler (&GPIO14_RES, 0);    }
800024b8:	bf08      	it	eq
800024ba:	4770      	bxeq	lr
GPIO_IRQ_Handler():
/Users/till/.cache/arm/packs/AlifSemiconductor/Ensemble/1.3.3/Alif_CMSIS/Source/Driver_GPIO.c:509
        GPIO->cb_event[pin_no](ARM_GPIO_IRQ_EVENT_EXTERNAL);
800024bc:	2001      	movs	r0, #1
800024be:	4708      	bx	r1

800024c0 <GPIO14_IRQ1Handler>:
/Users/till/.cache/arm/packs/AlifSemiconductor/Ensemble/1.3.3/Alif_CMSIS/Source/Driver_GPIO.c:505
    gpio_interrupt_eoi(GPIO->reg_base, pin_no);
800024c0:	f240 1038 	movw	r0, #312	@ 0x138
800024c4:	f2c2 0000 	movt	r0, #8192	@ 0x2000
800024c8:	6802      	ldr	r2, [r0, #0]
/Users/till/.cache/arm/packs/AlifSemiconductor/Ensemble/1.3.3/Alif_CMSIS/Source/Driver_GPIO.c:507
    if (GPIO->cb_event[pin_no] != NULL)
800024ca:	6a01      	ldr	r1, [r0, #32]
gpio_interrupt_eoi():
/Users/till/.cache/arm/packs/AlifSemiconductor/Ensemble/1.3.3/drivers/include/gpio.h:349
    gpio->GPIO_PORTA_EOI |= (1 << pin_no);
800024cc:	6cd0      	ldr	r0, [r2, #76]	@ 0x4c
GPIO_IRQ_Handler():
/Users/till/.cache/arm/packs/AlifSemiconductor/Ensemble/1.3.3/Alif_CMSIS/Source/Driver_GPIO.c:507
800024ce:	2900      	cmp	r1, #0
gpio_interrupt_eoi():
/Users/till/.cache/arm/packs/AlifSemiconductor/Ensemble/1.3.3/drivers/include/gpio.h:349
800024d0:	f040 0002 	orr.w	r0, r0, #2
800024d4:	64d0      	str	r0, [r2, #76]	@ 0x4c
/Users/till/.cache/arm/packs/AlifSemiconductor/Ensemble/1.3.3/drivers/include/gpio.h:350
    (void) gpio->GPIO_PORTA_EOI;
800024d6:	6cd0      	ldr	r0, [r2, #76]	@ 0x4c
GPIO14_IRQ1Handler():
/Users/till/.cache/arm/packs/AlifSemiconductor/Ensemble/1.3.3/Alif_CMSIS/Source/Driver_GPIO.c:1784

void GPIO14_IRQ1Handler  (void) {   GPIO_IRQ_Handler (&GPIO14_RES, 1);    }
800024d8:	bf08      	it	eq
800024da:	4770      	bxeq	lr
GPIO_IRQ_Handler():
/Users/till/.cache/arm/packs/AlifSemiconductor/Ensemble/1.3.3/Alif_CMSIS/Source/Driver_GPIO.c:509
        GPIO->cb_event[pin_no](ARM_GPIO_IRQ_EVENT_EXTERNAL);
800024dc:	2001      	movs	r0, #1
800024de:	4708      	bx	r1

800024e0 <GPIO14_IRQ2Handler>:
/Users/till/.cache/arm/packs/AlifSemiconductor/Ensemble/1.3.3/Alif_CMSIS/Source/Driver_GPIO.c:505
    gpio_interrupt_eoi(GPIO->reg_base, pin_no);
800024e0:	f240 1038 	movw	r0, #312	@ 0x138
800024e4:	f2c2 0000 	movt	r0, #8192	@ 0x2000
800024e8:	6802      	ldr	r2, [r0, #0]
/Users/till/.cache/arm/packs/AlifSemiconductor/Ensemble/1.3.3/Alif_CMSIS/Source/Driver_GPIO.c:507
    if (GPIO->cb_event[pin_no] != NULL)
800024ea:	6a41      	ldr	r1, [r0, #36]	@ 0x24
gpio_interrupt_eoi():
/Users/till/.cache/arm/packs/AlifSemiconductor/Ensemble/1.3.3/drivers/include/gpio.h:349
    gpio->GPIO_PORTA_EOI |= (1 << pin_no);
800024ec:	6cd0      	ldr	r0, [r2, #76]	@ 0x4c
GPIO_IRQ_Handler():
/Users/till/.cache/arm/packs/AlifSemiconductor/Ensemble/1.3.3/Alif_CMSIS/Source/Driver_GPIO.c:507
800024ee:	2900      	cmp	r1, #0
gpio_interrupt_eoi():
/Users/till/.cache/arm/packs/AlifSemiconductor/Ensemble/1.3.3/drivers/include/gpio.h:349
800024f0:	f040 0004 	orr.w	r0, r0, #4
800024f4:	64d0      	str	r0, [r2, #76]	@ 0x4c
/Users/till/.cache/arm/packs/AlifSemiconductor/Ensemble/1.3.3/drivers/include/gpio.h:350
    (void) gpio->GPIO_PORTA_EOI;
800024f6:	6cd0      	ldr	r0, [r2, #76]	@ 0x4c
GPIO14_IRQ2Handler():
/Users/till/.cache/arm/packs/AlifSemiconductor/Ensemble/1.3.3/Alif_CMSIS/Source/Driver_GPIO.c:1786

void GPIO14_IRQ2Handler  (void) {   GPIO_IRQ_Handler (&GPIO14_RES, 2);    }
800024f8:	bf08      	it	eq
800024fa:	4770      	bxeq	lr
GPIO_IRQ_Handler():
/Users/till/.cache/arm/packs/AlifSemiconductor/Ensemble/1.3.3/Alif_CMSIS/Source/Driver_GPIO.c:509
        GPIO->cb_event[pin_no](ARM_GPIO_IRQ_EVENT_EXTERNAL);
800024fc:	2001      	movs	r0, #1
800024fe:	4708      	bx	r1

80002500 <GPIO14_IRQ3Handler>:
/Users/till/.cache/arm/packs/AlifSemiconductor/Ensemble/1.3.3/Alif_CMSIS/Source/Driver_GPIO.c:505
    gpio_interrupt_eoi(GPIO->reg_base, pin_no);
80002500:	f240 1038 	movw	r0, #312	@ 0x138
80002504:	f2c2 0000 	movt	r0, #8192	@ 0x2000
80002508:	6802      	ldr	r2, [r0, #0]
/Users/till/.cache/arm/packs/AlifSemiconductor/Ensemble/1.3.3/Alif_CMSIS/Source/Driver_GPIO.c:507
    if (GPIO->cb_event[pin_no] != NULL)
8000250a:	6a81      	ldr	r1, [r0, #40]	@ 0x28
gpio_interrupt_eoi():
/Users/till/.cache/arm/packs/AlifSemiconductor/Ensemble/1.3.3/drivers/include/gpio.h:349
    gpio->GPIO_PORTA_EOI |= (1 << pin_no);
8000250c:	6cd0      	ldr	r0, [r2, #76]	@ 0x4c
GPIO_IRQ_Handler():
/Users/till/.cache/arm/packs/AlifSemiconductor/Ensemble/1.3.3/Alif_CMSIS/Source/Driver_GPIO.c:507
8000250e:	2900      	cmp	r1, #0
gpio_interrupt_eoi():
/Users/till/.cache/arm/packs/AlifSemiconductor/Ensemble/1.3.3/drivers/include/gpio.h:349
80002510:	f040 0008 	orr.w	r0, r0, #8
80002514:	64d0      	str	r0, [r2, #76]	@ 0x4c
/Users/till/.cache/arm/packs/AlifSemiconductor/Ensemble/1.3.3/drivers/include/gpio.h:350
    (void) gpio->GPIO_PORTA_EOI;
80002516:	6cd0      	ldr	r0, [r2, #76]	@ 0x4c
GPIO14_IRQ3Handler():
/Users/till/.cache/arm/packs/AlifSemiconductor/Ensemble/1.3.3/Alif_CMSIS/Source/Driver_GPIO.c:1788

void GPIO14_IRQ3Handler  (void) {   GPIO_IRQ_Handler (&GPIO14_RES, 3);    }
80002518:	bf08      	it	eq
8000251a:	4770      	bxeq	lr
GPIO_IRQ_Handler():
/Users/till/.cache/arm/packs/AlifSemiconductor/Ensemble/1.3.3/Alif_CMSIS/Source/Driver_GPIO.c:509
        GPIO->cb_event[pin_no](ARM_GPIO_IRQ_EVENT_EXTERNAL);
8000251c:	2001      	movs	r0, #1
8000251e:	4708      	bx	r1

80002520 <GPIO14_IRQ4Handler>:
/Users/till/.cache/arm/packs/AlifSemiconductor/Ensemble/1.3.3/Alif_CMSIS/Source/Driver_GPIO.c:505
    gpio_interrupt_eoi(GPIO->reg_base, pin_no);
80002520:	f240 1038 	movw	r0, #312	@ 0x138
80002524:	f2c2 0000 	movt	r0, #8192	@ 0x2000
80002528:	6802      	ldr	r2, [r0, #0]
/Users/till/.cache/arm/packs/AlifSemiconductor/Ensemble/1.3.3/Alif_CMSIS/Source/Driver_GPIO.c:507
    if (GPIO->cb_event[pin_no] != NULL)
8000252a:	6ac1      	ldr	r1, [r0, #44]	@ 0x2c
gpio_interrupt_eoi():
/Users/till/.cache/arm/packs/AlifSemiconductor/Ensemble/1.3.3/drivers/include/gpio.h:349
    gpio->GPIO_PORTA_EOI |= (1 << pin_no);
8000252c:	6cd0      	ldr	r0, [r2, #76]	@ 0x4c
GPIO_IRQ_Handler():
/Users/till/.cache/arm/packs/AlifSemiconductor/Ensemble/1.3.3/Alif_CMSIS/Source/Driver_GPIO.c:507
8000252e:	2900      	cmp	r1, #0
gpio_interrupt_eoi():
/Users/till/.cache/arm/packs/AlifSemiconductor/Ensemble/1.3.3/drivers/include/gpio.h:349
80002530:	f040 0010 	orr.w	r0, r0, #16
80002534:	64d0      	str	r0, [r2, #76]	@ 0x4c
/Users/till/.cache/arm/packs/AlifSemiconductor/Ensemble/1.3.3/drivers/include/gpio.h:350
    (void) gpio->GPIO_PORTA_EOI;
80002536:	6cd0      	ldr	r0, [r2, #76]	@ 0x4c
GPIO14_IRQ4Handler():
/Users/till/.cache/arm/packs/AlifSemiconductor/Ensemble/1.3.3/Alif_CMSIS/Source/Driver_GPIO.c:1790

void GPIO14_IRQ4Handler  (void) {   GPIO_IRQ_Handler (&GPIO14_RES, 4);    }
80002538:	bf08      	it	eq
8000253a:	4770      	bxeq	lr
GPIO_IRQ_Handler():
/Users/till/.cache/arm/packs/AlifSemiconductor/Ensemble/1.3.3/Alif_CMSIS/Source/Driver_GPIO.c:509
        GPIO->cb_event[pin_no](ARM_GPIO_IRQ_EVENT_EXTERNAL);
8000253c:	2001      	movs	r0, #1
8000253e:	4708      	bx	r1

80002540 <GPIO14_IRQ5Handler>:
/Users/till/.cache/arm/packs/AlifSemiconductor/Ensemble/1.3.3/Alif_CMSIS/Source/Driver_GPIO.c:505
    gpio_interrupt_eoi(GPIO->reg_base, pin_no);
80002540:	f240 1038 	movw	r0, #312	@ 0x138
80002544:	f2c2 0000 	movt	r0, #8192	@ 0x2000
80002548:	6802      	ldr	r2, [r0, #0]
/Users/till/.cache/arm/packs/AlifSemiconductor/Ensemble/1.3.3/Alif_CMSIS/Source/Driver_GPIO.c:507
    if (GPIO->cb_event[pin_no] != NULL)
8000254a:	6b01      	ldr	r1, [r0, #48]	@ 0x30
gpio_interrupt_eoi():
/Users/till/.cache/arm/packs/AlifSemiconductor/Ensemble/1.3.3/drivers/include/gpio.h:349
    gpio->GPIO_PORTA_EOI |= (1 << pin_no);
8000254c:	6cd0      	ldr	r0, [r2, #76]	@ 0x4c
GPIO_IRQ_Handler():
/Users/till/.cache/arm/packs/AlifSemiconductor/Ensemble/1.3.3/Alif_CMSIS/Source/Driver_GPIO.c:507
8000254e:	2900      	cmp	r1, #0
gpio_interrupt_eoi():
/Users/till/.cache/arm/packs/AlifSemiconductor/Ensemble/1.3.3/drivers/include/gpio.h:349
80002550:	f040 0020 	orr.w	r0, r0, #32
80002554:	64d0      	str	r0, [r2, #76]	@ 0x4c
/Users/till/.cache/arm/packs/AlifSemiconductor/Ensemble/1.3.3/drivers/include/gpio.h:350
    (void) gpio->GPIO_PORTA_EOI;
80002556:	6cd0      	ldr	r0, [r2, #76]	@ 0x4c
GPIO14_IRQ5Handler():
/Users/till/.cache/arm/packs/AlifSemiconductor/Ensemble/1.3.3/Alif_CMSIS/Source/Driver_GPIO.c:1792

void GPIO14_IRQ5Handler  (void) {   GPIO_IRQ_Handler (&GPIO14_RES, 5);    }
80002558:	bf08      	it	eq
8000255a:	4770      	bxeq	lr
GPIO_IRQ_Handler():
/Users/till/.cache/arm/packs/AlifSemiconductor/Ensemble/1.3.3/Alif_CMSIS/Source/Driver_GPIO.c:509
        GPIO->cb_event[pin_no](ARM_GPIO_IRQ_EVENT_EXTERNAL);
8000255c:	2001      	movs	r0, #1
8000255e:	4708      	bx	r1

80002560 <GPIO14_IRQ6Handler>:
/Users/till/.cache/arm/packs/AlifSemiconductor/Ensemble/1.3.3/Alif_CMSIS/Source/Driver_GPIO.c:505
    gpio_interrupt_eoi(GPIO->reg_base, pin_no);
80002560:	f240 1038 	movw	r0, #312	@ 0x138
80002564:	f2c2 0000 	movt	r0, #8192	@ 0x2000
80002568:	6802      	ldr	r2, [r0, #0]
/Users/till/.cache/arm/packs/AlifSemiconductor/Ensemble/1.3.3/Alif_CMSIS/Source/Driver_GPIO.c:507
    if (GPIO->cb_event[pin_no] != NULL)
8000256a:	6b41      	ldr	r1, [r0, #52]	@ 0x34
gpio_interrupt_eoi():
/Users/till/.cache/arm/packs/AlifSemiconductor/Ensemble/1.3.3/drivers/include/gpio.h:349
    gpio->GPIO_PORTA_EOI |= (1 << pin_no);
8000256c:	6cd0      	ldr	r0, [r2, #76]	@ 0x4c
GPIO_IRQ_Handler():
/Users/till/.cache/arm/packs/AlifSemiconductor/Ensemble/1.3.3/Alif_CMSIS/Source/Driver_GPIO.c:507
8000256e:	2900      	cmp	r1, #0
gpio_interrupt_eoi():
/Users/till/.cache/arm/packs/AlifSemiconductor/Ensemble/1.3.3/drivers/include/gpio.h:349
80002570:	f040 0040 	orr.w	r0, r0, #64	@ 0x40
80002574:	64d0      	str	r0, [r2, #76]	@ 0x4c
/Users/till/.cache/arm/packs/AlifSemiconductor/Ensemble/1.3.3/drivers/include/gpio.h:350
    (void) gpio->GPIO_PORTA_EOI;
80002576:	6cd0      	ldr	r0, [r2, #76]	@ 0x4c
GPIO14_IRQ6Handler():
/Users/till/.cache/arm/packs/AlifSemiconductor/Ensemble/1.3.3/Alif_CMSIS/Source/Driver_GPIO.c:1794

void GPIO14_IRQ6Handler  (void) {   GPIO_IRQ_Handler (&GPIO14_RES, 6);    }
80002578:	bf08      	it	eq
8000257a:	4770      	bxeq	lr
GPIO_IRQ_Handler():
/Users/till/.cache/arm/packs/AlifSemiconductor/Ensemble/1.3.3/Alif_CMSIS/Source/Driver_GPIO.c:509
        GPIO->cb_event[pin_no](ARM_GPIO_IRQ_EVENT_EXTERNAL);
8000257c:	2001      	movs	r0, #1
8000257e:	4708      	bx	r1

80002580 <GPIO14_IRQ7Handler>:
/Users/till/.cache/arm/packs/AlifSemiconductor/Ensemble/1.3.3/Alif_CMSIS/Source/Driver_GPIO.c:505
    gpio_interrupt_eoi(GPIO->reg_base, pin_no);
80002580:	f240 1038 	movw	r0, #312	@ 0x138
80002584:	f2c2 0000 	movt	r0, #8192	@ 0x2000
80002588:	6802      	ldr	r2, [r0, #0]
/Users/till/.cache/arm/packs/AlifSemiconductor/Ensemble/1.3.3/Alif_CMSIS/Source/Driver_GPIO.c:507
    if (GPIO->cb_event[pin_no] != NULL)
8000258a:	6b81      	ldr	r1, [r0, #56]	@ 0x38
gpio_interrupt_eoi():
/Users/till/.cache/arm/packs/AlifSemiconductor/Ensemble/1.3.3/drivers/include/gpio.h:349
    gpio->GPIO_PORTA_EOI |= (1 << pin_no);
8000258c:	6cd0      	ldr	r0, [r2, #76]	@ 0x4c
GPIO_IRQ_Handler():
/Users/till/.cache/arm/packs/AlifSemiconductor/Ensemble/1.3.3/Alif_CMSIS/Source/Driver_GPIO.c:507
8000258e:	2900      	cmp	r1, #0
gpio_interrupt_eoi():
/Users/till/.cache/arm/packs/AlifSemiconductor/Ensemble/1.3.3/drivers/include/gpio.h:349
80002590:	f040 0080 	orr.w	r0, r0, #128	@ 0x80
80002594:	64d0      	str	r0, [r2, #76]	@ 0x4c
/Users/till/.cache/arm/packs/AlifSemiconductor/Ensemble/1.3.3/drivers/include/gpio.h:350
    (void) gpio->GPIO_PORTA_EOI;
80002596:	6cd0      	ldr	r0, [r2, #76]	@ 0x4c
GPIO14_IRQ7Handler():
/Users/till/.cache/arm/packs/AlifSemiconductor/Ensemble/1.3.3/Alif_CMSIS/Source/Driver_GPIO.c:1796

void GPIO14_IRQ7Handler  (void) {   GPIO_IRQ_Handler (&GPIO14_RES, 7);    }
80002598:	bf08      	it	eq
8000259a:	4770      	bxeq	lr
GPIO_IRQ_Handler():
/Users/till/.cache/arm/packs/AlifSemiconductor/Ensemble/1.3.3/Alif_CMSIS/Source/Driver_GPIO.c:509
        GPIO->cb_event[pin_no](ARM_GPIO_IRQ_EVENT_EXTERNAL);
8000259c:	2001      	movs	r0, #1
8000259e:	4708      	bx	r1

800025a0 <GPIO1_IRQ0Handler>:
/Users/till/.cache/arm/packs/AlifSemiconductor/Ensemble/1.3.3/Alif_CMSIS/Source/Driver_GPIO.c:505
    gpio_interrupt_eoi(GPIO->reg_base, pin_no);
800025a0:	f240 1074 	movw	r0, #372	@ 0x174
800025a4:	f2c2 0000 	movt	r0, #8192	@ 0x2000
800025a8:	6802      	ldr	r2, [r0, #0]
/Users/till/.cache/arm/packs/AlifSemiconductor/Ensemble/1.3.3/Alif_CMSIS/Source/Driver_GPIO.c:507
    if (GPIO->cb_event[pin_no] != NULL)
800025aa:	69c1      	ldr	r1, [r0, #28]
gpio_interrupt_eoi():
/Users/till/.cache/arm/packs/AlifSemiconductor/Ensemble/1.3.3/drivers/include/gpio.h:349
    gpio->GPIO_PORTA_EOI |= (1 << pin_no);
800025ac:	6cd0      	ldr	r0, [r2, #76]	@ 0x4c
GPIO_IRQ_Handler():
/Users/till/.cache/arm/packs/AlifSemiconductor/Ensemble/1.3.3/Alif_CMSIS/Source/Driver_GPIO.c:507
800025ae:	2900      	cmp	r1, #0
gpio_interrupt_eoi():
/Users/till/.cache/arm/packs/AlifSemiconductor/Ensemble/1.3.3/drivers/include/gpio.h:349
800025b0:	f040 0001 	orr.w	r0, r0, #1
800025b4:	64d0      	str	r0, [r2, #76]	@ 0x4c
/Users/till/.cache/arm/packs/AlifSemiconductor/Ensemble/1.3.3/drivers/include/gpio.h:350
    (void) gpio->GPIO_PORTA_EOI;
800025b6:	6cd0      	ldr	r0, [r2, #76]	@ 0x4c
GPIO1_IRQ0Handler():
/Users/till/.cache/arm/packs/AlifSemiconductor/Ensemble/1.3.3/Alif_CMSIS/Source/Driver_GPIO.c:622
void GPIO1_IRQ0Handler  (void) {   GPIO_IRQ_Handler (&GPIO1_RES, 0);    }
800025b8:	bf08      	it	eq
800025ba:	4770      	bxeq	lr
GPIO_IRQ_Handler():
/Users/till/.cache/arm/packs/AlifSemiconductor/Ensemble/1.3.3/Alif_CMSIS/Source/Driver_GPIO.c:509
        GPIO->cb_event[pin_no](ARM_GPIO_IRQ_EVENT_EXTERNAL);
800025bc:	2001      	movs	r0, #1
800025be:	4708      	bx	r1

800025c0 <GPIO1_IRQ1Handler>:
/Users/till/.cache/arm/packs/AlifSemiconductor/Ensemble/1.3.3/Alif_CMSIS/Source/Driver_GPIO.c:505
    gpio_interrupt_eoi(GPIO->reg_base, pin_no);
800025c0:	f240 1074 	movw	r0, #372	@ 0x174
800025c4:	f2c2 0000 	movt	r0, #8192	@ 0x2000
800025c8:	6802      	ldr	r2, [r0, #0]
/Users/till/.cache/arm/packs/AlifSemiconductor/Ensemble/1.3.3/Alif_CMSIS/Source/Driver_GPIO.c:507
    if (GPIO->cb_event[pin_no] != NULL)
800025ca:	6a01      	ldr	r1, [r0, #32]
gpio_interrupt_eoi():
/Users/till/.cache/arm/packs/AlifSemiconductor/Ensemble/1.3.3/drivers/include/gpio.h:349
    gpio->GPIO_PORTA_EOI |= (1 << pin_no);
800025cc:	6cd0      	ldr	r0, [r2, #76]	@ 0x4c
GPIO_IRQ_Handler():
/Users/till/.cache/arm/packs/AlifSemiconductor/Ensemble/1.3.3/Alif_CMSIS/Source/Driver_GPIO.c:507
800025ce:	2900      	cmp	r1, #0
gpio_interrupt_eoi():
/Users/till/.cache/arm/packs/AlifSemiconductor/Ensemble/1.3.3/drivers/include/gpio.h:349
800025d0:	f040 0002 	orr.w	r0, r0, #2
800025d4:	64d0      	str	r0, [r2, #76]	@ 0x4c
/Users/till/.cache/arm/packs/AlifSemiconductor/Ensemble/1.3.3/drivers/include/gpio.h:350
    (void) gpio->GPIO_PORTA_EOI;
800025d6:	6cd0      	ldr	r0, [r2, #76]	@ 0x4c
GPIO1_IRQ1Handler():
/Users/till/.cache/arm/packs/AlifSemiconductor/Ensemble/1.3.3/Alif_CMSIS/Source/Driver_GPIO.c:624
void GPIO1_IRQ1Handler  (void) {   GPIO_IRQ_Handler (&GPIO1_RES, 1);    }
800025d8:	bf08      	it	eq
800025da:	4770      	bxeq	lr
GPIO_IRQ_Handler():
/Users/till/.cache/arm/packs/AlifSemiconductor/Ensemble/1.3.3/Alif_CMSIS/Source/Driver_GPIO.c:509
        GPIO->cb_event[pin_no](ARM_GPIO_IRQ_EVENT_EXTERNAL);
800025dc:	2001      	movs	r0, #1
800025de:	4708      	bx	r1

800025e0 <GPIO1_IRQ2Handler>:
/Users/till/.cache/arm/packs/AlifSemiconductor/Ensemble/1.3.3/Alif_CMSIS/Source/Driver_GPIO.c:505
    gpio_interrupt_eoi(GPIO->reg_base, pin_no);
800025e0:	f240 1074 	movw	r0, #372	@ 0x174
800025e4:	f2c2 0000 	movt	r0, #8192	@ 0x2000
800025e8:	6802      	ldr	r2, [r0, #0]
/Users/till/.cache/arm/packs/AlifSemiconductor/Ensemble/1.3.3/Alif_CMSIS/Source/Driver_GPIO.c:507
    if (GPIO->cb_event[pin_no] != NULL)
800025ea:	6a41      	ldr	r1, [r0, #36]	@ 0x24
gpio_interrupt_eoi():
/Users/till/.cache/arm/packs/AlifSemiconductor/Ensemble/1.3.3/drivers/include/gpio.h:349
    gpio->GPIO_PORTA_EOI |= (1 << pin_no);
800025ec:	6cd0      	ldr	r0, [r2, #76]	@ 0x4c
GPIO_IRQ_Handler():
/Users/till/.cache/arm/packs/AlifSemiconductor/Ensemble/1.3.3/Alif_CMSIS/Source/Driver_GPIO.c:507
800025ee:	2900      	cmp	r1, #0
gpio_interrupt_eoi():
/Users/till/.cache/arm/packs/AlifSemiconductor/Ensemble/1.3.3/drivers/include/gpio.h:349
800025f0:	f040 0004 	orr.w	r0, r0, #4
800025f4:	64d0      	str	r0, [r2, #76]	@ 0x4c
/Users/till/.cache/arm/packs/AlifSemiconductor/Ensemble/1.3.3/drivers/include/gpio.h:350
    (void) gpio->GPIO_PORTA_EOI;
800025f6:	6cd0      	ldr	r0, [r2, #76]	@ 0x4c
GPIO1_IRQ2Handler():
/Users/till/.cache/arm/packs/AlifSemiconductor/Ensemble/1.3.3/Alif_CMSIS/Source/Driver_GPIO.c:626
void GPIO1_IRQ2Handler  (void) {   GPIO_IRQ_Handler (&GPIO1_RES, 2);    }
800025f8:	bf08      	it	eq
800025fa:	4770      	bxeq	lr
GPIO_IRQ_Handler():
/Users/till/.cache/arm/packs/AlifSemiconductor/Ensemble/1.3.3/Alif_CMSIS/Source/Driver_GPIO.c:509
        GPIO->cb_event[pin_no](ARM_GPIO_IRQ_EVENT_EXTERNAL);
800025fc:	2001      	movs	r0, #1
800025fe:	4708      	bx	r1

80002600 <GPIO1_IRQ3Handler>:
/Users/till/.cache/arm/packs/AlifSemiconductor/Ensemble/1.3.3/Alif_CMSIS/Source/Driver_GPIO.c:505
    gpio_interrupt_eoi(GPIO->reg_base, pin_no);
80002600:	f240 1074 	movw	r0, #372	@ 0x174
80002604:	f2c2 0000 	movt	r0, #8192	@ 0x2000
80002608:	6802      	ldr	r2, [r0, #0]
/Users/till/.cache/arm/packs/AlifSemiconductor/Ensemble/1.3.3/Alif_CMSIS/Source/Driver_GPIO.c:507
    if (GPIO->cb_event[pin_no] != NULL)
8000260a:	6a81      	ldr	r1, [r0, #40]	@ 0x28
gpio_interrupt_eoi():
/Users/till/.cache/arm/packs/AlifSemiconductor/Ensemble/1.3.3/drivers/include/gpio.h:349
    gpio->GPIO_PORTA_EOI |= (1 << pin_no);
8000260c:	6cd0      	ldr	r0, [r2, #76]	@ 0x4c
GPIO_IRQ_Handler():
/Users/till/.cache/arm/packs/AlifSemiconductor/Ensemble/1.3.3/Alif_CMSIS/Source/Driver_GPIO.c:507
8000260e:	2900      	cmp	r1, #0
gpio_interrupt_eoi():
/Users/till/.cache/arm/packs/AlifSemiconductor/Ensemble/1.3.3/drivers/include/gpio.h:349
80002610:	f040 0008 	orr.w	r0, r0, #8
80002614:	64d0      	str	r0, [r2, #76]	@ 0x4c
/Users/till/.cache/arm/packs/AlifSemiconductor/Ensemble/1.3.3/drivers/include/gpio.h:350
    (void) gpio->GPIO_PORTA_EOI;
80002616:	6cd0      	ldr	r0, [r2, #76]	@ 0x4c
GPIO1_IRQ3Handler():
/Users/till/.cache/arm/packs/AlifSemiconductor/Ensemble/1.3.3/Alif_CMSIS/Source/Driver_GPIO.c:628
void GPIO1_IRQ3Handler  (void) {   GPIO_IRQ_Handler (&GPIO1_RES, 3);    }
80002618:	bf08      	it	eq
8000261a:	4770      	bxeq	lr
GPIO_IRQ_Handler():
/Users/till/.cache/arm/packs/AlifSemiconductor/Ensemble/1.3.3/Alif_CMSIS/Source/Driver_GPIO.c:509
        GPIO->cb_event[pin_no](ARM_GPIO_IRQ_EVENT_EXTERNAL);
8000261c:	2001      	movs	r0, #1
8000261e:	4708      	bx	r1

80002620 <GPIO1_IRQ4Handler>:
/Users/till/.cache/arm/packs/AlifSemiconductor/Ensemble/1.3.3/Alif_CMSIS/Source/Driver_GPIO.c:505
    gpio_interrupt_eoi(GPIO->reg_base, pin_no);
80002620:	f240 1074 	movw	r0, #372	@ 0x174
80002624:	f2c2 0000 	movt	r0, #8192	@ 0x2000
80002628:	6802      	ldr	r2, [r0, #0]
/Users/till/.cache/arm/packs/AlifSemiconductor/Ensemble/1.3.3/Alif_CMSIS/Source/Driver_GPIO.c:507
    if (GPIO->cb_event[pin_no] != NULL)
8000262a:	6ac1      	ldr	r1, [r0, #44]	@ 0x2c
gpio_interrupt_eoi():
/Users/till/.cache/arm/packs/AlifSemiconductor/Ensemble/1.3.3/drivers/include/gpio.h:349
    gpio->GPIO_PORTA_EOI |= (1 << pin_no);
8000262c:	6cd0      	ldr	r0, [r2, #76]	@ 0x4c
GPIO_IRQ_Handler():
/Users/till/.cache/arm/packs/AlifSemiconductor/Ensemble/1.3.3/Alif_CMSIS/Source/Driver_GPIO.c:507
8000262e:	2900      	cmp	r1, #0
gpio_interrupt_eoi():
/Users/till/.cache/arm/packs/AlifSemiconductor/Ensemble/1.3.3/drivers/include/gpio.h:349
80002630:	f040 0010 	orr.w	r0, r0, #16
80002634:	64d0      	str	r0, [r2, #76]	@ 0x4c
/Users/till/.cache/arm/packs/AlifSemiconductor/Ensemble/1.3.3/drivers/include/gpio.h:350
    (void) gpio->GPIO_PORTA_EOI;
80002636:	6cd0      	ldr	r0, [r2, #76]	@ 0x4c
GPIO1_IRQ4Handler():
/Users/till/.cache/arm/packs/AlifSemiconductor/Ensemble/1.3.3/Alif_CMSIS/Source/Driver_GPIO.c:630
void GPIO1_IRQ4Handler  (void) {   GPIO_IRQ_Handler (&GPIO1_RES, 4);    }
80002638:	bf08      	it	eq
8000263a:	4770      	bxeq	lr
GPIO_IRQ_Handler():
/Users/till/.cache/arm/packs/AlifSemiconductor/Ensemble/1.3.3/Alif_CMSIS/Source/Driver_GPIO.c:509
        GPIO->cb_event[pin_no](ARM_GPIO_IRQ_EVENT_EXTERNAL);
8000263c:	2001      	movs	r0, #1
8000263e:	4708      	bx	r1

80002640 <GPIO1_IRQ5Handler>:
/Users/till/.cache/arm/packs/AlifSemiconductor/Ensemble/1.3.3/Alif_CMSIS/Source/Driver_GPIO.c:505
    gpio_interrupt_eoi(GPIO->reg_base, pin_no);
80002640:	f240 1074 	movw	r0, #372	@ 0x174
80002644:	f2c2 0000 	movt	r0, #8192	@ 0x2000
80002648:	6802      	ldr	r2, [r0, #0]
/Users/till/.cache/arm/packs/AlifSemiconductor/Ensemble/1.3.3/Alif_CMSIS/Source/Driver_GPIO.c:507
    if (GPIO->cb_event[pin_no] != NULL)
8000264a:	6b01      	ldr	r1, [r0, #48]	@ 0x30
gpio_interrupt_eoi():
/Users/till/.cache/arm/packs/AlifSemiconductor/Ensemble/1.3.3/drivers/include/gpio.h:349
    gpio->GPIO_PORTA_EOI |= (1 << pin_no);
8000264c:	6cd0      	ldr	r0, [r2, #76]	@ 0x4c
GPIO_IRQ_Handler():
/Users/till/.cache/arm/packs/AlifSemiconductor/Ensemble/1.3.3/Alif_CMSIS/Source/Driver_GPIO.c:507
8000264e:	2900      	cmp	r1, #0
gpio_interrupt_eoi():
/Users/till/.cache/arm/packs/AlifSemiconductor/Ensemble/1.3.3/drivers/include/gpio.h:349
80002650:	f040 0020 	orr.w	r0, r0, #32
80002654:	64d0      	str	r0, [r2, #76]	@ 0x4c
/Users/till/.cache/arm/packs/AlifSemiconductor/Ensemble/1.3.3/drivers/include/gpio.h:350
    (void) gpio->GPIO_PORTA_EOI;
80002656:	6cd0      	ldr	r0, [r2, #76]	@ 0x4c
GPIO1_IRQ5Handler():
/Users/till/.cache/arm/packs/AlifSemiconductor/Ensemble/1.3.3/Alif_CMSIS/Source/Driver_GPIO.c:632
void GPIO1_IRQ5Handler  (void) {   GPIO_IRQ_Handler (&GPIO1_RES, 5);    }
80002658:	bf08      	it	eq
8000265a:	4770      	bxeq	lr
GPIO_IRQ_Handler():
/Users/till/.cache/arm/packs/AlifSemiconductor/Ensemble/1.3.3/Alif_CMSIS/Source/Driver_GPIO.c:509
        GPIO->cb_event[pin_no](ARM_GPIO_IRQ_EVENT_EXTERNAL);
8000265c:	2001      	movs	r0, #1
8000265e:	4708      	bx	r1

80002660 <GPIO1_IRQ6Handler>:
/Users/till/.cache/arm/packs/AlifSemiconductor/Ensemble/1.3.3/Alif_CMSIS/Source/Driver_GPIO.c:505
    gpio_interrupt_eoi(GPIO->reg_base, pin_no);
80002660:	f240 1074 	movw	r0, #372	@ 0x174
80002664:	f2c2 0000 	movt	r0, #8192	@ 0x2000
80002668:	6802      	ldr	r2, [r0, #0]
/Users/till/.cache/arm/packs/AlifSemiconductor/Ensemble/1.3.3/Alif_CMSIS/Source/Driver_GPIO.c:507
    if (GPIO->cb_event[pin_no] != NULL)
8000266a:	6b41      	ldr	r1, [r0, #52]	@ 0x34
gpio_interrupt_eoi():
/Users/till/.cache/arm/packs/AlifSemiconductor/Ensemble/1.3.3/drivers/include/gpio.h:349
    gpio->GPIO_PORTA_EOI |= (1 << pin_no);
8000266c:	6cd0      	ldr	r0, [r2, #76]	@ 0x4c
GPIO_IRQ_Handler():
/Users/till/.cache/arm/packs/AlifSemiconductor/Ensemble/1.3.3/Alif_CMSIS/Source/Driver_GPIO.c:507
8000266e:	2900      	cmp	r1, #0
gpio_interrupt_eoi():
/Users/till/.cache/arm/packs/AlifSemiconductor/Ensemble/1.3.3/drivers/include/gpio.h:349
80002670:	f040 0040 	orr.w	r0, r0, #64	@ 0x40
80002674:	64d0      	str	r0, [r2, #76]	@ 0x4c
/Users/till/.cache/arm/packs/AlifSemiconductor/Ensemble/1.3.3/drivers/include/gpio.h:350
    (void) gpio->GPIO_PORTA_EOI;
80002676:	6cd0      	ldr	r0, [r2, #76]	@ 0x4c
GPIO1_IRQ6Handler():
/Users/till/.cache/arm/packs/AlifSemiconductor/Ensemble/1.3.3/Alif_CMSIS/Source/Driver_GPIO.c:634
void GPIO1_IRQ6Handler  (void) {   GPIO_IRQ_Handler (&GPIO1_RES, 6);    }
80002678:	bf08      	it	eq
8000267a:	4770      	bxeq	lr
GPIO_IRQ_Handler():
/Users/till/.cache/arm/packs/AlifSemiconductor/Ensemble/1.3.3/Alif_CMSIS/Source/Driver_GPIO.c:509
        GPIO->cb_event[pin_no](ARM_GPIO_IRQ_EVENT_EXTERNAL);
8000267c:	2001      	movs	r0, #1
8000267e:	4708      	bx	r1

80002680 <GPIO1_IRQ7Handler>:
/Users/till/.cache/arm/packs/AlifSemiconductor/Ensemble/1.3.3/Alif_CMSIS/Source/Driver_GPIO.c:505
    gpio_interrupt_eoi(GPIO->reg_base, pin_no);
80002680:	f240 1074 	movw	r0, #372	@ 0x174
80002684:	f2c2 0000 	movt	r0, #8192	@ 0x2000
80002688:	6802      	ldr	r2, [r0, #0]
/Users/till/.cache/arm/packs/AlifSemiconductor/Ensemble/1.3.3/Alif_CMSIS/Source/Driver_GPIO.c:507
    if (GPIO->cb_event[pin_no] != NULL)
8000268a:	6b81      	ldr	r1, [r0, #56]	@ 0x38
gpio_interrupt_eoi():
/Users/till/.cache/arm/packs/AlifSemiconductor/Ensemble/1.3.3/drivers/include/gpio.h:349
    gpio->GPIO_PORTA_EOI |= (1 << pin_no);
8000268c:	6cd0      	ldr	r0, [r2, #76]	@ 0x4c
GPIO_IRQ_Handler():
/Users/till/.cache/arm/packs/AlifSemiconductor/Ensemble/1.3.3/Alif_CMSIS/Source/Driver_GPIO.c:507
8000268e:	2900      	cmp	r1, #0
gpio_interrupt_eoi():
/Users/till/.cache/arm/packs/AlifSemiconductor/Ensemble/1.3.3/drivers/include/gpio.h:349
80002690:	f040 0080 	orr.w	r0, r0, #128	@ 0x80
80002694:	64d0      	str	r0, [r2, #76]	@ 0x4c
/Users/till/.cache/arm/packs/AlifSemiconductor/Ensemble/1.3.3/drivers/include/gpio.h:350
    (void) gpio->GPIO_PORTA_EOI;
80002696:	6cd0      	ldr	r0, [r2, #76]	@ 0x4c
GPIO1_IRQ7Handler():
/Users/till/.cache/arm/packs/AlifSemiconductor/Ensemble/1.3.3/Alif_CMSIS/Source/Driver_GPIO.c:636
void GPIO1_IRQ7Handler  (void) {   GPIO_IRQ_Handler (&GPIO1_RES, 7);    }
80002698:	bf08      	it	eq
8000269a:	4770      	bxeq	lr
GPIO_IRQ_Handler():
/Users/till/.cache/arm/packs/AlifSemiconductor/Ensemble/1.3.3/Alif_CMSIS/Source/Driver_GPIO.c:509
        GPIO->cb_event[pin_no](ARM_GPIO_IRQ_EVENT_EXTERNAL);
8000269c:	2001      	movs	r0, #1
8000269e:	4708      	bx	r1

800026a0 <GPIO2_IRQ0Handler>:
/Users/till/.cache/arm/packs/AlifSemiconductor/Ensemble/1.3.3/Alif_CMSIS/Source/Driver_GPIO.c:505
    gpio_interrupt_eoi(GPIO->reg_base, pin_no);
800026a0:	f240 10b0 	movw	r0, #432	@ 0x1b0
800026a4:	f2c2 0000 	movt	r0, #8192	@ 0x2000
800026a8:	6802      	ldr	r2, [r0, #0]
/Users/till/.cache/arm/packs/AlifSemiconductor/Ensemble/1.3.3/Alif_CMSIS/Source/Driver_GPIO.c:507
    if (GPIO->cb_event[pin_no] != NULL)
800026aa:	69c1      	ldr	r1, [r0, #28]
gpio_interrupt_eoi():
/Users/till/.cache/arm/packs/AlifSemiconductor/Ensemble/1.3.3/drivers/include/gpio.h:349
    gpio->GPIO_PORTA_EOI |= (1 << pin_no);
800026ac:	6cd0      	ldr	r0, [r2, #76]	@ 0x4c
GPIO_IRQ_Handler():
/Users/till/.cache/arm/packs/AlifSemiconductor/Ensemble/1.3.3/Alif_CMSIS/Source/Driver_GPIO.c:507
800026ae:	2900      	cmp	r1, #0
gpio_interrupt_eoi():
/Users/till/.cache/arm/packs/AlifSemiconductor/Ensemble/1.3.3/drivers/include/gpio.h:349
800026b0:	f040 0001 	orr.w	r0, r0, #1
800026b4:	64d0      	str	r0, [r2, #76]	@ 0x4c
/Users/till/.cache/arm/packs/AlifSemiconductor/Ensemble/1.3.3/drivers/include/gpio.h:350
    (void) gpio->GPIO_PORTA_EOI;
800026b6:	6cd0      	ldr	r0, [r2, #76]	@ 0x4c
GPIO2_IRQ0Handler():
/Users/till/.cache/arm/packs/AlifSemiconductor/Ensemble/1.3.3/Alif_CMSIS/Source/Driver_GPIO.c:711
void GPIO2_IRQ0Handler  (void) {   GPIO_IRQ_Handler (&GPIO2_RES, 0);    }
800026b8:	bf08      	it	eq
800026ba:	4770      	bxeq	lr
GPIO_IRQ_Handler():
/Users/till/.cache/arm/packs/AlifSemiconductor/Ensemble/1.3.3/Alif_CMSIS/Source/Driver_GPIO.c:509
        GPIO->cb_event[pin_no](ARM_GPIO_IRQ_EVENT_EXTERNAL);
800026bc:	2001      	movs	r0, #1
800026be:	4708      	bx	r1

800026c0 <GPIO2_IRQ1Handler>:
/Users/till/.cache/arm/packs/AlifSemiconductor/Ensemble/1.3.3/Alif_CMSIS/Source/Driver_GPIO.c:505
    gpio_interrupt_eoi(GPIO->reg_base, pin_no);
800026c0:	f240 10b0 	movw	r0, #432	@ 0x1b0
800026c4:	f2c2 0000 	movt	r0, #8192	@ 0x2000
800026c8:	6802      	ldr	r2, [r0, #0]
/Users/till/.cache/arm/packs/AlifSemiconductor/Ensemble/1.3.3/Alif_CMSIS/Source/Driver_GPIO.c:507
    if (GPIO->cb_event[pin_no] != NULL)
800026ca:	6a01      	ldr	r1, [r0, #32]
gpio_interrupt_eoi():
/Users/till/.cache/arm/packs/AlifSemiconductor/Ensemble/1.3.3/drivers/include/gpio.h:349
    gpio->GPIO_PORTA_EOI |= (1 << pin_no);
800026cc:	6cd0      	ldr	r0, [r2, #76]	@ 0x4c
GPIO_IRQ_Handler():
/Users/till/.cache/arm/packs/AlifSemiconductor/Ensemble/1.3.3/Alif_CMSIS/Source/Driver_GPIO.c:507
800026ce:	2900      	cmp	r1, #0
gpio_interrupt_eoi():
/Users/till/.cache/arm/packs/AlifSemiconductor/Ensemble/1.3.3/drivers/include/gpio.h:349
800026d0:	f040 0002 	orr.w	r0, r0, #2
800026d4:	64d0      	str	r0, [r2, #76]	@ 0x4c
/Users/till/.cache/arm/packs/AlifSemiconductor/Ensemble/1.3.3/drivers/include/gpio.h:350
    (void) gpio->GPIO_PORTA_EOI;
800026d6:	6cd0      	ldr	r0, [r2, #76]	@ 0x4c
GPIO2_IRQ1Handler():
/Users/till/.cache/arm/packs/AlifSemiconductor/Ensemble/1.3.3/Alif_CMSIS/Source/Driver_GPIO.c:713
void GPIO2_IRQ1Handler  (void) {   GPIO_IRQ_Handler (&GPIO2_RES, 1);    }
800026d8:	bf08      	it	eq
800026da:	4770      	bxeq	lr
GPIO_IRQ_Handler():
/Users/till/.cache/arm/packs/AlifSemiconductor/Ensemble/1.3.3/Alif_CMSIS/Source/Driver_GPIO.c:509
        GPIO->cb_event[pin_no](ARM_GPIO_IRQ_EVENT_EXTERNAL);
800026dc:	2001      	movs	r0, #1
800026de:	4708      	bx	r1

800026e0 <GPIO2_IRQ2Handler>:
/Users/till/.cache/arm/packs/AlifSemiconductor/Ensemble/1.3.3/Alif_CMSIS/Source/Driver_GPIO.c:505
    gpio_interrupt_eoi(GPIO->reg_base, pin_no);
800026e0:	f240 10b0 	movw	r0, #432	@ 0x1b0
800026e4:	f2c2 0000 	movt	r0, #8192	@ 0x2000
800026e8:	6802      	ldr	r2, [r0, #0]
/Users/till/.cache/arm/packs/AlifSemiconductor/Ensemble/1.3.3/Alif_CMSIS/Source/Driver_GPIO.c:507
    if (GPIO->cb_event[pin_no] != NULL)
800026ea:	6a41      	ldr	r1, [r0, #36]	@ 0x24
gpio_interrupt_eoi():
/Users/till/.cache/arm/packs/AlifSemiconductor/Ensemble/1.3.3/drivers/include/gpio.h:349
    gpio->GPIO_PORTA_EOI |= (1 << pin_no);
800026ec:	6cd0      	ldr	r0, [r2, #76]	@ 0x4c
GPIO_IRQ_Handler():
/Users/till/.cache/arm/packs/AlifSemiconductor/Ensemble/1.3.3/Alif_CMSIS/Source/Driver_GPIO.c:507
800026ee:	2900      	cmp	r1, #0
gpio_interrupt_eoi():
/Users/till/.cache/arm/packs/AlifSemiconductor/Ensemble/1.3.3/drivers/include/gpio.h:349
800026f0:	f040 0004 	orr.w	r0, r0, #4
800026f4:	64d0      	str	r0, [r2, #76]	@ 0x4c
/Users/till/.cache/arm/packs/AlifSemiconductor/Ensemble/1.3.3/drivers/include/gpio.h:350
    (void) gpio->GPIO_PORTA_EOI;
800026f6:	6cd0      	ldr	r0, [r2, #76]	@ 0x4c
GPIO2_IRQ2Handler():
/Users/till/.cache/arm/packs/AlifSemiconductor/Ensemble/1.3.3/Alif_CMSIS/Source/Driver_GPIO.c:715
void GPIO2_IRQ2Handler  (void) {   GPIO_IRQ_Handler (&GPIO2_RES, 2);    }
800026f8:	bf08      	it	eq
800026fa:	4770      	bxeq	lr
GPIO_IRQ_Handler():
/Users/till/.cache/arm/packs/AlifSemiconductor/Ensemble/1.3.3/Alif_CMSIS/Source/Driver_GPIO.c:509
        GPIO->cb_event[pin_no](ARM_GPIO_IRQ_EVENT_EXTERNAL);
800026fc:	2001      	movs	r0, #1
800026fe:	4708      	bx	r1

80002700 <GPIO2_IRQ3Handler>:
/Users/till/.cache/arm/packs/AlifSemiconductor/Ensemble/1.3.3/Alif_CMSIS/Source/Driver_GPIO.c:505
    gpio_interrupt_eoi(GPIO->reg_base, pin_no);
80002700:	f240 10b0 	movw	r0, #432	@ 0x1b0
80002704:	f2c2 0000 	movt	r0, #8192	@ 0x2000
80002708:	6802      	ldr	r2, [r0, #0]
/Users/till/.cache/arm/packs/AlifSemiconductor/Ensemble/1.3.3/Alif_CMSIS/Source/Driver_GPIO.c:507
    if (GPIO->cb_event[pin_no] != NULL)
8000270a:	6a81      	ldr	r1, [r0, #40]	@ 0x28
gpio_interrupt_eoi():
/Users/till/.cache/arm/packs/AlifSemiconductor/Ensemble/1.3.3/drivers/include/gpio.h:349
    gpio->GPIO_PORTA_EOI |= (1 << pin_no);
8000270c:	6cd0      	ldr	r0, [r2, #76]	@ 0x4c
GPIO_IRQ_Handler():
/Users/till/.cache/arm/packs/AlifSemiconductor/Ensemble/1.3.3/Alif_CMSIS/Source/Driver_GPIO.c:507
8000270e:	2900      	cmp	r1, #0
gpio_interrupt_eoi():
/Users/till/.cache/arm/packs/AlifSemiconductor/Ensemble/1.3.3/drivers/include/gpio.h:349
80002710:	f040 0008 	orr.w	r0, r0, #8
80002714:	64d0      	str	r0, [r2, #76]	@ 0x4c
/Users/till/.cache/arm/packs/AlifSemiconductor/Ensemble/1.3.3/drivers/include/gpio.h:350
    (void) gpio->GPIO_PORTA_EOI;
80002716:	6cd0      	ldr	r0, [r2, #76]	@ 0x4c
GPIO2_IRQ3Handler():
/Users/till/.cache/arm/packs/AlifSemiconductor/Ensemble/1.3.3/Alif_CMSIS/Source/Driver_GPIO.c:717
void GPIO2_IRQ3Handler  (void) {   GPIO_IRQ_Handler (&GPIO2_RES, 3);    }
80002718:	bf08      	it	eq
8000271a:	4770      	bxeq	lr
GPIO_IRQ_Handler():
/Users/till/.cache/arm/packs/AlifSemiconductor/Ensemble/1.3.3/Alif_CMSIS/Source/Driver_GPIO.c:509
        GPIO->cb_event[pin_no](ARM_GPIO_IRQ_EVENT_EXTERNAL);
8000271c:	2001      	movs	r0, #1
8000271e:	4708      	bx	r1

80002720 <GPIO2_IRQ4Handler>:
/Users/till/.cache/arm/packs/AlifSemiconductor/Ensemble/1.3.3/Alif_CMSIS/Source/Driver_GPIO.c:505
    gpio_interrupt_eoi(GPIO->reg_base, pin_no);
80002720:	f240 10b0 	movw	r0, #432	@ 0x1b0
80002724:	f2c2 0000 	movt	r0, #8192	@ 0x2000
80002728:	6802      	ldr	r2, [r0, #0]
/Users/till/.cache/arm/packs/AlifSemiconductor/Ensemble/1.3.3/Alif_CMSIS/Source/Driver_GPIO.c:507
    if (GPIO->cb_event[pin_no] != NULL)
8000272a:	6ac1      	ldr	r1, [r0, #44]	@ 0x2c
gpio_interrupt_eoi():
/Users/till/.cache/arm/packs/AlifSemiconductor/Ensemble/1.3.3/drivers/include/gpio.h:349
    gpio->GPIO_PORTA_EOI |= (1 << pin_no);
8000272c:	6cd0      	ldr	r0, [r2, #76]	@ 0x4c
GPIO_IRQ_Handler():
/Users/till/.cache/arm/packs/AlifSemiconductor/Ensemble/1.3.3/Alif_CMSIS/Source/Driver_GPIO.c:507
8000272e:	2900      	cmp	r1, #0
gpio_interrupt_eoi():
/Users/till/.cache/arm/packs/AlifSemiconductor/Ensemble/1.3.3/drivers/include/gpio.h:349
80002730:	f040 0010 	orr.w	r0, r0, #16
80002734:	64d0      	str	r0, [r2, #76]	@ 0x4c
/Users/till/.cache/arm/packs/AlifSemiconductor/Ensemble/1.3.3/drivers/include/gpio.h:350
    (void) gpio->GPIO_PORTA_EOI;
80002736:	6cd0      	ldr	r0, [r2, #76]	@ 0x4c
GPIO2_IRQ4Handler():
/Users/till/.cache/arm/packs/AlifSemiconductor/Ensemble/1.3.3/Alif_CMSIS/Source/Driver_GPIO.c:719
void GPIO2_IRQ4Handler  (void) {   GPIO_IRQ_Handler (&GPIO2_RES, 4);    }
80002738:	bf08      	it	eq
8000273a:	4770      	bxeq	lr
GPIO_IRQ_Handler():
/Users/till/.cache/arm/packs/AlifSemiconductor/Ensemble/1.3.3/Alif_CMSIS/Source/Driver_GPIO.c:509
        GPIO->cb_event[pin_no](ARM_GPIO_IRQ_EVENT_EXTERNAL);
8000273c:	2001      	movs	r0, #1
8000273e:	4708      	bx	r1

80002740 <GPIO2_IRQ5Handler>:
/Users/till/.cache/arm/packs/AlifSemiconductor/Ensemble/1.3.3/Alif_CMSIS/Source/Driver_GPIO.c:505
    gpio_interrupt_eoi(GPIO->reg_base, pin_no);
80002740:	f240 10b0 	movw	r0, #432	@ 0x1b0
80002744:	f2c2 0000 	movt	r0, #8192	@ 0x2000
80002748:	6802      	ldr	r2, [r0, #0]
/Users/till/.cache/arm/packs/AlifSemiconductor/Ensemble/1.3.3/Alif_CMSIS/Source/Driver_GPIO.c:507
    if (GPIO->cb_event[pin_no] != NULL)
8000274a:	6b01      	ldr	r1, [r0, #48]	@ 0x30
gpio_interrupt_eoi():
/Users/till/.cache/arm/packs/AlifSemiconductor/Ensemble/1.3.3/drivers/include/gpio.h:349
    gpio->GPIO_PORTA_EOI |= (1 << pin_no);
8000274c:	6cd0      	ldr	r0, [r2, #76]	@ 0x4c
GPIO_IRQ_Handler():
/Users/till/.cache/arm/packs/AlifSemiconductor/Ensemble/1.3.3/Alif_CMSIS/Source/Driver_GPIO.c:507
8000274e:	2900      	cmp	r1, #0
gpio_interrupt_eoi():
/Users/till/.cache/arm/packs/AlifSemiconductor/Ensemble/1.3.3/drivers/include/gpio.h:349
80002750:	f040 0020 	orr.w	r0, r0, #32
80002754:	64d0      	str	r0, [r2, #76]	@ 0x4c
/Users/till/.cache/arm/packs/AlifSemiconductor/Ensemble/1.3.3/drivers/include/gpio.h:350
    (void) gpio->GPIO_PORTA_EOI;
80002756:	6cd0      	ldr	r0, [r2, #76]	@ 0x4c
GPIO2_IRQ5Handler():
/Users/till/.cache/arm/packs/AlifSemiconductor/Ensemble/1.3.3/Alif_CMSIS/Source/Driver_GPIO.c:721
void GPIO2_IRQ5Handler  (void) {   GPIO_IRQ_Handler (&GPIO2_RES, 5);    }
80002758:	bf08      	it	eq
8000275a:	4770      	bxeq	lr
GPIO_IRQ_Handler():
/Users/till/.cache/arm/packs/AlifSemiconductor/Ensemble/1.3.3/Alif_CMSIS/Source/Driver_GPIO.c:509
        GPIO->cb_event[pin_no](ARM_GPIO_IRQ_EVENT_EXTERNAL);
8000275c:	2001      	movs	r0, #1
8000275e:	4708      	bx	r1

80002760 <GPIO2_IRQ6Handler>:
/Users/till/.cache/arm/packs/AlifSemiconductor/Ensemble/1.3.3/Alif_CMSIS/Source/Driver_GPIO.c:505
    gpio_interrupt_eoi(GPIO->reg_base, pin_no);
80002760:	f240 10b0 	movw	r0, #432	@ 0x1b0
80002764:	f2c2 0000 	movt	r0, #8192	@ 0x2000
80002768:	6802      	ldr	r2, [r0, #0]
/Users/till/.cache/arm/packs/AlifSemiconductor/Ensemble/1.3.3/Alif_CMSIS/Source/Driver_GPIO.c:507
    if (GPIO->cb_event[pin_no] != NULL)
8000276a:	6b41      	ldr	r1, [r0, #52]	@ 0x34
gpio_interrupt_eoi():
/Users/till/.cache/arm/packs/AlifSemiconductor/Ensemble/1.3.3/drivers/include/gpio.h:349
    gpio->GPIO_PORTA_EOI |= (1 << pin_no);
8000276c:	6cd0      	ldr	r0, [r2, #76]	@ 0x4c
GPIO_IRQ_Handler():
/Users/till/.cache/arm/packs/AlifSemiconductor/Ensemble/1.3.3/Alif_CMSIS/Source/Driver_GPIO.c:507
8000276e:	2900      	cmp	r1, #0
gpio_interrupt_eoi():
/Users/till/.cache/arm/packs/AlifSemiconductor/Ensemble/1.3.3/drivers/include/gpio.h:349
80002770:	f040 0040 	orr.w	r0, r0, #64	@ 0x40
80002774:	64d0      	str	r0, [r2, #76]	@ 0x4c
/Users/till/.cache/arm/packs/AlifSemiconductor/Ensemble/1.3.3/drivers/include/gpio.h:350
    (void) gpio->GPIO_PORTA_EOI;
80002776:	6cd0      	ldr	r0, [r2, #76]	@ 0x4c
GPIO2_IRQ6Handler():
/Users/till/.cache/arm/packs/AlifSemiconductor/Ensemble/1.3.3/Alif_CMSIS/Source/Driver_GPIO.c:723
void GPIO2_IRQ6Handler  (void) {   GPIO_IRQ_Handler (&GPIO2_RES, 6);    }
80002778:	bf08      	it	eq
8000277a:	4770      	bxeq	lr
GPIO_IRQ_Handler():
/Users/till/.cache/arm/packs/AlifSemiconductor/Ensemble/1.3.3/Alif_CMSIS/Source/Driver_GPIO.c:509
        GPIO->cb_event[pin_no](ARM_GPIO_IRQ_EVENT_EXTERNAL);
8000277c:	2001      	movs	r0, #1
8000277e:	4708      	bx	r1

80002780 <GPIO2_IRQ7Handler>:
/Users/till/.cache/arm/packs/AlifSemiconductor/Ensemble/1.3.3/Alif_CMSIS/Source/Driver_GPIO.c:505
    gpio_interrupt_eoi(GPIO->reg_base, pin_no);
80002780:	f240 10b0 	movw	r0, #432	@ 0x1b0
80002784:	f2c2 0000 	movt	r0, #8192	@ 0x2000
80002788:	6802      	ldr	r2, [r0, #0]
/Users/till/.cache/arm/packs/AlifSemiconductor/Ensemble/1.3.3/Alif_CMSIS/Source/Driver_GPIO.c:507
    if (GPIO->cb_event[pin_no] != NULL)
8000278a:	6b81      	ldr	r1, [r0, #56]	@ 0x38
gpio_interrupt_eoi():
/Users/till/.cache/arm/packs/AlifSemiconductor/Ensemble/1.3.3/drivers/include/gpio.h:349
    gpio->GPIO_PORTA_EOI |= (1 << pin_no);
8000278c:	6cd0      	ldr	r0, [r2, #76]	@ 0x4c
GPIO_IRQ_Handler():
/Users/till/.cache/arm/packs/AlifSemiconductor/Ensemble/1.3.3/Alif_CMSIS/Source/Driver_GPIO.c:507
8000278e:	2900      	cmp	r1, #0
gpio_interrupt_eoi():
/Users/till/.cache/arm/packs/AlifSemiconductor/Ensemble/1.3.3/drivers/include/gpio.h:349
80002790:	f040 0080 	orr.w	r0, r0, #128	@ 0x80
80002794:	64d0      	str	r0, [r2, #76]	@ 0x4c
/Users/till/.cache/arm/packs/AlifSemiconductor/Ensemble/1.3.3/drivers/include/gpio.h:350
    (void) gpio->GPIO_PORTA_EOI;
80002796:	6cd0      	ldr	r0, [r2, #76]	@ 0x4c
GPIO2_IRQ7Handler():
/Users/till/.cache/arm/packs/AlifSemiconductor/Ensemble/1.3.3/Alif_CMSIS/Source/Driver_GPIO.c:725
void GPIO2_IRQ7Handler  (void) {   GPIO_IRQ_Handler (&GPIO2_RES, 7);    }
80002798:	bf08      	it	eq
8000279a:	4770      	bxeq	lr
GPIO_IRQ_Handler():
/Users/till/.cache/arm/packs/AlifSemiconductor/Ensemble/1.3.3/Alif_CMSIS/Source/Driver_GPIO.c:509
        GPIO->cb_event[pin_no](ARM_GPIO_IRQ_EVENT_EXTERNAL);
8000279c:	2001      	movs	r0, #1
8000279e:	4708      	bx	r1

800027a0 <GPIO3_IRQ0Handler>:
/Users/till/.cache/arm/packs/AlifSemiconductor/Ensemble/1.3.3/Alif_CMSIS/Source/Driver_GPIO.c:505
    gpio_interrupt_eoi(GPIO->reg_base, pin_no);
800027a0:	f240 10ec 	movw	r0, #492	@ 0x1ec
800027a4:	f2c2 0000 	movt	r0, #8192	@ 0x2000
800027a8:	6802      	ldr	r2, [r0, #0]
/Users/till/.cache/arm/packs/AlifSemiconductor/Ensemble/1.3.3/Alif_CMSIS/Source/Driver_GPIO.c:507
    if (GPIO->cb_event[pin_no] != NULL)
800027aa:	69c1      	ldr	r1, [r0, #28]
gpio_interrupt_eoi():
/Users/till/.cache/arm/packs/AlifSemiconductor/Ensemble/1.3.3/drivers/include/gpio.h:349
    gpio->GPIO_PORTA_EOI |= (1 << pin_no);
800027ac:	6cd0      	ldr	r0, [r2, #76]	@ 0x4c
GPIO_IRQ_Handler():
/Users/till/.cache/arm/packs/AlifSemiconductor/Ensemble/1.3.3/Alif_CMSIS/Source/Driver_GPIO.c:507
800027ae:	2900      	cmp	r1, #0
gpio_interrupt_eoi():
/Users/till/.cache/arm/packs/AlifSemiconductor/Ensemble/1.3.3/drivers/include/gpio.h:349
800027b0:	f040 0001 	orr.w	r0, r0, #1
800027b4:	64d0      	str	r0, [r2, #76]	@ 0x4c
/Users/till/.cache/arm/packs/AlifSemiconductor/Ensemble/1.3.3/drivers/include/gpio.h:350
    (void) gpio->GPIO_PORTA_EOI;
800027b6:	6cd0      	ldr	r0, [r2, #76]	@ 0x4c
GPIO3_IRQ0Handler():
/Users/till/.cache/arm/packs/AlifSemiconductor/Ensemble/1.3.3/Alif_CMSIS/Source/Driver_GPIO.c:800
void GPIO3_IRQ0Handler  (void) {   GPIO_IRQ_Handler (&GPIO3_RES, 0);    }
800027b8:	bf08      	it	eq
800027ba:	4770      	bxeq	lr
GPIO_IRQ_Handler():
/Users/till/.cache/arm/packs/AlifSemiconductor/Ensemble/1.3.3/Alif_CMSIS/Source/Driver_GPIO.c:509
        GPIO->cb_event[pin_no](ARM_GPIO_IRQ_EVENT_EXTERNAL);
800027bc:	2001      	movs	r0, #1
800027be:	4708      	bx	r1

800027c0 <GPIO3_IRQ1Handler>:
/Users/till/.cache/arm/packs/AlifSemiconductor/Ensemble/1.3.3/Alif_CMSIS/Source/Driver_GPIO.c:505
    gpio_interrupt_eoi(GPIO->reg_base, pin_no);
800027c0:	f240 10ec 	movw	r0, #492	@ 0x1ec
800027c4:	f2c2 0000 	movt	r0, #8192	@ 0x2000
800027c8:	6802      	ldr	r2, [r0, #0]
/Users/till/.cache/arm/packs/AlifSemiconductor/Ensemble/1.3.3/Alif_CMSIS/Source/Driver_GPIO.c:507
    if (GPIO->cb_event[pin_no] != NULL)
800027ca:	6a01      	ldr	r1, [r0, #32]
gpio_interrupt_eoi():
/Users/till/.cache/arm/packs/AlifSemiconductor/Ensemble/1.3.3/drivers/include/gpio.h:349
    gpio->GPIO_PORTA_EOI |= (1 << pin_no);
800027cc:	6cd0      	ldr	r0, [r2, #76]	@ 0x4c
GPIO_IRQ_Handler():
/Users/till/.cache/arm/packs/AlifSemiconductor/Ensemble/1.3.3/Alif_CMSIS/Source/Driver_GPIO.c:507
800027ce:	2900      	cmp	r1, #0
gpio_interrupt_eoi():
/Users/till/.cache/arm/packs/AlifSemiconductor/Ensemble/1.3.3/drivers/include/gpio.h:349
800027d0:	f040 0002 	orr.w	r0, r0, #2
800027d4:	64d0      	str	r0, [r2, #76]	@ 0x4c
/Users/till/.cache/arm/packs/AlifSemiconductor/Ensemble/1.3.3/drivers/include/gpio.h:350
    (void) gpio->GPIO_PORTA_EOI;
800027d6:	6cd0      	ldr	r0, [r2, #76]	@ 0x4c
GPIO3_IRQ1Handler():
/Users/till/.cache/arm/packs/AlifSemiconductor/Ensemble/1.3.3/Alif_CMSIS/Source/Driver_GPIO.c:802
void GPIO3_IRQ1Handler  (void) {   GPIO_IRQ_Handler (&GPIO3_RES, 1);    }
800027d8:	bf08      	it	eq
800027da:	4770      	bxeq	lr
GPIO_IRQ_Handler():
/Users/till/.cache/arm/packs/AlifSemiconductor/Ensemble/1.3.3/Alif_CMSIS/Source/Driver_GPIO.c:509
        GPIO->cb_event[pin_no](ARM_GPIO_IRQ_EVENT_EXTERNAL);
800027dc:	2001      	movs	r0, #1
800027de:	4708      	bx	r1

800027e0 <GPIO3_IRQ2Handler>:
/Users/till/.cache/arm/packs/AlifSemiconductor/Ensemble/1.3.3/Alif_CMSIS/Source/Driver_GPIO.c:505
    gpio_interrupt_eoi(GPIO->reg_base, pin_no);
800027e0:	f240 10ec 	movw	r0, #492	@ 0x1ec
800027e4:	f2c2 0000 	movt	r0, #8192	@ 0x2000
800027e8:	6802      	ldr	r2, [r0, #0]
/Users/till/.cache/arm/packs/AlifSemiconductor/Ensemble/1.3.3/Alif_CMSIS/Source/Driver_GPIO.c:507
    if (GPIO->cb_event[pin_no] != NULL)
800027ea:	6a41      	ldr	r1, [r0, #36]	@ 0x24
gpio_interrupt_eoi():
/Users/till/.cache/arm/packs/AlifSemiconductor/Ensemble/1.3.3/drivers/include/gpio.h:349
    gpio->GPIO_PORTA_EOI |= (1 << pin_no);
800027ec:	6cd0      	ldr	r0, [r2, #76]	@ 0x4c
GPIO_IRQ_Handler():
/Users/till/.cache/arm/packs/AlifSemiconductor/Ensemble/1.3.3/Alif_CMSIS/Source/Driver_GPIO.c:507
800027ee:	2900      	cmp	r1, #0
gpio_interrupt_eoi():
/Users/till/.cache/arm/packs/AlifSemiconductor/Ensemble/1.3.3/drivers/include/gpio.h:349
800027f0:	f040 0004 	orr.w	r0, r0, #4
800027f4:	64d0      	str	r0, [r2, #76]	@ 0x4c
/Users/till/.cache/arm/packs/AlifSemiconductor/Ensemble/1.3.3/drivers/include/gpio.h:350
    (void) gpio->GPIO_PORTA_EOI;
800027f6:	6cd0      	ldr	r0, [r2, #76]	@ 0x4c
GPIO3_IRQ2Handler():
/Users/till/.cache/arm/packs/AlifSemiconductor/Ensemble/1.3.3/Alif_CMSIS/Source/Driver_GPIO.c:804
void GPIO3_IRQ2Handler  (void) {   GPIO_IRQ_Handler (&GPIO3_RES, 2);    }
800027f8:	bf08      	it	eq
800027fa:	4770      	bxeq	lr
GPIO_IRQ_Handler():
/Users/till/.cache/arm/packs/AlifSemiconductor/Ensemble/1.3.3/Alif_CMSIS/Source/Driver_GPIO.c:509
        GPIO->cb_event[pin_no](ARM_GPIO_IRQ_EVENT_EXTERNAL);
800027fc:	2001      	movs	r0, #1
800027fe:	4708      	bx	r1

80002800 <GPIO3_IRQ3Handler>:
/Users/till/.cache/arm/packs/AlifSemiconductor/Ensemble/1.3.3/Alif_CMSIS/Source/Driver_GPIO.c:505
    gpio_interrupt_eoi(GPIO->reg_base, pin_no);
80002800:	f240 10ec 	movw	r0, #492	@ 0x1ec
80002804:	f2c2 0000 	movt	r0, #8192	@ 0x2000
80002808:	6802      	ldr	r2, [r0, #0]
/Users/till/.cache/arm/packs/AlifSemiconductor/Ensemble/1.3.3/Alif_CMSIS/Source/Driver_GPIO.c:507
    if (GPIO->cb_event[pin_no] != NULL)
8000280a:	6a81      	ldr	r1, [r0, #40]	@ 0x28
gpio_interrupt_eoi():
/Users/till/.cache/arm/packs/AlifSemiconductor/Ensemble/1.3.3/drivers/include/gpio.h:349
    gpio->GPIO_PORTA_EOI |= (1 << pin_no);
8000280c:	6cd0      	ldr	r0, [r2, #76]	@ 0x4c
GPIO_IRQ_Handler():
/Users/till/.cache/arm/packs/AlifSemiconductor/Ensemble/1.3.3/Alif_CMSIS/Source/Driver_GPIO.c:507
8000280e:	2900      	cmp	r1, #0
gpio_interrupt_eoi():
/Users/till/.cache/arm/packs/AlifSemiconductor/Ensemble/1.3.3/drivers/include/gpio.h:349
80002810:	f040 0008 	orr.w	r0, r0, #8
80002814:	64d0      	str	r0, [r2, #76]	@ 0x4c
/Users/till/.cache/arm/packs/AlifSemiconductor/Ensemble/1.3.3/drivers/include/gpio.h:350
    (void) gpio->GPIO_PORTA_EOI;
80002816:	6cd0      	ldr	r0, [r2, #76]	@ 0x4c
GPIO3_IRQ3Handler():
/Users/till/.cache/arm/packs/AlifSemiconductor/Ensemble/1.3.3/Alif_CMSIS/Source/Driver_GPIO.c:806
void GPIO3_IRQ3Handler  (void) {   GPIO_IRQ_Handler (&GPIO3_RES, 3);    }
80002818:	bf08      	it	eq
8000281a:	4770      	bxeq	lr
GPIO_IRQ_Handler():
/Users/till/.cache/arm/packs/AlifSemiconductor/Ensemble/1.3.3/Alif_CMSIS/Source/Driver_GPIO.c:509
        GPIO->cb_event[pin_no](ARM_GPIO_IRQ_EVENT_EXTERNAL);
8000281c:	2001      	movs	r0, #1
8000281e:	4708      	bx	r1

80002820 <GPIO3_IRQ4Handler>:
/Users/till/.cache/arm/packs/AlifSemiconductor/Ensemble/1.3.3/Alif_CMSIS/Source/Driver_GPIO.c:505
    gpio_interrupt_eoi(GPIO->reg_base, pin_no);
80002820:	f240 10ec 	movw	r0, #492	@ 0x1ec
80002824:	f2c2 0000 	movt	r0, #8192	@ 0x2000
80002828:	6802      	ldr	r2, [r0, #0]
/Users/till/.cache/arm/packs/AlifSemiconductor/Ensemble/1.3.3/Alif_CMSIS/Source/Driver_GPIO.c:507
    if (GPIO->cb_event[pin_no] != NULL)
8000282a:	6ac1      	ldr	r1, [r0, #44]	@ 0x2c
gpio_interrupt_eoi():
/Users/till/.cache/arm/packs/AlifSemiconductor/Ensemble/1.3.3/drivers/include/gpio.h:349
    gpio->GPIO_PORTA_EOI |= (1 << pin_no);
8000282c:	6cd0      	ldr	r0, [r2, #76]	@ 0x4c
GPIO_IRQ_Handler():
/Users/till/.cache/arm/packs/AlifSemiconductor/Ensemble/1.3.3/Alif_CMSIS/Source/Driver_GPIO.c:507
8000282e:	2900      	cmp	r1, #0
gpio_interrupt_eoi():
/Users/till/.cache/arm/packs/AlifSemiconductor/Ensemble/1.3.3/drivers/include/gpio.h:349
80002830:	f040 0010 	orr.w	r0, r0, #16
80002834:	64d0      	str	r0, [r2, #76]	@ 0x4c
/Users/till/.cache/arm/packs/AlifSemiconductor/Ensemble/1.3.3/drivers/include/gpio.h:350
    (void) gpio->GPIO_PORTA_EOI;
80002836:	6cd0      	ldr	r0, [r2, #76]	@ 0x4c
GPIO3_IRQ4Handler():
/Users/till/.cache/arm/packs/AlifSemiconductor/Ensemble/1.3.3/Alif_CMSIS/Source/Driver_GPIO.c:808
void GPIO3_IRQ4Handler  (void) {   GPIO_IRQ_Handler (&GPIO3_RES, 4);    }
80002838:	bf08      	it	eq
8000283a:	4770      	bxeq	lr
GPIO_IRQ_Handler():
/Users/till/.cache/arm/packs/AlifSemiconductor/Ensemble/1.3.3/Alif_CMSIS/Source/Driver_GPIO.c:509
        GPIO->cb_event[pin_no](ARM_GPIO_IRQ_EVENT_EXTERNAL);
8000283c:	2001      	movs	r0, #1
8000283e:	4708      	bx	r1

80002840 <GPIO3_IRQ5Handler>:
/Users/till/.cache/arm/packs/AlifSemiconductor/Ensemble/1.3.3/Alif_CMSIS/Source/Driver_GPIO.c:505
    gpio_interrupt_eoi(GPIO->reg_base, pin_no);
80002840:	f240 10ec 	movw	r0, #492	@ 0x1ec
80002844:	f2c2 0000 	movt	r0, #8192	@ 0x2000
80002848:	6802      	ldr	r2, [r0, #0]
/Users/till/.cache/arm/packs/AlifSemiconductor/Ensemble/1.3.3/Alif_CMSIS/Source/Driver_GPIO.c:507
    if (GPIO->cb_event[pin_no] != NULL)
8000284a:	6b01      	ldr	r1, [r0, #48]	@ 0x30
gpio_interrupt_eoi():
/Users/till/.cache/arm/packs/AlifSemiconductor/Ensemble/1.3.3/drivers/include/gpio.h:349
    gpio->GPIO_PORTA_EOI |= (1 << pin_no);
8000284c:	6cd0      	ldr	r0, [r2, #76]	@ 0x4c
GPIO_IRQ_Handler():
/Users/till/.cache/arm/packs/AlifSemiconductor/Ensemble/1.3.3/Alif_CMSIS/Source/Driver_GPIO.c:507
8000284e:	2900      	cmp	r1, #0
gpio_interrupt_eoi():
/Users/till/.cache/arm/packs/AlifSemiconductor/Ensemble/1.3.3/drivers/include/gpio.h:349
80002850:	f040 0020 	orr.w	r0, r0, #32
80002854:	64d0      	str	r0, [r2, #76]	@ 0x4c
/Users/till/.cache/arm/packs/AlifSemiconductor/Ensemble/1.3.3/drivers/include/gpio.h:350
    (void) gpio->GPIO_PORTA_EOI;
80002856:	6cd0      	ldr	r0, [r2, #76]	@ 0x4c
GPIO3_IRQ5Handler():
/Users/till/.cache/arm/packs/AlifSemiconductor/Ensemble/1.3.3/Alif_CMSIS/Source/Driver_GPIO.c:810
void GPIO3_IRQ5Handler  (void) {   GPIO_IRQ_Handler (&GPIO3_RES, 5);    }
80002858:	bf08      	it	eq
8000285a:	4770      	bxeq	lr
GPIO_IRQ_Handler():
/Users/till/.cache/arm/packs/AlifSemiconductor/Ensemble/1.3.3/Alif_CMSIS/Source/Driver_GPIO.c:509
        GPIO->cb_event[pin_no](ARM_GPIO_IRQ_EVENT_EXTERNAL);
8000285c:	2001      	movs	r0, #1
8000285e:	4708      	bx	r1

80002860 <GPIO3_IRQ6Handler>:
/Users/till/.cache/arm/packs/AlifSemiconductor/Ensemble/1.3.3/Alif_CMSIS/Source/Driver_GPIO.c:505
    gpio_interrupt_eoi(GPIO->reg_base, pin_no);
80002860:	f240 10ec 	movw	r0, #492	@ 0x1ec
80002864:	f2c2 0000 	movt	r0, #8192	@ 0x2000
80002868:	6802      	ldr	r2, [r0, #0]
/Users/till/.cache/arm/packs/AlifSemiconductor/Ensemble/1.3.3/Alif_CMSIS/Source/Driver_GPIO.c:507
    if (GPIO->cb_event[pin_no] != NULL)
8000286a:	6b41      	ldr	r1, [r0, #52]	@ 0x34
gpio_interrupt_eoi():
/Users/till/.cache/arm/packs/AlifSemiconductor/Ensemble/1.3.3/drivers/include/gpio.h:349
    gpio->GPIO_PORTA_EOI |= (1 << pin_no);
8000286c:	6cd0      	ldr	r0, [r2, #76]	@ 0x4c
GPIO_IRQ_Handler():
/Users/till/.cache/arm/packs/AlifSemiconductor/Ensemble/1.3.3/Alif_CMSIS/Source/Driver_GPIO.c:507
8000286e:	2900      	cmp	r1, #0
gpio_interrupt_eoi():
/Users/till/.cache/arm/packs/AlifSemiconductor/Ensemble/1.3.3/drivers/include/gpio.h:349
80002870:	f040 0040 	orr.w	r0, r0, #64	@ 0x40
80002874:	64d0      	str	r0, [r2, #76]	@ 0x4c
/Users/till/.cache/arm/packs/AlifSemiconductor/Ensemble/1.3.3/drivers/include/gpio.h:350
    (void) gpio->GPIO_PORTA_EOI;
80002876:	6cd0      	ldr	r0, [r2, #76]	@ 0x4c
GPIO3_IRQ6Handler():
/Users/till/.cache/arm/packs/AlifSemiconductor/Ensemble/1.3.3/Alif_CMSIS/Source/Driver_GPIO.c:812
void GPIO3_IRQ6Handler  (void) {   GPIO_IRQ_Handler (&GPIO3_RES, 6);    }
80002878:	bf08      	it	eq
8000287a:	4770      	bxeq	lr
GPIO_IRQ_Handler():
/Users/till/.cache/arm/packs/AlifSemiconductor/Ensemble/1.3.3/Alif_CMSIS/Source/Driver_GPIO.c:509
        GPIO->cb_event[pin_no](ARM_GPIO_IRQ_EVENT_EXTERNAL);
8000287c:	2001      	movs	r0, #1
8000287e:	4708      	bx	r1

80002880 <GPIO3_IRQ7Handler>:
/Users/till/.cache/arm/packs/AlifSemiconductor/Ensemble/1.3.3/Alif_CMSIS/Source/Driver_GPIO.c:505
    gpio_interrupt_eoi(GPIO->reg_base, pin_no);
80002880:	f240 10ec 	movw	r0, #492	@ 0x1ec
80002884:	f2c2 0000 	movt	r0, #8192	@ 0x2000
80002888:	6802      	ldr	r2, [r0, #0]
/Users/till/.cache/arm/packs/AlifSemiconductor/Ensemble/1.3.3/Alif_CMSIS/Source/Driver_GPIO.c:507
    if (GPIO->cb_event[pin_no] != NULL)
8000288a:	6b81      	ldr	r1, [r0, #56]	@ 0x38
gpio_interrupt_eoi():
/Users/till/.cache/arm/packs/AlifSemiconductor/Ensemble/1.3.3/drivers/include/gpio.h:349
    gpio->GPIO_PORTA_EOI |= (1 << pin_no);
8000288c:	6cd0      	ldr	r0, [r2, #76]	@ 0x4c
GPIO_IRQ_Handler():
/Users/till/.cache/arm/packs/AlifSemiconductor/Ensemble/1.3.3/Alif_CMSIS/Source/Driver_GPIO.c:507
8000288e:	2900      	cmp	r1, #0
gpio_interrupt_eoi():
/Users/till/.cache/arm/packs/AlifSemiconductor/Ensemble/1.3.3/drivers/include/gpio.h:349
80002890:	f040 0080 	orr.w	r0, r0, #128	@ 0x80
80002894:	64d0      	str	r0, [r2, #76]	@ 0x4c
/Users/till/.cache/arm/packs/AlifSemiconductor/Ensemble/1.3.3/drivers/include/gpio.h:350
    (void) gpio->GPIO_PORTA_EOI;
80002896:	6cd0      	ldr	r0, [r2, #76]	@ 0x4c
GPIO3_IRQ7Handler():
/Users/till/.cache/arm/packs/AlifSemiconductor/Ensemble/1.3.3/Alif_CMSIS/Source/Driver_GPIO.c:814
void GPIO3_IRQ7Handler  (void) {   GPIO_IRQ_Handler (&GPIO3_RES, 7);    }
80002898:	bf08      	it	eq
8000289a:	4770      	bxeq	lr
GPIO_IRQ_Handler():
/Users/till/.cache/arm/packs/AlifSemiconductor/Ensemble/1.3.3/Alif_CMSIS/Source/Driver_GPIO.c:509
        GPIO->cb_event[pin_no](ARM_GPIO_IRQ_EVENT_EXTERNAL);
8000289c:	2001      	movs	r0, #1
8000289e:	4708      	bx	r1

800028a0 <GPIO4_IRQ0Handler>:
/Users/till/.cache/arm/packs/AlifSemiconductor/Ensemble/1.3.3/Alif_CMSIS/Source/Driver_GPIO.c:505
    gpio_interrupt_eoi(GPIO->reg_base, pin_no);
800028a0:	f240 2028 	movw	r0, #552	@ 0x228
800028a4:	f2c2 0000 	movt	r0, #8192	@ 0x2000
800028a8:	6802      	ldr	r2, [r0, #0]
/Users/till/.cache/arm/packs/AlifSemiconductor/Ensemble/1.3.3/Alif_CMSIS/Source/Driver_GPIO.c:507
    if (GPIO->cb_event[pin_no] != NULL)
800028aa:	69c1      	ldr	r1, [r0, #28]
gpio_interrupt_eoi():
/Users/till/.cache/arm/packs/AlifSemiconductor/Ensemble/1.3.3/drivers/include/gpio.h:349
    gpio->GPIO_PORTA_EOI |= (1 << pin_no);
800028ac:	6cd0      	ldr	r0, [r2, #76]	@ 0x4c
GPIO_IRQ_Handler():
/Users/till/.cache/arm/packs/AlifSemiconductor/Ensemble/1.3.3/Alif_CMSIS/Source/Driver_GPIO.c:507
800028ae:	2900      	cmp	r1, #0
gpio_interrupt_eoi():
/Users/till/.cache/arm/packs/AlifSemiconductor/Ensemble/1.3.3/drivers/include/gpio.h:349
800028b0:	f040 0001 	orr.w	r0, r0, #1
800028b4:	64d0      	str	r0, [r2, #76]	@ 0x4c
/Users/till/.cache/arm/packs/AlifSemiconductor/Ensemble/1.3.3/drivers/include/gpio.h:350
    (void) gpio->GPIO_PORTA_EOI;
800028b6:	6cd0      	ldr	r0, [r2, #76]	@ 0x4c
GPIO4_IRQ0Handler():
/Users/till/.cache/arm/packs/AlifSemiconductor/Ensemble/1.3.3/Alif_CMSIS/Source/Driver_GPIO.c:889
void GPIO4_IRQ0Handler  (void) {   GPIO_IRQ_Handler (&GPIO4_RES, 0);    }
800028b8:	bf08      	it	eq
800028ba:	4770      	bxeq	lr
GPIO_IRQ_Handler():
/Users/till/.cache/arm/packs/AlifSemiconductor/Ensemble/1.3.3/Alif_CMSIS/Source/Driver_GPIO.c:509
        GPIO->cb_event[pin_no](ARM_GPIO_IRQ_EVENT_EXTERNAL);
800028bc:	2001      	movs	r0, #1
800028be:	4708      	bx	r1

800028c0 <GPIO4_IRQ1Handler>:
/Users/till/.cache/arm/packs/AlifSemiconductor/Ensemble/1.3.3/Alif_CMSIS/Source/Driver_GPIO.c:505
    gpio_interrupt_eoi(GPIO->reg_base, pin_no);
800028c0:	f240 2028 	movw	r0, #552	@ 0x228
800028c4:	f2c2 0000 	movt	r0, #8192	@ 0x2000
800028c8:	6802      	ldr	r2, [r0, #0]
/Users/till/.cache/arm/packs/AlifSemiconductor/Ensemble/1.3.3/Alif_CMSIS/Source/Driver_GPIO.c:507
    if (GPIO->cb_event[pin_no] != NULL)
800028ca:	6a01      	ldr	r1, [r0, #32]
gpio_interrupt_eoi():
/Users/till/.cache/arm/packs/AlifSemiconductor/Ensemble/1.3.3/drivers/include/gpio.h:349
    gpio->GPIO_PORTA_EOI |= (1 << pin_no);
800028cc:	6cd0      	ldr	r0, [r2, #76]	@ 0x4c
GPIO_IRQ_Handler():
/Users/till/.cache/arm/packs/AlifSemiconductor/Ensemble/1.3.3/Alif_CMSIS/Source/Driver_GPIO.c:507
800028ce:	2900      	cmp	r1, #0
gpio_interrupt_eoi():
/Users/till/.cache/arm/packs/AlifSemiconductor/Ensemble/1.3.3/drivers/include/gpio.h:349
800028d0:	f040 0002 	orr.w	r0, r0, #2
800028d4:	64d0      	str	r0, [r2, #76]	@ 0x4c
/Users/till/.cache/arm/packs/AlifSemiconductor/Ensemble/1.3.3/drivers/include/gpio.h:350
    (void) gpio->GPIO_PORTA_EOI;
800028d6:	6cd0      	ldr	r0, [r2, #76]	@ 0x4c
GPIO4_IRQ1Handler():
/Users/till/.cache/arm/packs/AlifSemiconductor/Ensemble/1.3.3/Alif_CMSIS/Source/Driver_GPIO.c:891
void GPIO4_IRQ1Handler  (void) {   GPIO_IRQ_Handler (&GPIO4_RES, 1);    }
800028d8:	bf08      	it	eq
800028da:	4770      	bxeq	lr
GPIO_IRQ_Handler():
/Users/till/.cache/arm/packs/AlifSemiconductor/Ensemble/1.3.3/Alif_CMSIS/Source/Driver_GPIO.c:509
        GPIO->cb_event[pin_no](ARM_GPIO_IRQ_EVENT_EXTERNAL);
800028dc:	2001      	movs	r0, #1
800028de:	4708      	bx	r1

800028e0 <GPIO4_IRQ2Handler>:
/Users/till/.cache/arm/packs/AlifSemiconductor/Ensemble/1.3.3/Alif_CMSIS/Source/Driver_GPIO.c:505
    gpio_interrupt_eoi(GPIO->reg_base, pin_no);
800028e0:	f240 2028 	movw	r0, #552	@ 0x228
800028e4:	f2c2 0000 	movt	r0, #8192	@ 0x2000
800028e8:	6802      	ldr	r2, [r0, #0]
/Users/till/.cache/arm/packs/AlifSemiconductor/Ensemble/1.3.3/Alif_CMSIS/Source/Driver_GPIO.c:507
    if (GPIO->cb_event[pin_no] != NULL)
800028ea:	6a41      	ldr	r1, [r0, #36]	@ 0x24
gpio_interrupt_eoi():
/Users/till/.cache/arm/packs/AlifSemiconductor/Ensemble/1.3.3/drivers/include/gpio.h:349
    gpio->GPIO_PORTA_EOI |= (1 << pin_no);
800028ec:	6cd0      	ldr	r0, [r2, #76]	@ 0x4c
GPIO_IRQ_Handler():
/Users/till/.cache/arm/packs/AlifSemiconductor/Ensemble/1.3.3/Alif_CMSIS/Source/Driver_GPIO.c:507
800028ee:	2900      	cmp	r1, #0
gpio_interrupt_eoi():
/Users/till/.cache/arm/packs/AlifSemiconductor/Ensemble/1.3.3/drivers/include/gpio.h:349
800028f0:	f040 0004 	orr.w	r0, r0, #4
800028f4:	64d0      	str	r0, [r2, #76]	@ 0x4c
/Users/till/.cache/arm/packs/AlifSemiconductor/Ensemble/1.3.3/drivers/include/gpio.h:350
    (void) gpio->GPIO_PORTA_EOI;
800028f6:	6cd0      	ldr	r0, [r2, #76]	@ 0x4c
GPIO4_IRQ2Handler():
/Users/till/.cache/arm/packs/AlifSemiconductor/Ensemble/1.3.3/Alif_CMSIS/Source/Driver_GPIO.c:893
void GPIO4_IRQ2Handler  (void) {   GPIO_IRQ_Handler (&GPIO4_RES, 2);    }
800028f8:	bf08      	it	eq
800028fa:	4770      	bxeq	lr
GPIO_IRQ_Handler():
/Users/till/.cache/arm/packs/AlifSemiconductor/Ensemble/1.3.3/Alif_CMSIS/Source/Driver_GPIO.c:509
        GPIO->cb_event[pin_no](ARM_GPIO_IRQ_EVENT_EXTERNAL);
800028fc:	2001      	movs	r0, #1
800028fe:	4708      	bx	r1

80002900 <GPIO4_IRQ3Handler>:
/Users/till/.cache/arm/packs/AlifSemiconductor/Ensemble/1.3.3/Alif_CMSIS/Source/Driver_GPIO.c:505
    gpio_interrupt_eoi(GPIO->reg_base, pin_no);
80002900:	f240 2028 	movw	r0, #552	@ 0x228
80002904:	f2c2 0000 	movt	r0, #8192	@ 0x2000
80002908:	6802      	ldr	r2, [r0, #0]
/Users/till/.cache/arm/packs/AlifSemiconductor/Ensemble/1.3.3/Alif_CMSIS/Source/Driver_GPIO.c:507
    if (GPIO->cb_event[pin_no] != NULL)
8000290a:	6a81      	ldr	r1, [r0, #40]	@ 0x28
gpio_interrupt_eoi():
/Users/till/.cache/arm/packs/AlifSemiconductor/Ensemble/1.3.3/drivers/include/gpio.h:349
    gpio->GPIO_PORTA_EOI |= (1 << pin_no);
8000290c:	6cd0      	ldr	r0, [r2, #76]	@ 0x4c
GPIO_IRQ_Handler():
/Users/till/.cache/arm/packs/AlifSemiconductor/Ensemble/1.3.3/Alif_CMSIS/Source/Driver_GPIO.c:507
8000290e:	2900      	cmp	r1, #0
gpio_interrupt_eoi():
/Users/till/.cache/arm/packs/AlifSemiconductor/Ensemble/1.3.3/drivers/include/gpio.h:349
80002910:	f040 0008 	orr.w	r0, r0, #8
80002914:	64d0      	str	r0, [r2, #76]	@ 0x4c
/Users/till/.cache/arm/packs/AlifSemiconductor/Ensemble/1.3.3/drivers/include/gpio.h:350
    (void) gpio->GPIO_PORTA_EOI;
80002916:	6cd0      	ldr	r0, [r2, #76]	@ 0x4c
GPIO4_IRQ3Handler():
/Users/till/.cache/arm/packs/AlifSemiconductor/Ensemble/1.3.3/Alif_CMSIS/Source/Driver_GPIO.c:895
void GPIO4_IRQ3Handler  (void) {   GPIO_IRQ_Handler (&GPIO4_RES, 3);    }
80002918:	bf08      	it	eq
8000291a:	4770      	bxeq	lr
GPIO_IRQ_Handler():
/Users/till/.cache/arm/packs/AlifSemiconductor/Ensemble/1.3.3/Alif_CMSIS/Source/Driver_GPIO.c:509
        GPIO->cb_event[pin_no](ARM_GPIO_IRQ_EVENT_EXTERNAL);
8000291c:	2001      	movs	r0, #1
8000291e:	4708      	bx	r1

80002920 <GPIO4_IRQ4Handler>:
/Users/till/.cache/arm/packs/AlifSemiconductor/Ensemble/1.3.3/Alif_CMSIS/Source/Driver_GPIO.c:505
    gpio_interrupt_eoi(GPIO->reg_base, pin_no);
80002920:	f240 2028 	movw	r0, #552	@ 0x228
80002924:	f2c2 0000 	movt	r0, #8192	@ 0x2000
80002928:	6802      	ldr	r2, [r0, #0]
/Users/till/.cache/arm/packs/AlifSemiconductor/Ensemble/1.3.3/Alif_CMSIS/Source/Driver_GPIO.c:507
    if (GPIO->cb_event[pin_no] != NULL)
8000292a:	6ac1      	ldr	r1, [r0, #44]	@ 0x2c
gpio_interrupt_eoi():
/Users/till/.cache/arm/packs/AlifSemiconductor/Ensemble/1.3.3/drivers/include/gpio.h:349
    gpio->GPIO_PORTA_EOI |= (1 << pin_no);
8000292c:	6cd0      	ldr	r0, [r2, #76]	@ 0x4c
GPIO_IRQ_Handler():
/Users/till/.cache/arm/packs/AlifSemiconductor/Ensemble/1.3.3/Alif_CMSIS/Source/Driver_GPIO.c:507
8000292e:	2900      	cmp	r1, #0
gpio_interrupt_eoi():
/Users/till/.cache/arm/packs/AlifSemiconductor/Ensemble/1.3.3/drivers/include/gpio.h:349
80002930:	f040 0010 	orr.w	r0, r0, #16
80002934:	64d0      	str	r0, [r2, #76]	@ 0x4c
/Users/till/.cache/arm/packs/AlifSemiconductor/Ensemble/1.3.3/drivers/include/gpio.h:350
    (void) gpio->GPIO_PORTA_EOI;
80002936:	6cd0      	ldr	r0, [r2, #76]	@ 0x4c
GPIO4_IRQ4Handler():
/Users/till/.cache/arm/packs/AlifSemiconductor/Ensemble/1.3.3/Alif_CMSIS/Source/Driver_GPIO.c:897
void GPIO4_IRQ4Handler  (void) {   GPIO_IRQ_Handler (&GPIO4_RES, 4);    }
80002938:	bf08      	it	eq
8000293a:	4770      	bxeq	lr
GPIO_IRQ_Handler():
/Users/till/.cache/arm/packs/AlifSemiconductor/Ensemble/1.3.3/Alif_CMSIS/Source/Driver_GPIO.c:509
        GPIO->cb_event[pin_no](ARM_GPIO_IRQ_EVENT_EXTERNAL);
8000293c:	2001      	movs	r0, #1
8000293e:	4708      	bx	r1

80002940 <GPIO4_IRQ5Handler>:
/Users/till/.cache/arm/packs/AlifSemiconductor/Ensemble/1.3.3/Alif_CMSIS/Source/Driver_GPIO.c:505
    gpio_interrupt_eoi(GPIO->reg_base, pin_no);
80002940:	f240 2028 	movw	r0, #552	@ 0x228
80002944:	f2c2 0000 	movt	r0, #8192	@ 0x2000
80002948:	6802      	ldr	r2, [r0, #0]
/Users/till/.cache/arm/packs/AlifSemiconductor/Ensemble/1.3.3/Alif_CMSIS/Source/Driver_GPIO.c:507
    if (GPIO->cb_event[pin_no] != NULL)
8000294a:	6b01      	ldr	r1, [r0, #48]	@ 0x30
gpio_interrupt_eoi():
/Users/till/.cache/arm/packs/AlifSemiconductor/Ensemble/1.3.3/drivers/include/gpio.h:349
    gpio->GPIO_PORTA_EOI |= (1 << pin_no);
8000294c:	6cd0      	ldr	r0, [r2, #76]	@ 0x4c
GPIO_IRQ_Handler():
/Users/till/.cache/arm/packs/AlifSemiconductor/Ensemble/1.3.3/Alif_CMSIS/Source/Driver_GPIO.c:507
8000294e:	2900      	cmp	r1, #0
gpio_interrupt_eoi():
/Users/till/.cache/arm/packs/AlifSemiconductor/Ensemble/1.3.3/drivers/include/gpio.h:349
80002950:	f040 0020 	orr.w	r0, r0, #32
80002954:	64d0      	str	r0, [r2, #76]	@ 0x4c
/Users/till/.cache/arm/packs/AlifSemiconductor/Ensemble/1.3.3/drivers/include/gpio.h:350
    (void) gpio->GPIO_PORTA_EOI;
80002956:	6cd0      	ldr	r0, [r2, #76]	@ 0x4c
GPIO4_IRQ5Handler():
/Users/till/.cache/arm/packs/AlifSemiconductor/Ensemble/1.3.3/Alif_CMSIS/Source/Driver_GPIO.c:899
void GPIO4_IRQ5Handler  (void) {   GPIO_IRQ_Handler (&GPIO4_RES, 5);    }
80002958:	bf08      	it	eq
8000295a:	4770      	bxeq	lr
GPIO_IRQ_Handler():
/Users/till/.cache/arm/packs/AlifSemiconductor/Ensemble/1.3.3/Alif_CMSIS/Source/Driver_GPIO.c:509
        GPIO->cb_event[pin_no](ARM_GPIO_IRQ_EVENT_EXTERNAL);
8000295c:	2001      	movs	r0, #1
8000295e:	4708      	bx	r1

80002960 <GPIO4_IRQ6Handler>:
/Users/till/.cache/arm/packs/AlifSemiconductor/Ensemble/1.3.3/Alif_CMSIS/Source/Driver_GPIO.c:505
    gpio_interrupt_eoi(GPIO->reg_base, pin_no);
80002960:	f240 2028 	movw	r0, #552	@ 0x228
80002964:	f2c2 0000 	movt	r0, #8192	@ 0x2000
80002968:	6802      	ldr	r2, [r0, #0]
/Users/till/.cache/arm/packs/AlifSemiconductor/Ensemble/1.3.3/Alif_CMSIS/Source/Driver_GPIO.c:507
    if (GPIO->cb_event[pin_no] != NULL)
8000296a:	6b41      	ldr	r1, [r0, #52]	@ 0x34
gpio_interrupt_eoi():
/Users/till/.cache/arm/packs/AlifSemiconductor/Ensemble/1.3.3/drivers/include/gpio.h:349
    gpio->GPIO_PORTA_EOI |= (1 << pin_no);
8000296c:	6cd0      	ldr	r0, [r2, #76]	@ 0x4c
GPIO_IRQ_Handler():
/Users/till/.cache/arm/packs/AlifSemiconductor/Ensemble/1.3.3/Alif_CMSIS/Source/Driver_GPIO.c:507
8000296e:	2900      	cmp	r1, #0
gpio_interrupt_eoi():
/Users/till/.cache/arm/packs/AlifSemiconductor/Ensemble/1.3.3/drivers/include/gpio.h:349
80002970:	f040 0040 	orr.w	r0, r0, #64	@ 0x40
80002974:	64d0      	str	r0, [r2, #76]	@ 0x4c
/Users/till/.cache/arm/packs/AlifSemiconductor/Ensemble/1.3.3/drivers/include/gpio.h:350
    (void) gpio->GPIO_PORTA_EOI;
80002976:	6cd0      	ldr	r0, [r2, #76]	@ 0x4c
GPIO4_IRQ6Handler():
/Users/till/.cache/arm/packs/AlifSemiconductor/Ensemble/1.3.3/Alif_CMSIS/Source/Driver_GPIO.c:901
void GPIO4_IRQ6Handler  (void) {   GPIO_IRQ_Handler (&GPIO4_RES, 6);    }
80002978:	bf08      	it	eq
8000297a:	4770      	bxeq	lr
GPIO_IRQ_Handler():
/Users/till/.cache/arm/packs/AlifSemiconductor/Ensemble/1.3.3/Alif_CMSIS/Source/Driver_GPIO.c:509
        GPIO->cb_event[pin_no](ARM_GPIO_IRQ_EVENT_EXTERNAL);
8000297c:	2001      	movs	r0, #1
8000297e:	4708      	bx	r1

80002980 <GPIO4_IRQ7Handler>:
/Users/till/.cache/arm/packs/AlifSemiconductor/Ensemble/1.3.3/Alif_CMSIS/Source/Driver_GPIO.c:505
    gpio_interrupt_eoi(GPIO->reg_base, pin_no);
80002980:	f240 2028 	movw	r0, #552	@ 0x228
80002984:	f2c2 0000 	movt	r0, #8192	@ 0x2000
80002988:	6802      	ldr	r2, [r0, #0]
/Users/till/.cache/arm/packs/AlifSemiconductor/Ensemble/1.3.3/Alif_CMSIS/Source/Driver_GPIO.c:507
    if (GPIO->cb_event[pin_no] != NULL)
8000298a:	6b81      	ldr	r1, [r0, #56]	@ 0x38
gpio_interrupt_eoi():
/Users/till/.cache/arm/packs/AlifSemiconductor/Ensemble/1.3.3/drivers/include/gpio.h:349
    gpio->GPIO_PORTA_EOI |= (1 << pin_no);
8000298c:	6cd0      	ldr	r0, [r2, #76]	@ 0x4c
GPIO_IRQ_Handler():
/Users/till/.cache/arm/packs/AlifSemiconductor/Ensemble/1.3.3/Alif_CMSIS/Source/Driver_GPIO.c:507
8000298e:	2900      	cmp	r1, #0
gpio_interrupt_eoi():
/Users/till/.cache/arm/packs/AlifSemiconductor/Ensemble/1.3.3/drivers/include/gpio.h:349
80002990:	f040 0080 	orr.w	r0, r0, #128	@ 0x80
80002994:	64d0      	str	r0, [r2, #76]	@ 0x4c
/Users/till/.cache/arm/packs/AlifSemiconductor/Ensemble/1.3.3/drivers/include/gpio.h:350
    (void) gpio->GPIO_PORTA_EOI;
80002996:	6cd0      	ldr	r0, [r2, #76]	@ 0x4c
GPIO4_IRQ7Handler():
/Users/till/.cache/arm/packs/AlifSemiconductor/Ensemble/1.3.3/Alif_CMSIS/Source/Driver_GPIO.c:903
void GPIO4_IRQ7Handler  (void) {   GPIO_IRQ_Handler (&GPIO4_RES, 7);    }
80002998:	bf08      	it	eq
8000299a:	4770      	bxeq	lr
GPIO_IRQ_Handler():
/Users/till/.cache/arm/packs/AlifSemiconductor/Ensemble/1.3.3/Alif_CMSIS/Source/Driver_GPIO.c:509
        GPIO->cb_event[pin_no](ARM_GPIO_IRQ_EVENT_EXTERNAL);
8000299c:	2001      	movs	r0, #1
8000299e:	4708      	bx	r1

800029a0 <GPIO5_IRQ0Handler>:
/Users/till/.cache/arm/packs/AlifSemiconductor/Ensemble/1.3.3/Alif_CMSIS/Source/Driver_GPIO.c:505
    gpio_interrupt_eoi(GPIO->reg_base, pin_no);
800029a0:	f240 2064 	movw	r0, #612	@ 0x264
800029a4:	f2c2 0000 	movt	r0, #8192	@ 0x2000
800029a8:	6802      	ldr	r2, [r0, #0]
/Users/till/.cache/arm/packs/AlifSemiconductor/Ensemble/1.3.3/Alif_CMSIS/Source/Driver_GPIO.c:507
    if (GPIO->cb_event[pin_no] != NULL)
800029aa:	69c1      	ldr	r1, [r0, #28]
gpio_interrupt_eoi():
/Users/till/.cache/arm/packs/AlifSemiconductor/Ensemble/1.3.3/drivers/include/gpio.h:349
    gpio->GPIO_PORTA_EOI |= (1 << pin_no);
800029ac:	6cd0      	ldr	r0, [r2, #76]	@ 0x4c
GPIO_IRQ_Handler():
/Users/till/.cache/arm/packs/AlifSemiconductor/Ensemble/1.3.3/Alif_CMSIS/Source/Driver_GPIO.c:507
800029ae:	2900      	cmp	r1, #0
gpio_interrupt_eoi():
/Users/till/.cache/arm/packs/AlifSemiconductor/Ensemble/1.3.3/drivers/include/gpio.h:349
800029b0:	f040 0001 	orr.w	r0, r0, #1
800029b4:	64d0      	str	r0, [r2, #76]	@ 0x4c
/Users/till/.cache/arm/packs/AlifSemiconductor/Ensemble/1.3.3/drivers/include/gpio.h:350
    (void) gpio->GPIO_PORTA_EOI;
800029b6:	6cd0      	ldr	r0, [r2, #76]	@ 0x4c
GPIO5_IRQ0Handler():
/Users/till/.cache/arm/packs/AlifSemiconductor/Ensemble/1.3.3/Alif_CMSIS/Source/Driver_GPIO.c:979
void GPIO5_IRQ0Handler  (void) {   GPIO_IRQ_Handler (&GPIO5_RES, 0);    }
800029b8:	bf08      	it	eq
800029ba:	4770      	bxeq	lr
GPIO_IRQ_Handler():
/Users/till/.cache/arm/packs/AlifSemiconductor/Ensemble/1.3.3/Alif_CMSIS/Source/Driver_GPIO.c:509
        GPIO->cb_event[pin_no](ARM_GPIO_IRQ_EVENT_EXTERNAL);
800029bc:	2001      	movs	r0, #1
800029be:	4708      	bx	r1

800029c0 <GPIO5_IRQ1Handler>:
/Users/till/.cache/arm/packs/AlifSemiconductor/Ensemble/1.3.3/Alif_CMSIS/Source/Driver_GPIO.c:505
    gpio_interrupt_eoi(GPIO->reg_base, pin_no);
800029c0:	f240 2064 	movw	r0, #612	@ 0x264
800029c4:	f2c2 0000 	movt	r0, #8192	@ 0x2000
800029c8:	6802      	ldr	r2, [r0, #0]
/Users/till/.cache/arm/packs/AlifSemiconductor/Ensemble/1.3.3/Alif_CMSIS/Source/Driver_GPIO.c:507
    if (GPIO->cb_event[pin_no] != NULL)
800029ca:	6a01      	ldr	r1, [r0, #32]
gpio_interrupt_eoi():
/Users/till/.cache/arm/packs/AlifSemiconductor/Ensemble/1.3.3/drivers/include/gpio.h:349
    gpio->GPIO_PORTA_EOI |= (1 << pin_no);
800029cc:	6cd0      	ldr	r0, [r2, #76]	@ 0x4c
GPIO_IRQ_Handler():
/Users/till/.cache/arm/packs/AlifSemiconductor/Ensemble/1.3.3/Alif_CMSIS/Source/Driver_GPIO.c:507
800029ce:	2900      	cmp	r1, #0
gpio_interrupt_eoi():
/Users/till/.cache/arm/packs/AlifSemiconductor/Ensemble/1.3.3/drivers/include/gpio.h:349
800029d0:	f040 0002 	orr.w	r0, r0, #2
800029d4:	64d0      	str	r0, [r2, #76]	@ 0x4c
/Users/till/.cache/arm/packs/AlifSemiconductor/Ensemble/1.3.3/drivers/include/gpio.h:350
    (void) gpio->GPIO_PORTA_EOI;
800029d6:	6cd0      	ldr	r0, [r2, #76]	@ 0x4c
GPIO5_IRQ1Handler():
/Users/till/.cache/arm/packs/AlifSemiconductor/Ensemble/1.3.3/Alif_CMSIS/Source/Driver_GPIO.c:981
void GPIO5_IRQ1Handler  (void) {   GPIO_IRQ_Handler (&GPIO5_RES, 1);    }
800029d8:	bf08      	it	eq
800029da:	4770      	bxeq	lr
GPIO_IRQ_Handler():
/Users/till/.cache/arm/packs/AlifSemiconductor/Ensemble/1.3.3/Alif_CMSIS/Source/Driver_GPIO.c:509
        GPIO->cb_event[pin_no](ARM_GPIO_IRQ_EVENT_EXTERNAL);
800029dc:	2001      	movs	r0, #1
800029de:	4708      	bx	r1

800029e0 <GPIO5_IRQ2Handler>:
/Users/till/.cache/arm/packs/AlifSemiconductor/Ensemble/1.3.3/Alif_CMSIS/Source/Driver_GPIO.c:505
    gpio_interrupt_eoi(GPIO->reg_base, pin_no);
800029e0:	f240 2064 	movw	r0, #612	@ 0x264
800029e4:	f2c2 0000 	movt	r0, #8192	@ 0x2000
800029e8:	6802      	ldr	r2, [r0, #0]
/Users/till/.cache/arm/packs/AlifSemiconductor/Ensemble/1.3.3/Alif_CMSIS/Source/Driver_GPIO.c:507
    if (GPIO->cb_event[pin_no] != NULL)
800029ea:	6a41      	ldr	r1, [r0, #36]	@ 0x24
gpio_interrupt_eoi():
/Users/till/.cache/arm/packs/AlifSemiconductor/Ensemble/1.3.3/drivers/include/gpio.h:349
    gpio->GPIO_PORTA_EOI |= (1 << pin_no);
800029ec:	6cd0      	ldr	r0, [r2, #76]	@ 0x4c
GPIO_IRQ_Handler():
/Users/till/.cache/arm/packs/AlifSemiconductor/Ensemble/1.3.3/Alif_CMSIS/Source/Driver_GPIO.c:507
800029ee:	2900      	cmp	r1, #0
gpio_interrupt_eoi():
/Users/till/.cache/arm/packs/AlifSemiconductor/Ensemble/1.3.3/drivers/include/gpio.h:349
800029f0:	f040 0004 	orr.w	r0, r0, #4
800029f4:	64d0      	str	r0, [r2, #76]	@ 0x4c
/Users/till/.cache/arm/packs/AlifSemiconductor/Ensemble/1.3.3/drivers/include/gpio.h:350
    (void) gpio->GPIO_PORTA_EOI;
800029f6:	6cd0      	ldr	r0, [r2, #76]	@ 0x4c
GPIO5_IRQ2Handler():
/Users/till/.cache/arm/packs/AlifSemiconductor/Ensemble/1.3.3/Alif_CMSIS/Source/Driver_GPIO.c:983
void GPIO5_IRQ2Handler  (void) {   GPIO_IRQ_Handler (&GPIO5_RES, 2);    }
800029f8:	bf08      	it	eq
800029fa:	4770      	bxeq	lr
GPIO_IRQ_Handler():
/Users/till/.cache/arm/packs/AlifSemiconductor/Ensemble/1.3.3/Alif_CMSIS/Source/Driver_GPIO.c:509
        GPIO->cb_event[pin_no](ARM_GPIO_IRQ_EVENT_EXTERNAL);
800029fc:	2001      	movs	r0, #1
800029fe:	4708      	bx	r1

80002a00 <GPIO5_IRQ3Handler>:
/Users/till/.cache/arm/packs/AlifSemiconductor/Ensemble/1.3.3/Alif_CMSIS/Source/Driver_GPIO.c:505
    gpio_interrupt_eoi(GPIO->reg_base, pin_no);
80002a00:	f240 2064 	movw	r0, #612	@ 0x264
80002a04:	f2c2 0000 	movt	r0, #8192	@ 0x2000
80002a08:	6802      	ldr	r2, [r0, #0]
/Users/till/.cache/arm/packs/AlifSemiconductor/Ensemble/1.3.3/Alif_CMSIS/Source/Driver_GPIO.c:507
    if (GPIO->cb_event[pin_no] != NULL)
80002a0a:	6a81      	ldr	r1, [r0, #40]	@ 0x28
gpio_interrupt_eoi():
/Users/till/.cache/arm/packs/AlifSemiconductor/Ensemble/1.3.3/drivers/include/gpio.h:349
    gpio->GPIO_PORTA_EOI |= (1 << pin_no);
80002a0c:	6cd0      	ldr	r0, [r2, #76]	@ 0x4c
GPIO_IRQ_Handler():
/Users/till/.cache/arm/packs/AlifSemiconductor/Ensemble/1.3.3/Alif_CMSIS/Source/Driver_GPIO.c:507
80002a0e:	2900      	cmp	r1, #0
gpio_interrupt_eoi():
/Users/till/.cache/arm/packs/AlifSemiconductor/Ensemble/1.3.3/drivers/include/gpio.h:349
80002a10:	f040 0008 	orr.w	r0, r0, #8
80002a14:	64d0      	str	r0, [r2, #76]	@ 0x4c
/Users/till/.cache/arm/packs/AlifSemiconductor/Ensemble/1.3.3/drivers/include/gpio.h:350
    (void) gpio->GPIO_PORTA_EOI;
80002a16:	6cd0      	ldr	r0, [r2, #76]	@ 0x4c
GPIO5_IRQ3Handler():
/Users/till/.cache/arm/packs/AlifSemiconductor/Ensemble/1.3.3/Alif_CMSIS/Source/Driver_GPIO.c:985
void GPIO5_IRQ3Handler  (void) {   GPIO_IRQ_Handler (&GPIO5_RES, 3);    }
80002a18:	bf08      	it	eq
80002a1a:	4770      	bxeq	lr
GPIO_IRQ_Handler():
/Users/till/.cache/arm/packs/AlifSemiconductor/Ensemble/1.3.3/Alif_CMSIS/Source/Driver_GPIO.c:509
        GPIO->cb_event[pin_no](ARM_GPIO_IRQ_EVENT_EXTERNAL);
80002a1c:	2001      	movs	r0, #1
80002a1e:	4708      	bx	r1

80002a20 <GPIO5_IRQ4Handler>:
/Users/till/.cache/arm/packs/AlifSemiconductor/Ensemble/1.3.3/Alif_CMSIS/Source/Driver_GPIO.c:505
    gpio_interrupt_eoi(GPIO->reg_base, pin_no);
80002a20:	f240 2064 	movw	r0, #612	@ 0x264
80002a24:	f2c2 0000 	movt	r0, #8192	@ 0x2000
80002a28:	6802      	ldr	r2, [r0, #0]
/Users/till/.cache/arm/packs/AlifSemiconductor/Ensemble/1.3.3/Alif_CMSIS/Source/Driver_GPIO.c:507
    if (GPIO->cb_event[pin_no] != NULL)
80002a2a:	6ac1      	ldr	r1, [r0, #44]	@ 0x2c
gpio_interrupt_eoi():
/Users/till/.cache/arm/packs/AlifSemiconductor/Ensemble/1.3.3/drivers/include/gpio.h:349
    gpio->GPIO_PORTA_EOI |= (1 << pin_no);
80002a2c:	6cd0      	ldr	r0, [r2, #76]	@ 0x4c
GPIO_IRQ_Handler():
/Users/till/.cache/arm/packs/AlifSemiconductor/Ensemble/1.3.3/Alif_CMSIS/Source/Driver_GPIO.c:507
80002a2e:	2900      	cmp	r1, #0
gpio_interrupt_eoi():
/Users/till/.cache/arm/packs/AlifSemiconductor/Ensemble/1.3.3/drivers/include/gpio.h:349
80002a30:	f040 0010 	orr.w	r0, r0, #16
80002a34:	64d0      	str	r0, [r2, #76]	@ 0x4c
/Users/till/.cache/arm/packs/AlifSemiconductor/Ensemble/1.3.3/drivers/include/gpio.h:350
    (void) gpio->GPIO_PORTA_EOI;
80002a36:	6cd0      	ldr	r0, [r2, #76]	@ 0x4c
GPIO5_IRQ4Handler():
/Users/till/.cache/arm/packs/AlifSemiconductor/Ensemble/1.3.3/Alif_CMSIS/Source/Driver_GPIO.c:987
void GPIO5_IRQ4Handler  (void) {   GPIO_IRQ_Handler (&GPIO5_RES, 4);    }
80002a38:	bf08      	it	eq
80002a3a:	4770      	bxeq	lr
GPIO_IRQ_Handler():
/Users/till/.cache/arm/packs/AlifSemiconductor/Ensemble/1.3.3/Alif_CMSIS/Source/Driver_GPIO.c:509
        GPIO->cb_event[pin_no](ARM_GPIO_IRQ_EVENT_EXTERNAL);
80002a3c:	2001      	movs	r0, #1
80002a3e:	4708      	bx	r1

80002a40 <GPIO5_IRQ5Handler>:
/Users/till/.cache/arm/packs/AlifSemiconductor/Ensemble/1.3.3/Alif_CMSIS/Source/Driver_GPIO.c:505
    gpio_interrupt_eoi(GPIO->reg_base, pin_no);
80002a40:	f240 2064 	movw	r0, #612	@ 0x264
80002a44:	f2c2 0000 	movt	r0, #8192	@ 0x2000
80002a48:	6802      	ldr	r2, [r0, #0]
/Users/till/.cache/arm/packs/AlifSemiconductor/Ensemble/1.3.3/Alif_CMSIS/Source/Driver_GPIO.c:507
    if (GPIO->cb_event[pin_no] != NULL)
80002a4a:	6b01      	ldr	r1, [r0, #48]	@ 0x30
gpio_interrupt_eoi():
/Users/till/.cache/arm/packs/AlifSemiconductor/Ensemble/1.3.3/drivers/include/gpio.h:349
    gpio->GPIO_PORTA_EOI |= (1 << pin_no);
80002a4c:	6cd0      	ldr	r0, [r2, #76]	@ 0x4c
GPIO_IRQ_Handler():
/Users/till/.cache/arm/packs/AlifSemiconductor/Ensemble/1.3.3/Alif_CMSIS/Source/Driver_GPIO.c:507
80002a4e:	2900      	cmp	r1, #0
gpio_interrupt_eoi():
/Users/till/.cache/arm/packs/AlifSemiconductor/Ensemble/1.3.3/drivers/include/gpio.h:349
80002a50:	f040 0020 	orr.w	r0, r0, #32
80002a54:	64d0      	str	r0, [r2, #76]	@ 0x4c
/Users/till/.cache/arm/packs/AlifSemiconductor/Ensemble/1.3.3/drivers/include/gpio.h:350
    (void) gpio->GPIO_PORTA_EOI;
80002a56:	6cd0      	ldr	r0, [r2, #76]	@ 0x4c
GPIO5_IRQ5Handler():
/Users/till/.cache/arm/packs/AlifSemiconductor/Ensemble/1.3.3/Alif_CMSIS/Source/Driver_GPIO.c:989
void GPIO5_IRQ5Handler  (void) {   GPIO_IRQ_Handler (&GPIO5_RES, 5);    }
80002a58:	bf08      	it	eq
80002a5a:	4770      	bxeq	lr
GPIO_IRQ_Handler():
/Users/till/.cache/arm/packs/AlifSemiconductor/Ensemble/1.3.3/Alif_CMSIS/Source/Driver_GPIO.c:509
        GPIO->cb_event[pin_no](ARM_GPIO_IRQ_EVENT_EXTERNAL);
80002a5c:	2001      	movs	r0, #1
80002a5e:	4708      	bx	r1

80002a60 <GPIO5_IRQ6Handler>:
/Users/till/.cache/arm/packs/AlifSemiconductor/Ensemble/1.3.3/Alif_CMSIS/Source/Driver_GPIO.c:505
    gpio_interrupt_eoi(GPIO->reg_base, pin_no);
80002a60:	f240 2064 	movw	r0, #612	@ 0x264
80002a64:	f2c2 0000 	movt	r0, #8192	@ 0x2000
80002a68:	6802      	ldr	r2, [r0, #0]
/Users/till/.cache/arm/packs/AlifSemiconductor/Ensemble/1.3.3/Alif_CMSIS/Source/Driver_GPIO.c:507
    if (GPIO->cb_event[pin_no] != NULL)
80002a6a:	6b41      	ldr	r1, [r0, #52]	@ 0x34
gpio_interrupt_eoi():
/Users/till/.cache/arm/packs/AlifSemiconductor/Ensemble/1.3.3/drivers/include/gpio.h:349
    gpio->GPIO_PORTA_EOI |= (1 << pin_no);
80002a6c:	6cd0      	ldr	r0, [r2, #76]	@ 0x4c
GPIO_IRQ_Handler():
/Users/till/.cache/arm/packs/AlifSemiconductor/Ensemble/1.3.3/Alif_CMSIS/Source/Driver_GPIO.c:507
80002a6e:	2900      	cmp	r1, #0
gpio_interrupt_eoi():
/Users/till/.cache/arm/packs/AlifSemiconductor/Ensemble/1.3.3/drivers/include/gpio.h:349
80002a70:	f040 0040 	orr.w	r0, r0, #64	@ 0x40
80002a74:	64d0      	str	r0, [r2, #76]	@ 0x4c
/Users/till/.cache/arm/packs/AlifSemiconductor/Ensemble/1.3.3/drivers/include/gpio.h:350
    (void) gpio->GPIO_PORTA_EOI;
80002a76:	6cd0      	ldr	r0, [r2, #76]	@ 0x4c
GPIO5_IRQ6Handler():
/Users/till/.cache/arm/packs/AlifSemiconductor/Ensemble/1.3.3/Alif_CMSIS/Source/Driver_GPIO.c:991
void GPIO5_IRQ6Handler  (void) {   GPIO_IRQ_Handler (&GPIO5_RES, 6);    }
80002a78:	bf08      	it	eq
80002a7a:	4770      	bxeq	lr
GPIO_IRQ_Handler():
/Users/till/.cache/arm/packs/AlifSemiconductor/Ensemble/1.3.3/Alif_CMSIS/Source/Driver_GPIO.c:509
        GPIO->cb_event[pin_no](ARM_GPIO_IRQ_EVENT_EXTERNAL);
80002a7c:	2001      	movs	r0, #1
80002a7e:	4708      	bx	r1

80002a80 <GPIO5_IRQ7Handler>:
/Users/till/.cache/arm/packs/AlifSemiconductor/Ensemble/1.3.3/Alif_CMSIS/Source/Driver_GPIO.c:505
    gpio_interrupt_eoi(GPIO->reg_base, pin_no);
80002a80:	f240 2064 	movw	r0, #612	@ 0x264
80002a84:	f2c2 0000 	movt	r0, #8192	@ 0x2000
80002a88:	6802      	ldr	r2, [r0, #0]
/Users/till/.cache/arm/packs/AlifSemiconductor/Ensemble/1.3.3/Alif_CMSIS/Source/Driver_GPIO.c:507
    if (GPIO->cb_event[pin_no] != NULL)
80002a8a:	6b81      	ldr	r1, [r0, #56]	@ 0x38
gpio_interrupt_eoi():
/Users/till/.cache/arm/packs/AlifSemiconductor/Ensemble/1.3.3/drivers/include/gpio.h:349
    gpio->GPIO_PORTA_EOI |= (1 << pin_no);
80002a8c:	6cd0      	ldr	r0, [r2, #76]	@ 0x4c
GPIO_IRQ_Handler():
/Users/till/.cache/arm/packs/AlifSemiconductor/Ensemble/1.3.3/Alif_CMSIS/Source/Driver_GPIO.c:507
80002a8e:	2900      	cmp	r1, #0
gpio_interrupt_eoi():
/Users/till/.cache/arm/packs/AlifSemiconductor/Ensemble/1.3.3/drivers/include/gpio.h:349
80002a90:	f040 0080 	orr.w	r0, r0, #128	@ 0x80
80002a94:	64d0      	str	r0, [r2, #76]	@ 0x4c
/Users/till/.cache/arm/packs/AlifSemiconductor/Ensemble/1.3.3/drivers/include/gpio.h:350
    (void) gpio->GPIO_PORTA_EOI;
80002a96:	6cd0      	ldr	r0, [r2, #76]	@ 0x4c
GPIO5_IRQ7Handler():
/Users/till/.cache/arm/packs/AlifSemiconductor/Ensemble/1.3.3/Alif_CMSIS/Source/Driver_GPIO.c:993
void GPIO5_IRQ7Handler  (void) {   GPIO_IRQ_Handler (&GPIO5_RES, 7);    }
80002a98:	bf08      	it	eq
80002a9a:	4770      	bxeq	lr
GPIO_IRQ_Handler():
/Users/till/.cache/arm/packs/AlifSemiconductor/Ensemble/1.3.3/Alif_CMSIS/Source/Driver_GPIO.c:509
        GPIO->cb_event[pin_no](ARM_GPIO_IRQ_EVENT_EXTERNAL);
80002a9c:	2001      	movs	r0, #1
80002a9e:	4708      	bx	r1

80002aa0 <GPIO6_IRQ0Handler>:
/Users/till/.cache/arm/packs/AlifSemiconductor/Ensemble/1.3.3/Alif_CMSIS/Source/Driver_GPIO.c:505
    gpio_interrupt_eoi(GPIO->reg_base, pin_no);
80002aa0:	f240 20a0 	movw	r0, #672	@ 0x2a0
80002aa4:	f2c2 0000 	movt	r0, #8192	@ 0x2000
80002aa8:	6802      	ldr	r2, [r0, #0]
/Users/till/.cache/arm/packs/AlifSemiconductor/Ensemble/1.3.3/Alif_CMSIS/Source/Driver_GPIO.c:507
    if (GPIO->cb_event[pin_no] != NULL)
80002aaa:	69c1      	ldr	r1, [r0, #28]
gpio_interrupt_eoi():
/Users/till/.cache/arm/packs/AlifSemiconductor/Ensemble/1.3.3/drivers/include/gpio.h:349
    gpio->GPIO_PORTA_EOI |= (1 << pin_no);
80002aac:	6cd0      	ldr	r0, [r2, #76]	@ 0x4c
GPIO_IRQ_Handler():
/Users/till/.cache/arm/packs/AlifSemiconductor/Ensemble/1.3.3/Alif_CMSIS/Source/Driver_GPIO.c:507
80002aae:	2900      	cmp	r1, #0
gpio_interrupt_eoi():
/Users/till/.cache/arm/packs/AlifSemiconductor/Ensemble/1.3.3/drivers/include/gpio.h:349
80002ab0:	f040 0001 	orr.w	r0, r0, #1
80002ab4:	64d0      	str	r0, [r2, #76]	@ 0x4c
/Users/till/.cache/arm/packs/AlifSemiconductor/Ensemble/1.3.3/drivers/include/gpio.h:350
    (void) gpio->GPIO_PORTA_EOI;
80002ab6:	6cd0      	ldr	r0, [r2, #76]	@ 0x4c
GPIO6_IRQ0Handler():
/Users/till/.cache/arm/packs/AlifSemiconductor/Ensemble/1.3.3/Alif_CMSIS/Source/Driver_GPIO.c:1069
void GPIO6_IRQ0Handler  (void) {   GPIO_IRQ_Handler (&GPIO6_RES, 0);    }
80002ab8:	bf08      	it	eq
80002aba:	4770      	bxeq	lr
GPIO_IRQ_Handler():
/Users/till/.cache/arm/packs/AlifSemiconductor/Ensemble/1.3.3/Alif_CMSIS/Source/Driver_GPIO.c:509
        GPIO->cb_event[pin_no](ARM_GPIO_IRQ_EVENT_EXTERNAL);
80002abc:	2001      	movs	r0, #1
80002abe:	4708      	bx	r1

80002ac0 <GPIO6_IRQ1Handler>:
/Users/till/.cache/arm/packs/AlifSemiconductor/Ensemble/1.3.3/Alif_CMSIS/Source/Driver_GPIO.c:505
    gpio_interrupt_eoi(GPIO->reg_base, pin_no);
80002ac0:	f240 20a0 	movw	r0, #672	@ 0x2a0
80002ac4:	f2c2 0000 	movt	r0, #8192	@ 0x2000
80002ac8:	6802      	ldr	r2, [r0, #0]
/Users/till/.cache/arm/packs/AlifSemiconductor/Ensemble/1.3.3/Alif_CMSIS/Source/Driver_GPIO.c:507
    if (GPIO->cb_event[pin_no] != NULL)
80002aca:	6a01      	ldr	r1, [r0, #32]
gpio_interrupt_eoi():
/Users/till/.cache/arm/packs/AlifSemiconductor/Ensemble/1.3.3/drivers/include/gpio.h:349
    gpio->GPIO_PORTA_EOI |= (1 << pin_no);
80002acc:	6cd0      	ldr	r0, [r2, #76]	@ 0x4c
GPIO_IRQ_Handler():
/Users/till/.cache/arm/packs/AlifSemiconductor/Ensemble/1.3.3/Alif_CMSIS/Source/Driver_GPIO.c:507
80002ace:	2900      	cmp	r1, #0
gpio_interrupt_eoi():
/Users/till/.cache/arm/packs/AlifSemiconductor/Ensemble/1.3.3/drivers/include/gpio.h:349
80002ad0:	f040 0002 	orr.w	r0, r0, #2
80002ad4:	64d0      	str	r0, [r2, #76]	@ 0x4c
/Users/till/.cache/arm/packs/AlifSemiconductor/Ensemble/1.3.3/drivers/include/gpio.h:350
    (void) gpio->GPIO_PORTA_EOI;
80002ad6:	6cd0      	ldr	r0, [r2, #76]	@ 0x4c
GPIO6_IRQ1Handler():
/Users/till/.cache/arm/packs/AlifSemiconductor/Ensemble/1.3.3/Alif_CMSIS/Source/Driver_GPIO.c:1071
void GPIO6_IRQ1Handler  (void) {   GPIO_IRQ_Handler (&GPIO6_RES, 1);    }
80002ad8:	bf08      	it	eq
80002ada:	4770      	bxeq	lr
GPIO_IRQ_Handler():
/Users/till/.cache/arm/packs/AlifSemiconductor/Ensemble/1.3.3/Alif_CMSIS/Source/Driver_GPIO.c:509
        GPIO->cb_event[pin_no](ARM_GPIO_IRQ_EVENT_EXTERNAL);
80002adc:	2001      	movs	r0, #1
80002ade:	4708      	bx	r1

80002ae0 <GPIO6_IRQ2Handler>:
/Users/till/.cache/arm/packs/AlifSemiconductor/Ensemble/1.3.3/Alif_CMSIS/Source/Driver_GPIO.c:505
    gpio_interrupt_eoi(GPIO->reg_base, pin_no);
80002ae0:	f240 20a0 	movw	r0, #672	@ 0x2a0
80002ae4:	f2c2 0000 	movt	r0, #8192	@ 0x2000
80002ae8:	6802      	ldr	r2, [r0, #0]
/Users/till/.cache/arm/packs/AlifSemiconductor/Ensemble/1.3.3/Alif_CMSIS/Source/Driver_GPIO.c:507
    if (GPIO->cb_event[pin_no] != NULL)
80002aea:	6a41      	ldr	r1, [r0, #36]	@ 0x24
gpio_interrupt_eoi():
/Users/till/.cache/arm/packs/AlifSemiconductor/Ensemble/1.3.3/drivers/include/gpio.h:349
    gpio->GPIO_PORTA_EOI |= (1 << pin_no);
80002aec:	6cd0      	ldr	r0, [r2, #76]	@ 0x4c
GPIO_IRQ_Handler():
/Users/till/.cache/arm/packs/AlifSemiconductor/Ensemble/1.3.3/Alif_CMSIS/Source/Driver_GPIO.c:507
80002aee:	2900      	cmp	r1, #0
gpio_interrupt_eoi():
/Users/till/.cache/arm/packs/AlifSemiconductor/Ensemble/1.3.3/drivers/include/gpio.h:349
80002af0:	f040 0004 	orr.w	r0, r0, #4
80002af4:	64d0      	str	r0, [r2, #76]	@ 0x4c
/Users/till/.cache/arm/packs/AlifSemiconductor/Ensemble/1.3.3/drivers/include/gpio.h:350
    (void) gpio->GPIO_PORTA_EOI;
80002af6:	6cd0      	ldr	r0, [r2, #76]	@ 0x4c
GPIO6_IRQ2Handler():
/Users/till/.cache/arm/packs/AlifSemiconductor/Ensemble/1.3.3/Alif_CMSIS/Source/Driver_GPIO.c:1073
void GPIO6_IRQ2Handler  (void) {   GPIO_IRQ_Handler (&GPIO6_RES, 2);    }
80002af8:	bf08      	it	eq
80002afa:	4770      	bxeq	lr
GPIO_IRQ_Handler():
/Users/till/.cache/arm/packs/AlifSemiconductor/Ensemble/1.3.3/Alif_CMSIS/Source/Driver_GPIO.c:509
        GPIO->cb_event[pin_no](ARM_GPIO_IRQ_EVENT_EXTERNAL);
80002afc:	2001      	movs	r0, #1
80002afe:	4708      	bx	r1

80002b00 <GPIO6_IRQ3Handler>:
/Users/till/.cache/arm/packs/AlifSemiconductor/Ensemble/1.3.3/Alif_CMSIS/Source/Driver_GPIO.c:505
    gpio_interrupt_eoi(GPIO->reg_base, pin_no);
80002b00:	f240 20a0 	movw	r0, #672	@ 0x2a0
80002b04:	f2c2 0000 	movt	r0, #8192	@ 0x2000
80002b08:	6802      	ldr	r2, [r0, #0]
/Users/till/.cache/arm/packs/AlifSemiconductor/Ensemble/1.3.3/Alif_CMSIS/Source/Driver_GPIO.c:507
    if (GPIO->cb_event[pin_no] != NULL)
80002b0a:	6a81      	ldr	r1, [r0, #40]	@ 0x28
gpio_interrupt_eoi():
/Users/till/.cache/arm/packs/AlifSemiconductor/Ensemble/1.3.3/drivers/include/gpio.h:349
    gpio->GPIO_PORTA_EOI |= (1 << pin_no);
80002b0c:	6cd0      	ldr	r0, [r2, #76]	@ 0x4c
GPIO_IRQ_Handler():
/Users/till/.cache/arm/packs/AlifSemiconductor/Ensemble/1.3.3/Alif_CMSIS/Source/Driver_GPIO.c:507
80002b0e:	2900      	cmp	r1, #0
gpio_interrupt_eoi():
/Users/till/.cache/arm/packs/AlifSemiconductor/Ensemble/1.3.3/drivers/include/gpio.h:349
80002b10:	f040 0008 	orr.w	r0, r0, #8
80002b14:	64d0      	str	r0, [r2, #76]	@ 0x4c
/Users/till/.cache/arm/packs/AlifSemiconductor/Ensemble/1.3.3/drivers/include/gpio.h:350
    (void) gpio->GPIO_PORTA_EOI;
80002b16:	6cd0      	ldr	r0, [r2, #76]	@ 0x4c
GPIO6_IRQ3Handler():
/Users/till/.cache/arm/packs/AlifSemiconductor/Ensemble/1.3.3/Alif_CMSIS/Source/Driver_GPIO.c:1075
void GPIO6_IRQ3Handler  (void) {   GPIO_IRQ_Handler (&GPIO6_RES, 3);    }
80002b18:	bf08      	it	eq
80002b1a:	4770      	bxeq	lr
GPIO_IRQ_Handler():
/Users/till/.cache/arm/packs/AlifSemiconductor/Ensemble/1.3.3/Alif_CMSIS/Source/Driver_GPIO.c:509
        GPIO->cb_event[pin_no](ARM_GPIO_IRQ_EVENT_EXTERNAL);
80002b1c:	2001      	movs	r0, #1
80002b1e:	4708      	bx	r1

80002b20 <GPIO6_IRQ4Handler>:
/Users/till/.cache/arm/packs/AlifSemiconductor/Ensemble/1.3.3/Alif_CMSIS/Source/Driver_GPIO.c:505
    gpio_interrupt_eoi(GPIO->reg_base, pin_no);
80002b20:	f240 20a0 	movw	r0, #672	@ 0x2a0
80002b24:	f2c2 0000 	movt	r0, #8192	@ 0x2000
80002b28:	6802      	ldr	r2, [r0, #0]
/Users/till/.cache/arm/packs/AlifSemiconductor/Ensemble/1.3.3/Alif_CMSIS/Source/Driver_GPIO.c:507
    if (GPIO->cb_event[pin_no] != NULL)
80002b2a:	6ac1      	ldr	r1, [r0, #44]	@ 0x2c
gpio_interrupt_eoi():
/Users/till/.cache/arm/packs/AlifSemiconductor/Ensemble/1.3.3/drivers/include/gpio.h:349
    gpio->GPIO_PORTA_EOI |= (1 << pin_no);
80002b2c:	6cd0      	ldr	r0, [r2, #76]	@ 0x4c
GPIO_IRQ_Handler():
/Users/till/.cache/arm/packs/AlifSemiconductor/Ensemble/1.3.3/Alif_CMSIS/Source/Driver_GPIO.c:507
80002b2e:	2900      	cmp	r1, #0
gpio_interrupt_eoi():
/Users/till/.cache/arm/packs/AlifSemiconductor/Ensemble/1.3.3/drivers/include/gpio.h:349
80002b30:	f040 0010 	orr.w	r0, r0, #16
80002b34:	64d0      	str	r0, [r2, #76]	@ 0x4c
/Users/till/.cache/arm/packs/AlifSemiconductor/Ensemble/1.3.3/drivers/include/gpio.h:350
    (void) gpio->GPIO_PORTA_EOI;
80002b36:	6cd0      	ldr	r0, [r2, #76]	@ 0x4c
GPIO6_IRQ4Handler():
/Users/till/.cache/arm/packs/AlifSemiconductor/Ensemble/1.3.3/Alif_CMSIS/Source/Driver_GPIO.c:1077
void GPIO6_IRQ4Handler  (void) {   GPIO_IRQ_Handler (&GPIO6_RES, 4);    }
80002b38:	bf08      	it	eq
80002b3a:	4770      	bxeq	lr
GPIO_IRQ_Handler():
/Users/till/.cache/arm/packs/AlifSemiconductor/Ensemble/1.3.3/Alif_CMSIS/Source/Driver_GPIO.c:509
        GPIO->cb_event[pin_no](ARM_GPIO_IRQ_EVENT_EXTERNAL);
80002b3c:	2001      	movs	r0, #1
80002b3e:	4708      	bx	r1

80002b40 <GPIO6_IRQ5Handler>:
/Users/till/.cache/arm/packs/AlifSemiconductor/Ensemble/1.3.3/Alif_CMSIS/Source/Driver_GPIO.c:505
    gpio_interrupt_eoi(GPIO->reg_base, pin_no);
80002b40:	f240 20a0 	movw	r0, #672	@ 0x2a0
80002b44:	f2c2 0000 	movt	r0, #8192	@ 0x2000
80002b48:	6802      	ldr	r2, [r0, #0]
/Users/till/.cache/arm/packs/AlifSemiconductor/Ensemble/1.3.3/Alif_CMSIS/Source/Driver_GPIO.c:507
    if (GPIO->cb_event[pin_no] != NULL)
80002b4a:	6b01      	ldr	r1, [r0, #48]	@ 0x30
gpio_interrupt_eoi():
/Users/till/.cache/arm/packs/AlifSemiconductor/Ensemble/1.3.3/drivers/include/gpio.h:349
    gpio->GPIO_PORTA_EOI |= (1 << pin_no);
80002b4c:	6cd0      	ldr	r0, [r2, #76]	@ 0x4c
GPIO_IRQ_Handler():
/Users/till/.cache/arm/packs/AlifSemiconductor/Ensemble/1.3.3/Alif_CMSIS/Source/Driver_GPIO.c:507
80002b4e:	2900      	cmp	r1, #0
gpio_interrupt_eoi():
/Users/till/.cache/arm/packs/AlifSemiconductor/Ensemble/1.3.3/drivers/include/gpio.h:349
80002b50:	f040 0020 	orr.w	r0, r0, #32
80002b54:	64d0      	str	r0, [r2, #76]	@ 0x4c
/Users/till/.cache/arm/packs/AlifSemiconductor/Ensemble/1.3.3/drivers/include/gpio.h:350
    (void) gpio->GPIO_PORTA_EOI;
80002b56:	6cd0      	ldr	r0, [r2, #76]	@ 0x4c
GPIO6_IRQ5Handler():
/Users/till/.cache/arm/packs/AlifSemiconductor/Ensemble/1.3.3/Alif_CMSIS/Source/Driver_GPIO.c:1079
void GPIO6_IRQ5Handler  (void) {   GPIO_IRQ_Handler (&GPIO6_RES, 5);    }
80002b58:	bf08      	it	eq
80002b5a:	4770      	bxeq	lr
GPIO_IRQ_Handler():
/Users/till/.cache/arm/packs/AlifSemiconductor/Ensemble/1.3.3/Alif_CMSIS/Source/Driver_GPIO.c:509
        GPIO->cb_event[pin_no](ARM_GPIO_IRQ_EVENT_EXTERNAL);
80002b5c:	2001      	movs	r0, #1
80002b5e:	4708      	bx	r1

80002b60 <GPIO6_IRQ6Handler>:
/Users/till/.cache/arm/packs/AlifSemiconductor/Ensemble/1.3.3/Alif_CMSIS/Source/Driver_GPIO.c:505
    gpio_interrupt_eoi(GPIO->reg_base, pin_no);
80002b60:	f240 20a0 	movw	r0, #672	@ 0x2a0
80002b64:	f2c2 0000 	movt	r0, #8192	@ 0x2000
80002b68:	6802      	ldr	r2, [r0, #0]
/Users/till/.cache/arm/packs/AlifSemiconductor/Ensemble/1.3.3/Alif_CMSIS/Source/Driver_GPIO.c:507
    if (GPIO->cb_event[pin_no] != NULL)
80002b6a:	6b41      	ldr	r1, [r0, #52]	@ 0x34
gpio_interrupt_eoi():
/Users/till/.cache/arm/packs/AlifSemiconductor/Ensemble/1.3.3/drivers/include/gpio.h:349
    gpio->GPIO_PORTA_EOI |= (1 << pin_no);
80002b6c:	6cd0      	ldr	r0, [r2, #76]	@ 0x4c
GPIO_IRQ_Handler():
/Users/till/.cache/arm/packs/AlifSemiconductor/Ensemble/1.3.3/Alif_CMSIS/Source/Driver_GPIO.c:507
80002b6e:	2900      	cmp	r1, #0
gpio_interrupt_eoi():
/Users/till/.cache/arm/packs/AlifSemiconductor/Ensemble/1.3.3/drivers/include/gpio.h:349
80002b70:	f040 0040 	orr.w	r0, r0, #64	@ 0x40
80002b74:	64d0      	str	r0, [r2, #76]	@ 0x4c
/Users/till/.cache/arm/packs/AlifSemiconductor/Ensemble/1.3.3/drivers/include/gpio.h:350
    (void) gpio->GPIO_PORTA_EOI;
80002b76:	6cd0      	ldr	r0, [r2, #76]	@ 0x4c
GPIO6_IRQ6Handler():
/Users/till/.cache/arm/packs/AlifSemiconductor/Ensemble/1.3.3/Alif_CMSIS/Source/Driver_GPIO.c:1081
void GPIO6_IRQ6Handler  (void) {   GPIO_IRQ_Handler (&GPIO6_RES, 6);    }
80002b78:	bf08      	it	eq
80002b7a:	4770      	bxeq	lr
GPIO_IRQ_Handler():
/Users/till/.cache/arm/packs/AlifSemiconductor/Ensemble/1.3.3/Alif_CMSIS/Source/Driver_GPIO.c:509
        GPIO->cb_event[pin_no](ARM_GPIO_IRQ_EVENT_EXTERNAL);
80002b7c:	2001      	movs	r0, #1
80002b7e:	4708      	bx	r1

80002b80 <GPIO6_IRQ7Handler>:
/Users/till/.cache/arm/packs/AlifSemiconductor/Ensemble/1.3.3/Alif_CMSIS/Source/Driver_GPIO.c:505
    gpio_interrupt_eoi(GPIO->reg_base, pin_no);
80002b80:	f240 20a0 	movw	r0, #672	@ 0x2a0
80002b84:	f2c2 0000 	movt	r0, #8192	@ 0x2000
80002b88:	6802      	ldr	r2, [r0, #0]
/Users/till/.cache/arm/packs/AlifSemiconductor/Ensemble/1.3.3/Alif_CMSIS/Source/Driver_GPIO.c:507
    if (GPIO->cb_event[pin_no] != NULL)
80002b8a:	6b81      	ldr	r1, [r0, #56]	@ 0x38
gpio_interrupt_eoi():
/Users/till/.cache/arm/packs/AlifSemiconductor/Ensemble/1.3.3/drivers/include/gpio.h:349
    gpio->GPIO_PORTA_EOI |= (1 << pin_no);
80002b8c:	6cd0      	ldr	r0, [r2, #76]	@ 0x4c
GPIO_IRQ_Handler():
/Users/till/.cache/arm/packs/AlifSemiconductor/Ensemble/1.3.3/Alif_CMSIS/Source/Driver_GPIO.c:507
80002b8e:	2900      	cmp	r1, #0
gpio_interrupt_eoi():
/Users/till/.cache/arm/packs/AlifSemiconductor/Ensemble/1.3.3/drivers/include/gpio.h:349
80002b90:	f040 0080 	orr.w	r0, r0, #128	@ 0x80
80002b94:	64d0      	str	r0, [r2, #76]	@ 0x4c
/Users/till/.cache/arm/packs/AlifSemiconductor/Ensemble/1.3.3/drivers/include/gpio.h:350
    (void) gpio->GPIO_PORTA_EOI;
80002b96:	6cd0      	ldr	r0, [r2, #76]	@ 0x4c
GPIO6_IRQ7Handler():
/Users/till/.cache/arm/packs/AlifSemiconductor/Ensemble/1.3.3/Alif_CMSIS/Source/Driver_GPIO.c:1083
void GPIO6_IRQ7Handler  (void) {   GPIO_IRQ_Handler (&GPIO6_RES, 7);    }
80002b98:	bf08      	it	eq
80002b9a:	4770      	bxeq	lr
GPIO_IRQ_Handler():
/Users/till/.cache/arm/packs/AlifSemiconductor/Ensemble/1.3.3/Alif_CMSIS/Source/Driver_GPIO.c:509
        GPIO->cb_event[pin_no](ARM_GPIO_IRQ_EVENT_EXTERNAL);
80002b9c:	2001      	movs	r0, #1
80002b9e:	4708      	bx	r1

80002ba0 <GPIO7_IRQ0Handler>:
/Users/till/.cache/arm/packs/AlifSemiconductor/Ensemble/1.3.3/Alif_CMSIS/Source/Driver_GPIO.c:505
    gpio_interrupt_eoi(GPIO->reg_base, pin_no);
80002ba0:	f240 20dc 	movw	r0, #732	@ 0x2dc
80002ba4:	f2c2 0000 	movt	r0, #8192	@ 0x2000
80002ba8:	6802      	ldr	r2, [r0, #0]
/Users/till/.cache/arm/packs/AlifSemiconductor/Ensemble/1.3.3/Alif_CMSIS/Source/Driver_GPIO.c:507
    if (GPIO->cb_event[pin_no] != NULL)
80002baa:	69c1      	ldr	r1, [r0, #28]
gpio_interrupt_eoi():
/Users/till/.cache/arm/packs/AlifSemiconductor/Ensemble/1.3.3/drivers/include/gpio.h:349
    gpio->GPIO_PORTA_EOI |= (1 << pin_no);
80002bac:	6cd0      	ldr	r0, [r2, #76]	@ 0x4c
GPIO_IRQ_Handler():
/Users/till/.cache/arm/packs/AlifSemiconductor/Ensemble/1.3.3/Alif_CMSIS/Source/Driver_GPIO.c:507
80002bae:	2900      	cmp	r1, #0
gpio_interrupt_eoi():
/Users/till/.cache/arm/packs/AlifSemiconductor/Ensemble/1.3.3/drivers/include/gpio.h:349
80002bb0:	f040 0001 	orr.w	r0, r0, #1
80002bb4:	64d0      	str	r0, [r2, #76]	@ 0x4c
/Users/till/.cache/arm/packs/AlifSemiconductor/Ensemble/1.3.3/drivers/include/gpio.h:350
    (void) gpio->GPIO_PORTA_EOI;
80002bb6:	6cd0      	ldr	r0, [r2, #76]	@ 0x4c
GPIO7_IRQ0Handler():
/Users/till/.cache/arm/packs/AlifSemiconductor/Ensemble/1.3.3/Alif_CMSIS/Source/Driver_GPIO.c:1159
void GPIO7_IRQ0Handler  (void) {   GPIO_IRQ_Handler (&GPIO7_RES, 0);    }
80002bb8:	bf08      	it	eq
80002bba:	4770      	bxeq	lr
GPIO_IRQ_Handler():
/Users/till/.cache/arm/packs/AlifSemiconductor/Ensemble/1.3.3/Alif_CMSIS/Source/Driver_GPIO.c:509
        GPIO->cb_event[pin_no](ARM_GPIO_IRQ_EVENT_EXTERNAL);
80002bbc:	2001      	movs	r0, #1
80002bbe:	4708      	bx	r1

80002bc0 <GPIO7_IRQ1Handler>:
/Users/till/.cache/arm/packs/AlifSemiconductor/Ensemble/1.3.3/Alif_CMSIS/Source/Driver_GPIO.c:505
    gpio_interrupt_eoi(GPIO->reg_base, pin_no);
80002bc0:	f240 20dc 	movw	r0, #732	@ 0x2dc
80002bc4:	f2c2 0000 	movt	r0, #8192	@ 0x2000
80002bc8:	6802      	ldr	r2, [r0, #0]
/Users/till/.cache/arm/packs/AlifSemiconductor/Ensemble/1.3.3/Alif_CMSIS/Source/Driver_GPIO.c:507
    if (GPIO->cb_event[pin_no] != NULL)
80002bca:	6a01      	ldr	r1, [r0, #32]
gpio_interrupt_eoi():
/Users/till/.cache/arm/packs/AlifSemiconductor/Ensemble/1.3.3/drivers/include/gpio.h:349
    gpio->GPIO_PORTA_EOI |= (1 << pin_no);
80002bcc:	6cd0      	ldr	r0, [r2, #76]	@ 0x4c
GPIO_IRQ_Handler():
/Users/till/.cache/arm/packs/AlifSemiconductor/Ensemble/1.3.3/Alif_CMSIS/Source/Driver_GPIO.c:507
80002bce:	2900      	cmp	r1, #0
gpio_interrupt_eoi():
/Users/till/.cache/arm/packs/AlifSemiconductor/Ensemble/1.3.3/drivers/include/gpio.h:349
80002bd0:	f040 0002 	orr.w	r0, r0, #2
80002bd4:	64d0      	str	r0, [r2, #76]	@ 0x4c
/Users/till/.cache/arm/packs/AlifSemiconductor/Ensemble/1.3.3/drivers/include/gpio.h:350
    (void) gpio->GPIO_PORTA_EOI;
80002bd6:	6cd0      	ldr	r0, [r2, #76]	@ 0x4c
GPIO7_IRQ1Handler():
/Users/till/.cache/arm/packs/AlifSemiconductor/Ensemble/1.3.3/Alif_CMSIS/Source/Driver_GPIO.c:1161
void GPIO7_IRQ1Handler  (void) {   GPIO_IRQ_Handler (&GPIO7_RES, 1);    }
80002bd8:	bf08      	it	eq
80002bda:	4770      	bxeq	lr
GPIO_IRQ_Handler():
/Users/till/.cache/arm/packs/AlifSemiconductor/Ensemble/1.3.3/Alif_CMSIS/Source/Driver_GPIO.c:509
        GPIO->cb_event[pin_no](ARM_GPIO_IRQ_EVENT_EXTERNAL);
80002bdc:	2001      	movs	r0, #1
80002bde:	4708      	bx	r1

80002be0 <GPIO7_IRQ2Handler>:
/Users/till/.cache/arm/packs/AlifSemiconductor/Ensemble/1.3.3/Alif_CMSIS/Source/Driver_GPIO.c:505
    gpio_interrupt_eoi(GPIO->reg_base, pin_no);
80002be0:	f240 20dc 	movw	r0, #732	@ 0x2dc
80002be4:	f2c2 0000 	movt	r0, #8192	@ 0x2000
80002be8:	6802      	ldr	r2, [r0, #0]
/Users/till/.cache/arm/packs/AlifSemiconductor/Ensemble/1.3.3/Alif_CMSIS/Source/Driver_GPIO.c:507
    if (GPIO->cb_event[pin_no] != NULL)
80002bea:	6a41      	ldr	r1, [r0, #36]	@ 0x24
gpio_interrupt_eoi():
/Users/till/.cache/arm/packs/AlifSemiconductor/Ensemble/1.3.3/drivers/include/gpio.h:349
    gpio->GPIO_PORTA_EOI |= (1 << pin_no);
80002bec:	6cd0      	ldr	r0, [r2, #76]	@ 0x4c
GPIO_IRQ_Handler():
/Users/till/.cache/arm/packs/AlifSemiconductor/Ensemble/1.3.3/Alif_CMSIS/Source/Driver_GPIO.c:507
80002bee:	2900      	cmp	r1, #0
gpio_interrupt_eoi():
/Users/till/.cache/arm/packs/AlifSemiconductor/Ensemble/1.3.3/drivers/include/gpio.h:349
80002bf0:	f040 0004 	orr.w	r0, r0, #4
80002bf4:	64d0      	str	r0, [r2, #76]	@ 0x4c
/Users/till/.cache/arm/packs/AlifSemiconductor/Ensemble/1.3.3/drivers/include/gpio.h:350
    (void) gpio->GPIO_PORTA_EOI;
80002bf6:	6cd0      	ldr	r0, [r2, #76]	@ 0x4c
GPIO7_IRQ2Handler():
/Users/till/.cache/arm/packs/AlifSemiconductor/Ensemble/1.3.3/Alif_CMSIS/Source/Driver_GPIO.c:1163
void GPIO7_IRQ2Handler  (void) {   GPIO_IRQ_Handler (&GPIO7_RES, 2);    }
80002bf8:	bf08      	it	eq
80002bfa:	4770      	bxeq	lr
GPIO_IRQ_Handler():
/Users/till/.cache/arm/packs/AlifSemiconductor/Ensemble/1.3.3/Alif_CMSIS/Source/Driver_GPIO.c:509
        GPIO->cb_event[pin_no](ARM_GPIO_IRQ_EVENT_EXTERNAL);
80002bfc:	2001      	movs	r0, #1
80002bfe:	4708      	bx	r1

80002c00 <GPIO7_IRQ3Handler>:
/Users/till/.cache/arm/packs/AlifSemiconductor/Ensemble/1.3.3/Alif_CMSIS/Source/Driver_GPIO.c:505
    gpio_interrupt_eoi(GPIO->reg_base, pin_no);
80002c00:	f240 20dc 	movw	r0, #732	@ 0x2dc
80002c04:	f2c2 0000 	movt	r0, #8192	@ 0x2000
80002c08:	6802      	ldr	r2, [r0, #0]
/Users/till/.cache/arm/packs/AlifSemiconductor/Ensemble/1.3.3/Alif_CMSIS/Source/Driver_GPIO.c:507
    if (GPIO->cb_event[pin_no] != NULL)
80002c0a:	6a81      	ldr	r1, [r0, #40]	@ 0x28
gpio_interrupt_eoi():
/Users/till/.cache/arm/packs/AlifSemiconductor/Ensemble/1.3.3/drivers/include/gpio.h:349
    gpio->GPIO_PORTA_EOI |= (1 << pin_no);
80002c0c:	6cd0      	ldr	r0, [r2, #76]	@ 0x4c
GPIO_IRQ_Handler():
/Users/till/.cache/arm/packs/AlifSemiconductor/Ensemble/1.3.3/Alif_CMSIS/Source/Driver_GPIO.c:507
80002c0e:	2900      	cmp	r1, #0
gpio_interrupt_eoi():
/Users/till/.cache/arm/packs/AlifSemiconductor/Ensemble/1.3.3/drivers/include/gpio.h:349
80002c10:	f040 0008 	orr.w	r0, r0, #8
80002c14:	64d0      	str	r0, [r2, #76]	@ 0x4c
/Users/till/.cache/arm/packs/AlifSemiconductor/Ensemble/1.3.3/drivers/include/gpio.h:350
    (void) gpio->GPIO_PORTA_EOI;
80002c16:	6cd0      	ldr	r0, [r2, #76]	@ 0x4c
GPIO7_IRQ3Handler():
/Users/till/.cache/arm/packs/AlifSemiconductor/Ensemble/1.3.3/Alif_CMSIS/Source/Driver_GPIO.c:1165
void GPIO7_IRQ3Handler  (void) {   GPIO_IRQ_Handler (&GPIO7_RES, 3);    }
80002c18:	bf08      	it	eq
80002c1a:	4770      	bxeq	lr
GPIO_IRQ_Handler():
/Users/till/.cache/arm/packs/AlifSemiconductor/Ensemble/1.3.3/Alif_CMSIS/Source/Driver_GPIO.c:509
        GPIO->cb_event[pin_no](ARM_GPIO_IRQ_EVENT_EXTERNAL);
80002c1c:	2001      	movs	r0, #1
80002c1e:	4708      	bx	r1

80002c20 <GPIO7_IRQ4Handler>:
/Users/till/.cache/arm/packs/AlifSemiconductor/Ensemble/1.3.3/Alif_CMSIS/Source/Driver_GPIO.c:505
    gpio_interrupt_eoi(GPIO->reg_base, pin_no);
80002c20:	f240 20dc 	movw	r0, #732	@ 0x2dc
80002c24:	f2c2 0000 	movt	r0, #8192	@ 0x2000
80002c28:	6802      	ldr	r2, [r0, #0]
/Users/till/.cache/arm/packs/AlifSemiconductor/Ensemble/1.3.3/Alif_CMSIS/Source/Driver_GPIO.c:507
    if (GPIO->cb_event[pin_no] != NULL)
80002c2a:	6ac1      	ldr	r1, [r0, #44]	@ 0x2c
gpio_interrupt_eoi():
/Users/till/.cache/arm/packs/AlifSemiconductor/Ensemble/1.3.3/drivers/include/gpio.h:349
    gpio->GPIO_PORTA_EOI |= (1 << pin_no);
80002c2c:	6cd0      	ldr	r0, [r2, #76]	@ 0x4c
GPIO_IRQ_Handler():
/Users/till/.cache/arm/packs/AlifSemiconductor/Ensemble/1.3.3/Alif_CMSIS/Source/Driver_GPIO.c:507
80002c2e:	2900      	cmp	r1, #0
gpio_interrupt_eoi():
/Users/till/.cache/arm/packs/AlifSemiconductor/Ensemble/1.3.3/drivers/include/gpio.h:349
80002c30:	f040 0010 	orr.w	r0, r0, #16
80002c34:	64d0      	str	r0, [r2, #76]	@ 0x4c
/Users/till/.cache/arm/packs/AlifSemiconductor/Ensemble/1.3.3/drivers/include/gpio.h:350
    (void) gpio->GPIO_PORTA_EOI;
80002c36:	6cd0      	ldr	r0, [r2, #76]	@ 0x4c
GPIO7_IRQ4Handler():
/Users/till/.cache/arm/packs/AlifSemiconductor/Ensemble/1.3.3/Alif_CMSIS/Source/Driver_GPIO.c:1167
void GPIO7_IRQ4Handler  (void) {   GPIO_IRQ_Handler (&GPIO7_RES, 4);    }
80002c38:	bf08      	it	eq
80002c3a:	4770      	bxeq	lr
GPIO_IRQ_Handler():
/Users/till/.cache/arm/packs/AlifSemiconductor/Ensemble/1.3.3/Alif_CMSIS/Source/Driver_GPIO.c:509
        GPIO->cb_event[pin_no](ARM_GPIO_IRQ_EVENT_EXTERNAL);
80002c3c:	2001      	movs	r0, #1
80002c3e:	4708      	bx	r1

80002c40 <GPIO7_IRQ5Handler>:
/Users/till/.cache/arm/packs/AlifSemiconductor/Ensemble/1.3.3/Alif_CMSIS/Source/Driver_GPIO.c:505
    gpio_interrupt_eoi(GPIO->reg_base, pin_no);
80002c40:	f240 20dc 	movw	r0, #732	@ 0x2dc
80002c44:	f2c2 0000 	movt	r0, #8192	@ 0x2000
80002c48:	6802      	ldr	r2, [r0, #0]
/Users/till/.cache/arm/packs/AlifSemiconductor/Ensemble/1.3.3/Alif_CMSIS/Source/Driver_GPIO.c:507
    if (GPIO->cb_event[pin_no] != NULL)
80002c4a:	6b01      	ldr	r1, [r0, #48]	@ 0x30
gpio_interrupt_eoi():
/Users/till/.cache/arm/packs/AlifSemiconductor/Ensemble/1.3.3/drivers/include/gpio.h:349
    gpio->GPIO_PORTA_EOI |= (1 << pin_no);
80002c4c:	6cd0      	ldr	r0, [r2, #76]	@ 0x4c
GPIO_IRQ_Handler():
/Users/till/.cache/arm/packs/AlifSemiconductor/Ensemble/1.3.3/Alif_CMSIS/Source/Driver_GPIO.c:507
80002c4e:	2900      	cmp	r1, #0
gpio_interrupt_eoi():
/Users/till/.cache/arm/packs/AlifSemiconductor/Ensemble/1.3.3/drivers/include/gpio.h:349
80002c50:	f040 0020 	orr.w	r0, r0, #32
80002c54:	64d0      	str	r0, [r2, #76]	@ 0x4c
/Users/till/.cache/arm/packs/AlifSemiconductor/Ensemble/1.3.3/drivers/include/gpio.h:350
    (void) gpio->GPIO_PORTA_EOI;
80002c56:	6cd0      	ldr	r0, [r2, #76]	@ 0x4c
GPIO7_IRQ5Handler():
/Users/till/.cache/arm/packs/AlifSemiconductor/Ensemble/1.3.3/Alif_CMSIS/Source/Driver_GPIO.c:1169
void GPIO7_IRQ5Handler  (void) {   GPIO_IRQ_Handler (&GPIO7_RES, 5);    }
80002c58:	bf08      	it	eq
80002c5a:	4770      	bxeq	lr
GPIO_IRQ_Handler():
/Users/till/.cache/arm/packs/AlifSemiconductor/Ensemble/1.3.3/Alif_CMSIS/Source/Driver_GPIO.c:509
        GPIO->cb_event[pin_no](ARM_GPIO_IRQ_EVENT_EXTERNAL);
80002c5c:	2001      	movs	r0, #1
80002c5e:	4708      	bx	r1

80002c60 <GPIO7_IRQ6Handler>:
/Users/till/.cache/arm/packs/AlifSemiconductor/Ensemble/1.3.3/Alif_CMSIS/Source/Driver_GPIO.c:505
    gpio_interrupt_eoi(GPIO->reg_base, pin_no);
80002c60:	f240 20dc 	movw	r0, #732	@ 0x2dc
80002c64:	f2c2 0000 	movt	r0, #8192	@ 0x2000
80002c68:	6802      	ldr	r2, [r0, #0]
/Users/till/.cache/arm/packs/AlifSemiconductor/Ensemble/1.3.3/Alif_CMSIS/Source/Driver_GPIO.c:507
    if (GPIO->cb_event[pin_no] != NULL)
80002c6a:	6b41      	ldr	r1, [r0, #52]	@ 0x34
gpio_interrupt_eoi():
/Users/till/.cache/arm/packs/AlifSemiconductor/Ensemble/1.3.3/drivers/include/gpio.h:349
    gpio->GPIO_PORTA_EOI |= (1 << pin_no);
80002c6c:	6cd0      	ldr	r0, [r2, #76]	@ 0x4c
GPIO_IRQ_Handler():
/Users/till/.cache/arm/packs/AlifSemiconductor/Ensemble/1.3.3/Alif_CMSIS/Source/Driver_GPIO.c:507
80002c6e:	2900      	cmp	r1, #0
gpio_interrupt_eoi():
/Users/till/.cache/arm/packs/AlifSemiconductor/Ensemble/1.3.3/drivers/include/gpio.h:349
80002c70:	f040 0040 	orr.w	r0, r0, #64	@ 0x40
80002c74:	64d0      	str	r0, [r2, #76]	@ 0x4c
/Users/till/.cache/arm/packs/AlifSemiconductor/Ensemble/1.3.3/drivers/include/gpio.h:350
    (void) gpio->GPIO_PORTA_EOI;
80002c76:	6cd0      	ldr	r0, [r2, #76]	@ 0x4c
GPIO7_IRQ6Handler():
/Users/till/.cache/arm/packs/AlifSemiconductor/Ensemble/1.3.3/Alif_CMSIS/Source/Driver_GPIO.c:1171
void GPIO7_IRQ6Handler  (void) {   GPIO_IRQ_Handler (&GPIO7_RES, 6);    }
80002c78:	bf08      	it	eq
80002c7a:	4770      	bxeq	lr
GPIO_IRQ_Handler():
/Users/till/.cache/arm/packs/AlifSemiconductor/Ensemble/1.3.3/Alif_CMSIS/Source/Driver_GPIO.c:509
        GPIO->cb_event[pin_no](ARM_GPIO_IRQ_EVENT_EXTERNAL);
80002c7c:	2001      	movs	r0, #1
80002c7e:	4708      	bx	r1

80002c80 <GPIO7_IRQ7Handler>:
/Users/till/.cache/arm/packs/AlifSemiconductor/Ensemble/1.3.3/Alif_CMSIS/Source/Driver_GPIO.c:505
    gpio_interrupt_eoi(GPIO->reg_base, pin_no);
80002c80:	f240 20dc 	movw	r0, #732	@ 0x2dc
80002c84:	f2c2 0000 	movt	r0, #8192	@ 0x2000
80002c88:	6802      	ldr	r2, [r0, #0]
/Users/till/.cache/arm/packs/AlifSemiconductor/Ensemble/1.3.3/Alif_CMSIS/Source/Driver_GPIO.c:507
    if (GPIO->cb_event[pin_no] != NULL)
80002c8a:	6b81      	ldr	r1, [r0, #56]	@ 0x38
gpio_interrupt_eoi():
/Users/till/.cache/arm/packs/AlifSemiconductor/Ensemble/1.3.3/drivers/include/gpio.h:349
    gpio->GPIO_PORTA_EOI |= (1 << pin_no);
80002c8c:	6cd0      	ldr	r0, [r2, #76]	@ 0x4c
GPIO_IRQ_Handler():
/Users/till/.cache/arm/packs/AlifSemiconductor/Ensemble/1.3.3/Alif_CMSIS/Source/Driver_GPIO.c:507
80002c8e:	2900      	cmp	r1, #0
gpio_interrupt_eoi():
/Users/till/.cache/arm/packs/AlifSemiconductor/Ensemble/1.3.3/drivers/include/gpio.h:349
80002c90:	f040 0080 	orr.w	r0, r0, #128	@ 0x80
80002c94:	64d0      	str	r0, [r2, #76]	@ 0x4c
/Users/till/.cache/arm/packs/AlifSemiconductor/Ensemble/1.3.3/drivers/include/gpio.h:350
    (void) gpio->GPIO_PORTA_EOI;
80002c96:	6cd0      	ldr	r0, [r2, #76]	@ 0x4c
GPIO7_IRQ7Handler():
/Users/till/.cache/arm/packs/AlifSemiconductor/Ensemble/1.3.3/Alif_CMSIS/Source/Driver_GPIO.c:1173
void GPIO7_IRQ7Handler  (void) {   GPIO_IRQ_Handler (&GPIO7_RES, 7);    }
80002c98:	bf08      	it	eq
80002c9a:	4770      	bxeq	lr
GPIO_IRQ_Handler():
/Users/till/.cache/arm/packs/AlifSemiconductor/Ensemble/1.3.3/Alif_CMSIS/Source/Driver_GPIO.c:509
        GPIO->cb_event[pin_no](ARM_GPIO_IRQ_EVENT_EXTERNAL);
80002c9c:	2001      	movs	r0, #1
80002c9e:	4708      	bx	r1

80002ca0 <GPIO8_IRQ0Handler>:
/Users/till/.cache/arm/packs/AlifSemiconductor/Ensemble/1.3.3/Alif_CMSIS/Source/Driver_GPIO.c:505
    gpio_interrupt_eoi(GPIO->reg_base, pin_no);
80002ca0:	f240 3018 	movw	r0, #792	@ 0x318
80002ca4:	f2c2 0000 	movt	r0, #8192	@ 0x2000
80002ca8:	6802      	ldr	r2, [r0, #0]
/Users/till/.cache/arm/packs/AlifSemiconductor/Ensemble/1.3.3/Alif_CMSIS/Source/Driver_GPIO.c:507
    if (GPIO->cb_event[pin_no] != NULL)
80002caa:	69c1      	ldr	r1, [r0, #28]
gpio_interrupt_eoi():
/Users/till/.cache/arm/packs/AlifSemiconductor/Ensemble/1.3.3/drivers/include/gpio.h:349
    gpio->GPIO_PORTA_EOI |= (1 << pin_no);
80002cac:	6cd0      	ldr	r0, [r2, #76]	@ 0x4c
GPIO_IRQ_Handler():
/Users/till/.cache/arm/packs/AlifSemiconductor/Ensemble/1.3.3/Alif_CMSIS/Source/Driver_GPIO.c:507
80002cae:	2900      	cmp	r1, #0
gpio_interrupt_eoi():
/Users/till/.cache/arm/packs/AlifSemiconductor/Ensemble/1.3.3/drivers/include/gpio.h:349
80002cb0:	f040 0001 	orr.w	r0, r0, #1
80002cb4:	64d0      	str	r0, [r2, #76]	@ 0x4c
/Users/till/.cache/arm/packs/AlifSemiconductor/Ensemble/1.3.3/drivers/include/gpio.h:350
    (void) gpio->GPIO_PORTA_EOI;
80002cb6:	6cd0      	ldr	r0, [r2, #76]	@ 0x4c
GPIO8_IRQ0Handler():
/Users/till/.cache/arm/packs/AlifSemiconductor/Ensemble/1.3.3/Alif_CMSIS/Source/Driver_GPIO.c:1248
void GPIO8_IRQ0Handler  (void) {   GPIO_IRQ_Handler (&GPIO8_RES, 0);    }
80002cb8:	bf08      	it	eq
80002cba:	4770      	bxeq	lr
GPIO_IRQ_Handler():
/Users/till/.cache/arm/packs/AlifSemiconductor/Ensemble/1.3.3/Alif_CMSIS/Source/Driver_GPIO.c:509
        GPIO->cb_event[pin_no](ARM_GPIO_IRQ_EVENT_EXTERNAL);
80002cbc:	2001      	movs	r0, #1
80002cbe:	4708      	bx	r1

80002cc0 <GPIO8_IRQ1Handler>:
/Users/till/.cache/arm/packs/AlifSemiconductor/Ensemble/1.3.3/Alif_CMSIS/Source/Driver_GPIO.c:505
    gpio_interrupt_eoi(GPIO->reg_base, pin_no);
80002cc0:	f240 3018 	movw	r0, #792	@ 0x318
80002cc4:	f2c2 0000 	movt	r0, #8192	@ 0x2000
80002cc8:	6802      	ldr	r2, [r0, #0]
/Users/till/.cache/arm/packs/AlifSemiconductor/Ensemble/1.3.3/Alif_CMSIS/Source/Driver_GPIO.c:507
    if (GPIO->cb_event[pin_no] != NULL)
80002cca:	6a01      	ldr	r1, [r0, #32]
gpio_interrupt_eoi():
/Users/till/.cache/arm/packs/AlifSemiconductor/Ensemble/1.3.3/drivers/include/gpio.h:349
    gpio->GPIO_PORTA_EOI |= (1 << pin_no);
80002ccc:	6cd0      	ldr	r0, [r2, #76]	@ 0x4c
GPIO_IRQ_Handler():
/Users/till/.cache/arm/packs/AlifSemiconductor/Ensemble/1.3.3/Alif_CMSIS/Source/Driver_GPIO.c:507
80002cce:	2900      	cmp	r1, #0
gpio_interrupt_eoi():
/Users/till/.cache/arm/packs/AlifSemiconductor/Ensemble/1.3.3/drivers/include/gpio.h:349
80002cd0:	f040 0002 	orr.w	r0, r0, #2
80002cd4:	64d0      	str	r0, [r2, #76]	@ 0x4c
/Users/till/.cache/arm/packs/AlifSemiconductor/Ensemble/1.3.3/drivers/include/gpio.h:350
    (void) gpio->GPIO_PORTA_EOI;
80002cd6:	6cd0      	ldr	r0, [r2, #76]	@ 0x4c
GPIO8_IRQ1Handler():
/Users/till/.cache/arm/packs/AlifSemiconductor/Ensemble/1.3.3/Alif_CMSIS/Source/Driver_GPIO.c:1250
void GPIO8_IRQ1Handler  (void) {   GPIO_IRQ_Handler (&GPIO8_RES, 1);    }
80002cd8:	bf08      	it	eq
80002cda:	4770      	bxeq	lr
GPIO_IRQ_Handler():
/Users/till/.cache/arm/packs/AlifSemiconductor/Ensemble/1.3.3/Alif_CMSIS/Source/Driver_GPIO.c:509
        GPIO->cb_event[pin_no](ARM_GPIO_IRQ_EVENT_EXTERNAL);
80002cdc:	2001      	movs	r0, #1
80002cde:	4708      	bx	r1

80002ce0 <GPIO8_IRQ2Handler>:
/Users/till/.cache/arm/packs/AlifSemiconductor/Ensemble/1.3.3/Alif_CMSIS/Source/Driver_GPIO.c:505
    gpio_interrupt_eoi(GPIO->reg_base, pin_no);
80002ce0:	f240 3018 	movw	r0, #792	@ 0x318
80002ce4:	f2c2 0000 	movt	r0, #8192	@ 0x2000
80002ce8:	6802      	ldr	r2, [r0, #0]
/Users/till/.cache/arm/packs/AlifSemiconductor/Ensemble/1.3.3/Alif_CMSIS/Source/Driver_GPIO.c:507
    if (GPIO->cb_event[pin_no] != NULL)
80002cea:	6a41      	ldr	r1, [r0, #36]	@ 0x24
gpio_interrupt_eoi():
/Users/till/.cache/arm/packs/AlifSemiconductor/Ensemble/1.3.3/drivers/include/gpio.h:349
    gpio->GPIO_PORTA_EOI |= (1 << pin_no);
80002cec:	6cd0      	ldr	r0, [r2, #76]	@ 0x4c
GPIO_IRQ_Handler():
/Users/till/.cache/arm/packs/AlifSemiconductor/Ensemble/1.3.3/Alif_CMSIS/Source/Driver_GPIO.c:507
80002cee:	2900      	cmp	r1, #0
gpio_interrupt_eoi():
/Users/till/.cache/arm/packs/AlifSemiconductor/Ensemble/1.3.3/drivers/include/gpio.h:349
80002cf0:	f040 0004 	orr.w	r0, r0, #4
80002cf4:	64d0      	str	r0, [r2, #76]	@ 0x4c
/Users/till/.cache/arm/packs/AlifSemiconductor/Ensemble/1.3.3/drivers/include/gpio.h:350
    (void) gpio->GPIO_PORTA_EOI;
80002cf6:	6cd0      	ldr	r0, [r2, #76]	@ 0x4c
GPIO8_IRQ2Handler():
/Users/till/.cache/arm/packs/AlifSemiconductor/Ensemble/1.3.3/Alif_CMSIS/Source/Driver_GPIO.c:1252
void GPIO8_IRQ2Handler  (void) {   GPIO_IRQ_Handler (&GPIO8_RES, 2);    }
80002cf8:	bf08      	it	eq
80002cfa:	4770      	bxeq	lr
GPIO_IRQ_Handler():
/Users/till/.cache/arm/packs/AlifSemiconductor/Ensemble/1.3.3/Alif_CMSIS/Source/Driver_GPIO.c:509
        GPIO->cb_event[pin_no](ARM_GPIO_IRQ_EVENT_EXTERNAL);
80002cfc:	2001      	movs	r0, #1
80002cfe:	4708      	bx	r1

80002d00 <GPIO8_IRQ3Handler>:
/Users/till/.cache/arm/packs/AlifSemiconductor/Ensemble/1.3.3/Alif_CMSIS/Source/Driver_GPIO.c:505
    gpio_interrupt_eoi(GPIO->reg_base, pin_no);
80002d00:	f240 3018 	movw	r0, #792	@ 0x318
80002d04:	f2c2 0000 	movt	r0, #8192	@ 0x2000
80002d08:	6802      	ldr	r2, [r0, #0]
/Users/till/.cache/arm/packs/AlifSemiconductor/Ensemble/1.3.3/Alif_CMSIS/Source/Driver_GPIO.c:507
    if (GPIO->cb_event[pin_no] != NULL)
80002d0a:	6a81      	ldr	r1, [r0, #40]	@ 0x28
gpio_interrupt_eoi():
/Users/till/.cache/arm/packs/AlifSemiconductor/Ensemble/1.3.3/drivers/include/gpio.h:349
    gpio->GPIO_PORTA_EOI |= (1 << pin_no);
80002d0c:	6cd0      	ldr	r0, [r2, #76]	@ 0x4c
GPIO_IRQ_Handler():
/Users/till/.cache/arm/packs/AlifSemiconductor/Ensemble/1.3.3/Alif_CMSIS/Source/Driver_GPIO.c:507
80002d0e:	2900      	cmp	r1, #0
gpio_interrupt_eoi():
/Users/till/.cache/arm/packs/AlifSemiconductor/Ensemble/1.3.3/drivers/include/gpio.h:349
80002d10:	f040 0008 	orr.w	r0, r0, #8
80002d14:	64d0      	str	r0, [r2, #76]	@ 0x4c
/Users/till/.cache/arm/packs/AlifSemiconductor/Ensemble/1.3.3/drivers/include/gpio.h:350
    (void) gpio->GPIO_PORTA_EOI;
80002d16:	6cd0      	ldr	r0, [r2, #76]	@ 0x4c
GPIO8_IRQ3Handler():
/Users/till/.cache/arm/packs/AlifSemiconductor/Ensemble/1.3.3/Alif_CMSIS/Source/Driver_GPIO.c:1254
void GPIO8_IRQ3Handler  (void) {   GPIO_IRQ_Handler (&GPIO8_RES, 3);    }
80002d18:	bf08      	it	eq
80002d1a:	4770      	bxeq	lr
GPIO_IRQ_Handler():
/Users/till/.cache/arm/packs/AlifSemiconductor/Ensemble/1.3.3/Alif_CMSIS/Source/Driver_GPIO.c:509
        GPIO->cb_event[pin_no](ARM_GPIO_IRQ_EVENT_EXTERNAL);
80002d1c:	2001      	movs	r0, #1
80002d1e:	4708      	bx	r1

80002d20 <GPIO8_IRQ4Handler>:
/Users/till/.cache/arm/packs/AlifSemiconductor/Ensemble/1.3.3/Alif_CMSIS/Source/Driver_GPIO.c:505
    gpio_interrupt_eoi(GPIO->reg_base, pin_no);
80002d20:	f240 3018 	movw	r0, #792	@ 0x318
80002d24:	f2c2 0000 	movt	r0, #8192	@ 0x2000
80002d28:	6802      	ldr	r2, [r0, #0]
/Users/till/.cache/arm/packs/AlifSemiconductor/Ensemble/1.3.3/Alif_CMSIS/Source/Driver_GPIO.c:507
    if (GPIO->cb_event[pin_no] != NULL)
80002d2a:	6ac1      	ldr	r1, [r0, #44]	@ 0x2c
gpio_interrupt_eoi():
/Users/till/.cache/arm/packs/AlifSemiconductor/Ensemble/1.3.3/drivers/include/gpio.h:349
    gpio->GPIO_PORTA_EOI |= (1 << pin_no);
80002d2c:	6cd0      	ldr	r0, [r2, #76]	@ 0x4c
GPIO_IRQ_Handler():
/Users/till/.cache/arm/packs/AlifSemiconductor/Ensemble/1.3.3/Alif_CMSIS/Source/Driver_GPIO.c:507
80002d2e:	2900      	cmp	r1, #0
gpio_interrupt_eoi():
/Users/till/.cache/arm/packs/AlifSemiconductor/Ensemble/1.3.3/drivers/include/gpio.h:349
80002d30:	f040 0010 	orr.w	r0, r0, #16
80002d34:	64d0      	str	r0, [r2, #76]	@ 0x4c
/Users/till/.cache/arm/packs/AlifSemiconductor/Ensemble/1.3.3/drivers/include/gpio.h:350
    (void) gpio->GPIO_PORTA_EOI;
80002d36:	6cd0      	ldr	r0, [r2, #76]	@ 0x4c
GPIO8_IRQ4Handler():
/Users/till/.cache/arm/packs/AlifSemiconductor/Ensemble/1.3.3/Alif_CMSIS/Source/Driver_GPIO.c:1256
void GPIO8_IRQ4Handler  (void) {   GPIO_IRQ_Handler (&GPIO8_RES, 4);    }
80002d38:	bf08      	it	eq
80002d3a:	4770      	bxeq	lr
GPIO_IRQ_Handler():
/Users/till/.cache/arm/packs/AlifSemiconductor/Ensemble/1.3.3/Alif_CMSIS/Source/Driver_GPIO.c:509
        GPIO->cb_event[pin_no](ARM_GPIO_IRQ_EVENT_EXTERNAL);
80002d3c:	2001      	movs	r0, #1
80002d3e:	4708      	bx	r1

80002d40 <GPIO8_IRQ5Handler>:
/Users/till/.cache/arm/packs/AlifSemiconductor/Ensemble/1.3.3/Alif_CMSIS/Source/Driver_GPIO.c:505
    gpio_interrupt_eoi(GPIO->reg_base, pin_no);
80002d40:	f240 3018 	movw	r0, #792	@ 0x318
80002d44:	f2c2 0000 	movt	r0, #8192	@ 0x2000
80002d48:	6802      	ldr	r2, [r0, #0]
/Users/till/.cache/arm/packs/AlifSemiconductor/Ensemble/1.3.3/Alif_CMSIS/Source/Driver_GPIO.c:507
    if (GPIO->cb_event[pin_no] != NULL)
80002d4a:	6b01      	ldr	r1, [r0, #48]	@ 0x30
gpio_interrupt_eoi():
/Users/till/.cache/arm/packs/AlifSemiconductor/Ensemble/1.3.3/drivers/include/gpio.h:349
    gpio->GPIO_PORTA_EOI |= (1 << pin_no);
80002d4c:	6cd0      	ldr	r0, [r2, #76]	@ 0x4c
GPIO_IRQ_Handler():
/Users/till/.cache/arm/packs/AlifSemiconductor/Ensemble/1.3.3/Alif_CMSIS/Source/Driver_GPIO.c:507
80002d4e:	2900      	cmp	r1, #0
gpio_interrupt_eoi():
/Users/till/.cache/arm/packs/AlifSemiconductor/Ensemble/1.3.3/drivers/include/gpio.h:349
80002d50:	f040 0020 	orr.w	r0, r0, #32
80002d54:	64d0      	str	r0, [r2, #76]	@ 0x4c
/Users/till/.cache/arm/packs/AlifSemiconductor/Ensemble/1.3.3/drivers/include/gpio.h:350
    (void) gpio->GPIO_PORTA_EOI;
80002d56:	6cd0      	ldr	r0, [r2, #76]	@ 0x4c
GPIO8_IRQ5Handler():
/Users/till/.cache/arm/packs/AlifSemiconductor/Ensemble/1.3.3/Alif_CMSIS/Source/Driver_GPIO.c:1258
void GPIO8_IRQ5Handler  (void) {   GPIO_IRQ_Handler (&GPIO8_RES, 5);    }
80002d58:	bf08      	it	eq
80002d5a:	4770      	bxeq	lr
GPIO_IRQ_Handler():
/Users/till/.cache/arm/packs/AlifSemiconductor/Ensemble/1.3.3/Alif_CMSIS/Source/Driver_GPIO.c:509
        GPIO->cb_event[pin_no](ARM_GPIO_IRQ_EVENT_EXTERNAL);
80002d5c:	2001      	movs	r0, #1
80002d5e:	4708      	bx	r1

80002d60 <GPIO8_IRQ6Handler>:
/Users/till/.cache/arm/packs/AlifSemiconductor/Ensemble/1.3.3/Alif_CMSIS/Source/Driver_GPIO.c:505
    gpio_interrupt_eoi(GPIO->reg_base, pin_no);
80002d60:	f240 3018 	movw	r0, #792	@ 0x318
80002d64:	f2c2 0000 	movt	r0, #8192	@ 0x2000
80002d68:	6802      	ldr	r2, [r0, #0]
/Users/till/.cache/arm/packs/AlifSemiconductor/Ensemble/1.3.3/Alif_CMSIS/Source/Driver_GPIO.c:507
    if (GPIO->cb_event[pin_no] != NULL)
80002d6a:	6b41      	ldr	r1, [r0, #52]	@ 0x34
gpio_interrupt_eoi():
/Users/till/.cache/arm/packs/AlifSemiconductor/Ensemble/1.3.3/drivers/include/gpio.h:349
    gpio->GPIO_PORTA_EOI |= (1 << pin_no);
80002d6c:	6cd0      	ldr	r0, [r2, #76]	@ 0x4c
GPIO_IRQ_Handler():
/Users/till/.cache/arm/packs/AlifSemiconductor/Ensemble/1.3.3/Alif_CMSIS/Source/Driver_GPIO.c:507
80002d6e:	2900      	cmp	r1, #0
gpio_interrupt_eoi():
/Users/till/.cache/arm/packs/AlifSemiconductor/Ensemble/1.3.3/drivers/include/gpio.h:349
80002d70:	f040 0040 	orr.w	r0, r0, #64	@ 0x40
80002d74:	64d0      	str	r0, [r2, #76]	@ 0x4c
/Users/till/.cache/arm/packs/AlifSemiconductor/Ensemble/1.3.3/drivers/include/gpio.h:350
    (void) gpio->GPIO_PORTA_EOI;
80002d76:	6cd0      	ldr	r0, [r2, #76]	@ 0x4c
GPIO8_IRQ6Handler():
/Users/till/.cache/arm/packs/AlifSemiconductor/Ensemble/1.3.3/Alif_CMSIS/Source/Driver_GPIO.c:1260
void GPIO8_IRQ6Handler  (void) {   GPIO_IRQ_Handler (&GPIO8_RES, 6);    }
80002d78:	bf08      	it	eq
80002d7a:	4770      	bxeq	lr
GPIO_IRQ_Handler():
/Users/till/.cache/arm/packs/AlifSemiconductor/Ensemble/1.3.3/Alif_CMSIS/Source/Driver_GPIO.c:509
        GPIO->cb_event[pin_no](ARM_GPIO_IRQ_EVENT_EXTERNAL);
80002d7c:	2001      	movs	r0, #1
80002d7e:	4708      	bx	r1

80002d80 <GPIO8_IRQ7Handler>:
/Users/till/.cache/arm/packs/AlifSemiconductor/Ensemble/1.3.3/Alif_CMSIS/Source/Driver_GPIO.c:505
    gpio_interrupt_eoi(GPIO->reg_base, pin_no);
80002d80:	f240 3018 	movw	r0, #792	@ 0x318
80002d84:	f2c2 0000 	movt	r0, #8192	@ 0x2000
80002d88:	6802      	ldr	r2, [r0, #0]
/Users/till/.cache/arm/packs/AlifSemiconductor/Ensemble/1.3.3/Alif_CMSIS/Source/Driver_GPIO.c:507
    if (GPIO->cb_event[pin_no] != NULL)
80002d8a:	6b81      	ldr	r1, [r0, #56]	@ 0x38
gpio_interrupt_eoi():
/Users/till/.cache/arm/packs/AlifSemiconductor/Ensemble/1.3.3/drivers/include/gpio.h:349
    gpio->GPIO_PORTA_EOI |= (1 << pin_no);
80002d8c:	6cd0      	ldr	r0, [r2, #76]	@ 0x4c
GPIO_IRQ_Handler():
/Users/till/.cache/arm/packs/AlifSemiconductor/Ensemble/1.3.3/Alif_CMSIS/Source/Driver_GPIO.c:507
80002d8e:	2900      	cmp	r1, #0
gpio_interrupt_eoi():
/Users/till/.cache/arm/packs/AlifSemiconductor/Ensemble/1.3.3/drivers/include/gpio.h:349
80002d90:	f040 0080 	orr.w	r0, r0, #128	@ 0x80
80002d94:	64d0      	str	r0, [r2, #76]	@ 0x4c
/Users/till/.cache/arm/packs/AlifSemiconductor/Ensemble/1.3.3/drivers/include/gpio.h:350
    (void) gpio->GPIO_PORTA_EOI;
80002d96:	6cd0      	ldr	r0, [r2, #76]	@ 0x4c
GPIO8_IRQ7Handler():
/Users/till/.cache/arm/packs/AlifSemiconductor/Ensemble/1.3.3/Alif_CMSIS/Source/Driver_GPIO.c:1262
void GPIO8_IRQ7Handler  (void) {   GPIO_IRQ_Handler (&GPIO8_RES, 7);    }
80002d98:	bf08      	it	eq
80002d9a:	4770      	bxeq	lr
GPIO_IRQ_Handler():
/Users/till/.cache/arm/packs/AlifSemiconductor/Ensemble/1.3.3/Alif_CMSIS/Source/Driver_GPIO.c:509
        GPIO->cb_event[pin_no](ARM_GPIO_IRQ_EVENT_EXTERNAL);
80002d9c:	2001      	movs	r0, #1
80002d9e:	4708      	bx	r1

80002da0 <GPIO9_IRQ0Handler>:
/Users/till/.cache/arm/packs/AlifSemiconductor/Ensemble/1.3.3/Alif_CMSIS/Source/Driver_GPIO.c:505
    gpio_interrupt_eoi(GPIO->reg_base, pin_no);
80002da0:	f240 3054 	movw	r0, #852	@ 0x354
80002da4:	f2c2 0000 	movt	r0, #8192	@ 0x2000
80002da8:	6802      	ldr	r2, [r0, #0]
/Users/till/.cache/arm/packs/AlifSemiconductor/Ensemble/1.3.3/Alif_CMSIS/Source/Driver_GPIO.c:507
    if (GPIO->cb_event[pin_no] != NULL)
80002daa:	69c1      	ldr	r1, [r0, #28]
gpio_interrupt_eoi():
/Users/till/.cache/arm/packs/AlifSemiconductor/Ensemble/1.3.3/drivers/include/gpio.h:349
    gpio->GPIO_PORTA_EOI |= (1 << pin_no);
80002dac:	6cd0      	ldr	r0, [r2, #76]	@ 0x4c
GPIO_IRQ_Handler():
/Users/till/.cache/arm/packs/AlifSemiconductor/Ensemble/1.3.3/Alif_CMSIS/Source/Driver_GPIO.c:507
80002dae:	2900      	cmp	r1, #0
gpio_interrupt_eoi():
/Users/till/.cache/arm/packs/AlifSemiconductor/Ensemble/1.3.3/drivers/include/gpio.h:349
80002db0:	f040 0001 	orr.w	r0, r0, #1
80002db4:	64d0      	str	r0, [r2, #76]	@ 0x4c
/Users/till/.cache/arm/packs/AlifSemiconductor/Ensemble/1.3.3/drivers/include/gpio.h:350
    (void) gpio->GPIO_PORTA_EOI;
80002db6:	6cd0      	ldr	r0, [r2, #76]	@ 0x4c
GPIO9_IRQ0Handler():
/Users/till/.cache/arm/packs/AlifSemiconductor/Ensemble/1.3.3/Alif_CMSIS/Source/Driver_GPIO.c:1337
void GPIO9_IRQ0Handler  (void) {   GPIO_IRQ_Handler (&GPIO9_RES, 0);    }
80002db8:	bf08      	it	eq
80002dba:	4770      	bxeq	lr
GPIO_IRQ_Handler():
/Users/till/.cache/arm/packs/AlifSemiconductor/Ensemble/1.3.3/Alif_CMSIS/Source/Driver_GPIO.c:509
        GPIO->cb_event[pin_no](ARM_GPIO_IRQ_EVENT_EXTERNAL);
80002dbc:	2001      	movs	r0, #1
80002dbe:	4708      	bx	r1

80002dc0 <GPIO9_IRQ1Handler>:
/Users/till/.cache/arm/packs/AlifSemiconductor/Ensemble/1.3.3/Alif_CMSIS/Source/Driver_GPIO.c:505
    gpio_interrupt_eoi(GPIO->reg_base, pin_no);
80002dc0:	f240 3054 	movw	r0, #852	@ 0x354
80002dc4:	f2c2 0000 	movt	r0, #8192	@ 0x2000
80002dc8:	6802      	ldr	r2, [r0, #0]
/Users/till/.cache/arm/packs/AlifSemiconductor/Ensemble/1.3.3/Alif_CMSIS/Source/Driver_GPIO.c:507
    if (GPIO->cb_event[pin_no] != NULL)
80002dca:	6a01      	ldr	r1, [r0, #32]
gpio_interrupt_eoi():
/Users/till/.cache/arm/packs/AlifSemiconductor/Ensemble/1.3.3/drivers/include/gpio.h:349
    gpio->GPIO_PORTA_EOI |= (1 << pin_no);
80002dcc:	6cd0      	ldr	r0, [r2, #76]	@ 0x4c
GPIO_IRQ_Handler():
/Users/till/.cache/arm/packs/AlifSemiconductor/Ensemble/1.3.3/Alif_CMSIS/Source/Driver_GPIO.c:507
80002dce:	2900      	cmp	r1, #0
gpio_interrupt_eoi():
/Users/till/.cache/arm/packs/AlifSemiconductor/Ensemble/1.3.3/drivers/include/gpio.h:349
80002dd0:	f040 0002 	orr.w	r0, r0, #2
80002dd4:	64d0      	str	r0, [r2, #76]	@ 0x4c
/Users/till/.cache/arm/packs/AlifSemiconductor/Ensemble/1.3.3/drivers/include/gpio.h:350
    (void) gpio->GPIO_PORTA_EOI;
80002dd6:	6cd0      	ldr	r0, [r2, #76]	@ 0x4c
GPIO9_IRQ1Handler():
/Users/till/.cache/arm/packs/AlifSemiconductor/Ensemble/1.3.3/Alif_CMSIS/Source/Driver_GPIO.c:1339
void GPIO9_IRQ1Handler  (void) {   GPIO_IRQ_Handler (&GPIO9_RES, 1);    }
80002dd8:	bf08      	it	eq
80002dda:	4770      	bxeq	lr
GPIO_IRQ_Handler():
/Users/till/.cache/arm/packs/AlifSemiconductor/Ensemble/1.3.3/Alif_CMSIS/Source/Driver_GPIO.c:509
        GPIO->cb_event[pin_no](ARM_GPIO_IRQ_EVENT_EXTERNAL);
80002ddc:	2001      	movs	r0, #1
80002dde:	4708      	bx	r1

80002de0 <GPIO9_IRQ2Handler>:
/Users/till/.cache/arm/packs/AlifSemiconductor/Ensemble/1.3.3/Alif_CMSIS/Source/Driver_GPIO.c:505
    gpio_interrupt_eoi(GPIO->reg_base, pin_no);
80002de0:	f240 3054 	movw	r0, #852	@ 0x354
80002de4:	f2c2 0000 	movt	r0, #8192	@ 0x2000
80002de8:	6802      	ldr	r2, [r0, #0]
/Users/till/.cache/arm/packs/AlifSemiconductor/Ensemble/1.3.3/Alif_CMSIS/Source/Driver_GPIO.c:507
    if (GPIO->cb_event[pin_no] != NULL)
80002dea:	6a41      	ldr	r1, [r0, #36]	@ 0x24
gpio_interrupt_eoi():
/Users/till/.cache/arm/packs/AlifSemiconductor/Ensemble/1.3.3/drivers/include/gpio.h:349
    gpio->GPIO_PORTA_EOI |= (1 << pin_no);
80002dec:	6cd0      	ldr	r0, [r2, #76]	@ 0x4c
GPIO_IRQ_Handler():
/Users/till/.cache/arm/packs/AlifSemiconductor/Ensemble/1.3.3/Alif_CMSIS/Source/Driver_GPIO.c:507
80002dee:	2900      	cmp	r1, #0
gpio_interrupt_eoi():
/Users/till/.cache/arm/packs/AlifSemiconductor/Ensemble/1.3.3/drivers/include/gpio.h:349
80002df0:	f040 0004 	orr.w	r0, r0, #4
80002df4:	64d0      	str	r0, [r2, #76]	@ 0x4c
/Users/till/.cache/arm/packs/AlifSemiconductor/Ensemble/1.3.3/drivers/include/gpio.h:350
    (void) gpio->GPIO_PORTA_EOI;
80002df6:	6cd0      	ldr	r0, [r2, #76]	@ 0x4c
GPIO9_IRQ2Handler():
/Users/till/.cache/arm/packs/AlifSemiconductor/Ensemble/1.3.3/Alif_CMSIS/Source/Driver_GPIO.c:1341
void GPIO9_IRQ2Handler  (void) {   GPIO_IRQ_Handler (&GPIO9_RES, 2);    }
80002df8:	bf08      	it	eq
80002dfa:	4770      	bxeq	lr
GPIO_IRQ_Handler():
/Users/till/.cache/arm/packs/AlifSemiconductor/Ensemble/1.3.3/Alif_CMSIS/Source/Driver_GPIO.c:509
        GPIO->cb_event[pin_no](ARM_GPIO_IRQ_EVENT_EXTERNAL);
80002dfc:	2001      	movs	r0, #1
80002dfe:	4708      	bx	r1

80002e00 <GPIO9_IRQ3Handler>:
/Users/till/.cache/arm/packs/AlifSemiconductor/Ensemble/1.3.3/Alif_CMSIS/Source/Driver_GPIO.c:505
    gpio_interrupt_eoi(GPIO->reg_base, pin_no);
80002e00:	f240 3054 	movw	r0, #852	@ 0x354
80002e04:	f2c2 0000 	movt	r0, #8192	@ 0x2000
80002e08:	6802      	ldr	r2, [r0, #0]
/Users/till/.cache/arm/packs/AlifSemiconductor/Ensemble/1.3.3/Alif_CMSIS/Source/Driver_GPIO.c:507
    if (GPIO->cb_event[pin_no] != NULL)
80002e0a:	6a81      	ldr	r1, [r0, #40]	@ 0x28
gpio_interrupt_eoi():
/Users/till/.cache/arm/packs/AlifSemiconductor/Ensemble/1.3.3/drivers/include/gpio.h:349
    gpio->GPIO_PORTA_EOI |= (1 << pin_no);
80002e0c:	6cd0      	ldr	r0, [r2, #76]	@ 0x4c
GPIO_IRQ_Handler():
/Users/till/.cache/arm/packs/AlifSemiconductor/Ensemble/1.3.3/Alif_CMSIS/Source/Driver_GPIO.c:507
80002e0e:	2900      	cmp	r1, #0
gpio_interrupt_eoi():
/Users/till/.cache/arm/packs/AlifSemiconductor/Ensemble/1.3.3/drivers/include/gpio.h:349
80002e10:	f040 0008 	orr.w	r0, r0, #8
80002e14:	64d0      	str	r0, [r2, #76]	@ 0x4c
/Users/till/.cache/arm/packs/AlifSemiconductor/Ensemble/1.3.3/drivers/include/gpio.h:350
    (void) gpio->GPIO_PORTA_EOI;
80002e16:	6cd0      	ldr	r0, [r2, #76]	@ 0x4c
GPIO9_IRQ3Handler():
/Users/till/.cache/arm/packs/AlifSemiconductor/Ensemble/1.3.3/Alif_CMSIS/Source/Driver_GPIO.c:1343
void GPIO9_IRQ3Handler  (void) {   GPIO_IRQ_Handler (&GPIO9_RES, 3);    }
80002e18:	bf08      	it	eq
80002e1a:	4770      	bxeq	lr
GPIO_IRQ_Handler():
/Users/till/.cache/arm/packs/AlifSemiconductor/Ensemble/1.3.3/Alif_CMSIS/Source/Driver_GPIO.c:509
        GPIO->cb_event[pin_no](ARM_GPIO_IRQ_EVENT_EXTERNAL);
80002e1c:	2001      	movs	r0, #1
80002e1e:	4708      	bx	r1

80002e20 <GPIO9_IRQ4Handler>:
/Users/till/.cache/arm/packs/AlifSemiconductor/Ensemble/1.3.3/Alif_CMSIS/Source/Driver_GPIO.c:505
    gpio_interrupt_eoi(GPIO->reg_base, pin_no);
80002e20:	f240 3054 	movw	r0, #852	@ 0x354
80002e24:	f2c2 0000 	movt	r0, #8192	@ 0x2000
80002e28:	6802      	ldr	r2, [r0, #0]
/Users/till/.cache/arm/packs/AlifSemiconductor/Ensemble/1.3.3/Alif_CMSIS/Source/Driver_GPIO.c:507
    if (GPIO->cb_event[pin_no] != NULL)
80002e2a:	6ac1      	ldr	r1, [r0, #44]	@ 0x2c
gpio_interrupt_eoi():
/Users/till/.cache/arm/packs/AlifSemiconductor/Ensemble/1.3.3/drivers/include/gpio.h:349
    gpio->GPIO_PORTA_EOI |= (1 << pin_no);
80002e2c:	6cd0      	ldr	r0, [r2, #76]	@ 0x4c
GPIO_IRQ_Handler():
/Users/till/.cache/arm/packs/AlifSemiconductor/Ensemble/1.3.3/Alif_CMSIS/Source/Driver_GPIO.c:507
80002e2e:	2900      	cmp	r1, #0
gpio_interrupt_eoi():
/Users/till/.cache/arm/packs/AlifSemiconductor/Ensemble/1.3.3/drivers/include/gpio.h:349
80002e30:	f040 0010 	orr.w	r0, r0, #16
80002e34:	64d0      	str	r0, [r2, #76]	@ 0x4c
/Users/till/.cache/arm/packs/AlifSemiconductor/Ensemble/1.3.3/drivers/include/gpio.h:350
    (void) gpio->GPIO_PORTA_EOI;
80002e36:	6cd0      	ldr	r0, [r2, #76]	@ 0x4c
GPIO9_IRQ4Handler():
/Users/till/.cache/arm/packs/AlifSemiconductor/Ensemble/1.3.3/Alif_CMSIS/Source/Driver_GPIO.c:1345
void GPIO9_IRQ4Handler  (void) {   GPIO_IRQ_Handler (&GPIO9_RES, 4);    }
80002e38:	bf08      	it	eq
80002e3a:	4770      	bxeq	lr
GPIO_IRQ_Handler():
/Users/till/.cache/arm/packs/AlifSemiconductor/Ensemble/1.3.3/Alif_CMSIS/Source/Driver_GPIO.c:509
        GPIO->cb_event[pin_no](ARM_GPIO_IRQ_EVENT_EXTERNAL);
80002e3c:	2001      	movs	r0, #1
80002e3e:	4708      	bx	r1

80002e40 <GPIO9_IRQ5Handler>:
/Users/till/.cache/arm/packs/AlifSemiconductor/Ensemble/1.3.3/Alif_CMSIS/Source/Driver_GPIO.c:505
    gpio_interrupt_eoi(GPIO->reg_base, pin_no);
80002e40:	f240 3054 	movw	r0, #852	@ 0x354
80002e44:	f2c2 0000 	movt	r0, #8192	@ 0x2000
80002e48:	6802      	ldr	r2, [r0, #0]
/Users/till/.cache/arm/packs/AlifSemiconductor/Ensemble/1.3.3/Alif_CMSIS/Source/Driver_GPIO.c:507
    if (GPIO->cb_event[pin_no] != NULL)
80002e4a:	6b01      	ldr	r1, [r0, #48]	@ 0x30
gpio_interrupt_eoi():
/Users/till/.cache/arm/packs/AlifSemiconductor/Ensemble/1.3.3/drivers/include/gpio.h:349
    gpio->GPIO_PORTA_EOI |= (1 << pin_no);
80002e4c:	6cd0      	ldr	r0, [r2, #76]	@ 0x4c
GPIO_IRQ_Handler():
/Users/till/.cache/arm/packs/AlifSemiconductor/Ensemble/1.3.3/Alif_CMSIS/Source/Driver_GPIO.c:507
80002e4e:	2900      	cmp	r1, #0
gpio_interrupt_eoi():
/Users/till/.cache/arm/packs/AlifSemiconductor/Ensemble/1.3.3/drivers/include/gpio.h:349
80002e50:	f040 0020 	orr.w	r0, r0, #32
80002e54:	64d0      	str	r0, [r2, #76]	@ 0x4c
/Users/till/.cache/arm/packs/AlifSemiconductor/Ensemble/1.3.3/drivers/include/gpio.h:350
    (void) gpio->GPIO_PORTA_EOI;
80002e56:	6cd0      	ldr	r0, [r2, #76]	@ 0x4c
GPIO9_IRQ5Handler():
/Users/till/.cache/arm/packs/AlifSemiconductor/Ensemble/1.3.3/Alif_CMSIS/Source/Driver_GPIO.c:1347
void GPIO9_IRQ5Handler  (void) {   GPIO_IRQ_Handler (&GPIO9_RES, 5);    }
80002e58:	bf08      	it	eq
80002e5a:	4770      	bxeq	lr
GPIO_IRQ_Handler():
/Users/till/.cache/arm/packs/AlifSemiconductor/Ensemble/1.3.3/Alif_CMSIS/Source/Driver_GPIO.c:509
        GPIO->cb_event[pin_no](ARM_GPIO_IRQ_EVENT_EXTERNAL);
80002e5c:	2001      	movs	r0, #1
80002e5e:	4708      	bx	r1

80002e60 <GPIO9_IRQ6Handler>:
/Users/till/.cache/arm/packs/AlifSemiconductor/Ensemble/1.3.3/Alif_CMSIS/Source/Driver_GPIO.c:505
    gpio_interrupt_eoi(GPIO->reg_base, pin_no);
80002e60:	f240 3054 	movw	r0, #852	@ 0x354
80002e64:	f2c2 0000 	movt	r0, #8192	@ 0x2000
80002e68:	6802      	ldr	r2, [r0, #0]
/Users/till/.cache/arm/packs/AlifSemiconductor/Ensemble/1.3.3/Alif_CMSIS/Source/Driver_GPIO.c:507
    if (GPIO->cb_event[pin_no] != NULL)
80002e6a:	6b41      	ldr	r1, [r0, #52]	@ 0x34
gpio_interrupt_eoi():
/Users/till/.cache/arm/packs/AlifSemiconductor/Ensemble/1.3.3/drivers/include/gpio.h:349
    gpio->GPIO_PORTA_EOI |= (1 << pin_no);
80002e6c:	6cd0      	ldr	r0, [r2, #76]	@ 0x4c
GPIO_IRQ_Handler():
/Users/till/.cache/arm/packs/AlifSemiconductor/Ensemble/1.3.3/Alif_CMSIS/Source/Driver_GPIO.c:507
80002e6e:	2900      	cmp	r1, #0
gpio_interrupt_eoi():
/Users/till/.cache/arm/packs/AlifSemiconductor/Ensemble/1.3.3/drivers/include/gpio.h:349
80002e70:	f040 0040 	orr.w	r0, r0, #64	@ 0x40
80002e74:	64d0      	str	r0, [r2, #76]	@ 0x4c
/Users/till/.cache/arm/packs/AlifSemiconductor/Ensemble/1.3.3/drivers/include/gpio.h:350
    (void) gpio->GPIO_PORTA_EOI;
80002e76:	6cd0      	ldr	r0, [r2, #76]	@ 0x4c
GPIO9_IRQ6Handler():
/Users/till/.cache/arm/packs/AlifSemiconductor/Ensemble/1.3.3/Alif_CMSIS/Source/Driver_GPIO.c:1349
void GPIO9_IRQ6Handler  (void) {   GPIO_IRQ_Handler (&GPIO9_RES, 6);    }
80002e78:	bf08      	it	eq
80002e7a:	4770      	bxeq	lr
GPIO_IRQ_Handler():
/Users/till/.cache/arm/packs/AlifSemiconductor/Ensemble/1.3.3/Alif_CMSIS/Source/Driver_GPIO.c:509
        GPIO->cb_event[pin_no](ARM_GPIO_IRQ_EVENT_EXTERNAL);
80002e7c:	2001      	movs	r0, #1
80002e7e:	4708      	bx	r1

80002e80 <GPIO9_IRQ7Handler>:
/Users/till/.cache/arm/packs/AlifSemiconductor/Ensemble/1.3.3/Alif_CMSIS/Source/Driver_GPIO.c:505
    gpio_interrupt_eoi(GPIO->reg_base, pin_no);
80002e80:	f240 3054 	movw	r0, #852	@ 0x354
80002e84:	f2c2 0000 	movt	r0, #8192	@ 0x2000
80002e88:	6802      	ldr	r2, [r0, #0]
/Users/till/.cache/arm/packs/AlifSemiconductor/Ensemble/1.3.3/Alif_CMSIS/Source/Driver_GPIO.c:507
    if (GPIO->cb_event[pin_no] != NULL)
80002e8a:	6b81      	ldr	r1, [r0, #56]	@ 0x38
gpio_interrupt_eoi():
/Users/till/.cache/arm/packs/AlifSemiconductor/Ensemble/1.3.3/drivers/include/gpio.h:349
    gpio->GPIO_PORTA_EOI |= (1 << pin_no);
80002e8c:	6cd0      	ldr	r0, [r2, #76]	@ 0x4c
GPIO_IRQ_Handler():
/Users/till/.cache/arm/packs/AlifSemiconductor/Ensemble/1.3.3/Alif_CMSIS/Source/Driver_GPIO.c:507
80002e8e:	2900      	cmp	r1, #0
gpio_interrupt_eoi():
/Users/till/.cache/arm/packs/AlifSemiconductor/Ensemble/1.3.3/drivers/include/gpio.h:349
80002e90:	f040 0080 	orr.w	r0, r0, #128	@ 0x80
80002e94:	64d0      	str	r0, [r2, #76]	@ 0x4c
/Users/till/.cache/arm/packs/AlifSemiconductor/Ensemble/1.3.3/drivers/include/gpio.h:350
    (void) gpio->GPIO_PORTA_EOI;
80002e96:	6cd0      	ldr	r0, [r2, #76]	@ 0x4c
GPIO9_IRQ7Handler():
/Users/till/.cache/arm/packs/AlifSemiconductor/Ensemble/1.3.3/Alif_CMSIS/Source/Driver_GPIO.c:1351
void GPIO9_IRQ7Handler  (void) {   GPIO_IRQ_Handler (&GPIO9_RES, 7);    }
80002e98:	bf08      	it	eq
80002e9a:	4770      	bxeq	lr
GPIO_IRQ_Handler():
/Users/till/.cache/arm/packs/AlifSemiconductor/Ensemble/1.3.3/Alif_CMSIS/Source/Driver_GPIO.c:509
        GPIO->cb_event[pin_no](ARM_GPIO_IRQ_EVENT_EXTERNAL);
80002e9c:	2001      	movs	r0, #1
80002e9e:	4708      	bx	r1

80002ea0 <HardFault_Handler>:
HardFault_Handler():
/Users/till/Documents/Studium/Module/2025_SoSe/Tests/alif_e7_tests/libs/common_app_utils/fault_handler/fault_handler.c:317
    __asm("MOVS R0, #0\n\t"
80002ea0:	2000      	movs	r0, #0
80002ea2:	f002 b98f 	b.w	800051c4 <CommonAsmFaultHandler>
	...

80002ea8 <LPGPIO_IRQ0Handler>:
GPIO_IRQ_Handler():
/Users/till/.cache/arm/packs/AlifSemiconductor/Ensemble/1.3.3/Alif_CMSIS/Source/Driver_GPIO.c:505
    gpio_interrupt_eoi(GPIO->reg_base, pin_no);
80002ea8:	f240 3090 	movw	r0, #912	@ 0x390
80002eac:	f2c2 0000 	movt	r0, #8192	@ 0x2000
80002eb0:	6802      	ldr	r2, [r0, #0]
/Users/till/.cache/arm/packs/AlifSemiconductor/Ensemble/1.3.3/Alif_CMSIS/Source/Driver_GPIO.c:507
    if (GPIO->cb_event[pin_no] != NULL)
80002eb2:	69c1      	ldr	r1, [r0, #28]
gpio_interrupt_eoi():
/Users/till/.cache/arm/packs/AlifSemiconductor/Ensemble/1.3.3/drivers/include/gpio.h:349
    gpio->GPIO_PORTA_EOI |= (1 << pin_no);
80002eb4:	6cd0      	ldr	r0, [r2, #76]	@ 0x4c
GPIO_IRQ_Handler():
/Users/till/.cache/arm/packs/AlifSemiconductor/Ensemble/1.3.3/Alif_CMSIS/Source/Driver_GPIO.c:507
80002eb6:	2900      	cmp	r1, #0
gpio_interrupt_eoi():
/Users/till/.cache/arm/packs/AlifSemiconductor/Ensemble/1.3.3/drivers/include/gpio.h:349
80002eb8:	f040 0001 	orr.w	r0, r0, #1
80002ebc:	64d0      	str	r0, [r2, #76]	@ 0x4c
/Users/till/.cache/arm/packs/AlifSemiconductor/Ensemble/1.3.3/drivers/include/gpio.h:350
    (void) gpio->GPIO_PORTA_EOI;
80002ebe:	6cd0      	ldr	r0, [r2, #76]	@ 0x4c
LPGPIO_IRQ0Handler():
/Users/till/.cache/arm/packs/AlifSemiconductor/Ensemble/1.3.3/Alif_CMSIS/Source/Driver_GPIO.c:1869
            RTE_LPGPIO_PIN5_IRQ_PRIORITY,
            RTE_LPGPIO_PIN6_IRQ_PRIORITY,
            RTE_LPGPIO_PIN7_IRQ_PRIORITY,
    }
};
void LPGPIO_IRQ0Handler  (void) {   GPIO_IRQ_Handler (&LPGPIO_RES, 0);    }
80002ec0:	bf08      	it	eq
80002ec2:	4770      	bxeq	lr
GPIO_IRQ_Handler():
/Users/till/.cache/arm/packs/AlifSemiconductor/Ensemble/1.3.3/Alif_CMSIS/Source/Driver_GPIO.c:509
        GPIO->cb_event[pin_no](ARM_GPIO_IRQ_EVENT_EXTERNAL);
80002ec4:	2001      	movs	r0, #1
80002ec6:	4708      	bx	r1

80002ec8 <LPGPIO_IRQ1Handler>:
/Users/till/.cache/arm/packs/AlifSemiconductor/Ensemble/1.3.3/Alif_CMSIS/Source/Driver_GPIO.c:505
    gpio_interrupt_eoi(GPIO->reg_base, pin_no);
80002ec8:	f240 3090 	movw	r0, #912	@ 0x390
80002ecc:	f2c2 0000 	movt	r0, #8192	@ 0x2000
80002ed0:	6802      	ldr	r2, [r0, #0]
/Users/till/.cache/arm/packs/AlifSemiconductor/Ensemble/1.3.3/Alif_CMSIS/Source/Driver_GPIO.c:507
    if (GPIO->cb_event[pin_no] != NULL)
80002ed2:	6a01      	ldr	r1, [r0, #32]
gpio_interrupt_eoi():
/Users/till/.cache/arm/packs/AlifSemiconductor/Ensemble/1.3.3/drivers/include/gpio.h:349
    gpio->GPIO_PORTA_EOI |= (1 << pin_no);
80002ed4:	6cd0      	ldr	r0, [r2, #76]	@ 0x4c
GPIO_IRQ_Handler():
/Users/till/.cache/arm/packs/AlifSemiconductor/Ensemble/1.3.3/Alif_CMSIS/Source/Driver_GPIO.c:507
80002ed6:	2900      	cmp	r1, #0
gpio_interrupt_eoi():
/Users/till/.cache/arm/packs/AlifSemiconductor/Ensemble/1.3.3/drivers/include/gpio.h:349
80002ed8:	f040 0002 	orr.w	r0, r0, #2
80002edc:	64d0      	str	r0, [r2, #76]	@ 0x4c
/Users/till/.cache/arm/packs/AlifSemiconductor/Ensemble/1.3.3/drivers/include/gpio.h:350
    (void) gpio->GPIO_PORTA_EOI;
80002ede:	6cd0      	ldr	r0, [r2, #76]	@ 0x4c
LPGPIO_IRQ1Handler():
/Users/till/.cache/arm/packs/AlifSemiconductor/Ensemble/1.3.3/Alif_CMSIS/Source/Driver_GPIO.c:1871

void LPGPIO_IRQ1Handler  (void) {   GPIO_IRQ_Handler (&LPGPIO_RES, 1);    }
80002ee0:	bf08      	it	eq
80002ee2:	4770      	bxeq	lr
GPIO_IRQ_Handler():
/Users/till/.cache/arm/packs/AlifSemiconductor/Ensemble/1.3.3/Alif_CMSIS/Source/Driver_GPIO.c:509
        GPIO->cb_event[pin_no](ARM_GPIO_IRQ_EVENT_EXTERNAL);
80002ee4:	2001      	movs	r0, #1
80002ee6:	4708      	bx	r1

80002ee8 <LPGPIO_IRQ2Handler>:
/Users/till/.cache/arm/packs/AlifSemiconductor/Ensemble/1.3.3/Alif_CMSIS/Source/Driver_GPIO.c:505
    gpio_interrupt_eoi(GPIO->reg_base, pin_no);
80002ee8:	f240 3090 	movw	r0, #912	@ 0x390
80002eec:	f2c2 0000 	movt	r0, #8192	@ 0x2000
80002ef0:	6802      	ldr	r2, [r0, #0]
/Users/till/.cache/arm/packs/AlifSemiconductor/Ensemble/1.3.3/Alif_CMSIS/Source/Driver_GPIO.c:507
    if (GPIO->cb_event[pin_no] != NULL)
80002ef2:	6a41      	ldr	r1, [r0, #36]	@ 0x24
gpio_interrupt_eoi():
/Users/till/.cache/arm/packs/AlifSemiconductor/Ensemble/1.3.3/drivers/include/gpio.h:349
    gpio->GPIO_PORTA_EOI |= (1 << pin_no);
80002ef4:	6cd0      	ldr	r0, [r2, #76]	@ 0x4c
GPIO_IRQ_Handler():
/Users/till/.cache/arm/packs/AlifSemiconductor/Ensemble/1.3.3/Alif_CMSIS/Source/Driver_GPIO.c:507
80002ef6:	2900      	cmp	r1, #0
gpio_interrupt_eoi():
/Users/till/.cache/arm/packs/AlifSemiconductor/Ensemble/1.3.3/drivers/include/gpio.h:349
80002ef8:	f040 0004 	orr.w	r0, r0, #4
80002efc:	64d0      	str	r0, [r2, #76]	@ 0x4c
/Users/till/.cache/arm/packs/AlifSemiconductor/Ensemble/1.3.3/drivers/include/gpio.h:350
    (void) gpio->GPIO_PORTA_EOI;
80002efe:	6cd0      	ldr	r0, [r2, #76]	@ 0x4c
LPGPIO_IRQ2Handler():
/Users/till/.cache/arm/packs/AlifSemiconductor/Ensemble/1.3.3/Alif_CMSIS/Source/Driver_GPIO.c:1873

void LPGPIO_IRQ2Handler  (void) {   GPIO_IRQ_Handler (&LPGPIO_RES, 2);    }
80002f00:	bf08      	it	eq
80002f02:	4770      	bxeq	lr
GPIO_IRQ_Handler():
/Users/till/.cache/arm/packs/AlifSemiconductor/Ensemble/1.3.3/Alif_CMSIS/Source/Driver_GPIO.c:509
        GPIO->cb_event[pin_no](ARM_GPIO_IRQ_EVENT_EXTERNAL);
80002f04:	2001      	movs	r0, #1
80002f06:	4708      	bx	r1

80002f08 <LPGPIO_IRQ3Handler>:
/Users/till/.cache/arm/packs/AlifSemiconductor/Ensemble/1.3.3/Alif_CMSIS/Source/Driver_GPIO.c:505
    gpio_interrupt_eoi(GPIO->reg_base, pin_no);
80002f08:	f240 3090 	movw	r0, #912	@ 0x390
80002f0c:	f2c2 0000 	movt	r0, #8192	@ 0x2000
80002f10:	6802      	ldr	r2, [r0, #0]
/Users/till/.cache/arm/packs/AlifSemiconductor/Ensemble/1.3.3/Alif_CMSIS/Source/Driver_GPIO.c:507
    if (GPIO->cb_event[pin_no] != NULL)
80002f12:	6a81      	ldr	r1, [r0, #40]	@ 0x28
gpio_interrupt_eoi():
/Users/till/.cache/arm/packs/AlifSemiconductor/Ensemble/1.3.3/drivers/include/gpio.h:349
    gpio->GPIO_PORTA_EOI |= (1 << pin_no);
80002f14:	6cd0      	ldr	r0, [r2, #76]	@ 0x4c
GPIO_IRQ_Handler():
/Users/till/.cache/arm/packs/AlifSemiconductor/Ensemble/1.3.3/Alif_CMSIS/Source/Driver_GPIO.c:507
80002f16:	2900      	cmp	r1, #0
gpio_interrupt_eoi():
/Users/till/.cache/arm/packs/AlifSemiconductor/Ensemble/1.3.3/drivers/include/gpio.h:349
80002f18:	f040 0008 	orr.w	r0, r0, #8
80002f1c:	64d0      	str	r0, [r2, #76]	@ 0x4c
/Users/till/.cache/arm/packs/AlifSemiconductor/Ensemble/1.3.3/drivers/include/gpio.h:350
    (void) gpio->GPIO_PORTA_EOI;
80002f1e:	6cd0      	ldr	r0, [r2, #76]	@ 0x4c
LPGPIO_IRQ3Handler():
/Users/till/.cache/arm/packs/AlifSemiconductor/Ensemble/1.3.3/Alif_CMSIS/Source/Driver_GPIO.c:1875

void LPGPIO_IRQ3Handler  (void) {   GPIO_IRQ_Handler (&LPGPIO_RES, 3);    }
80002f20:	bf08      	it	eq
80002f22:	4770      	bxeq	lr
GPIO_IRQ_Handler():
/Users/till/.cache/arm/packs/AlifSemiconductor/Ensemble/1.3.3/Alif_CMSIS/Source/Driver_GPIO.c:509
        GPIO->cb_event[pin_no](ARM_GPIO_IRQ_EVENT_EXTERNAL);
80002f24:	2001      	movs	r0, #1
80002f26:	4708      	bx	r1

80002f28 <LPGPIO_IRQ4Handler>:
/Users/till/.cache/arm/packs/AlifSemiconductor/Ensemble/1.3.3/Alif_CMSIS/Source/Driver_GPIO.c:505
    gpio_interrupt_eoi(GPIO->reg_base, pin_no);
80002f28:	f240 3090 	movw	r0, #912	@ 0x390
80002f2c:	f2c2 0000 	movt	r0, #8192	@ 0x2000
80002f30:	6802      	ldr	r2, [r0, #0]
/Users/till/.cache/arm/packs/AlifSemiconductor/Ensemble/1.3.3/Alif_CMSIS/Source/Driver_GPIO.c:507
    if (GPIO->cb_event[pin_no] != NULL)
80002f32:	6ac1      	ldr	r1, [r0, #44]	@ 0x2c
gpio_interrupt_eoi():
/Users/till/.cache/arm/packs/AlifSemiconductor/Ensemble/1.3.3/drivers/include/gpio.h:349
    gpio->GPIO_PORTA_EOI |= (1 << pin_no);
80002f34:	6cd0      	ldr	r0, [r2, #76]	@ 0x4c
GPIO_IRQ_Handler():
/Users/till/.cache/arm/packs/AlifSemiconductor/Ensemble/1.3.3/Alif_CMSIS/Source/Driver_GPIO.c:507
80002f36:	2900      	cmp	r1, #0
gpio_interrupt_eoi():
/Users/till/.cache/arm/packs/AlifSemiconductor/Ensemble/1.3.3/drivers/include/gpio.h:349
80002f38:	f040 0010 	orr.w	r0, r0, #16
80002f3c:	64d0      	str	r0, [r2, #76]	@ 0x4c
/Users/till/.cache/arm/packs/AlifSemiconductor/Ensemble/1.3.3/drivers/include/gpio.h:350
    (void) gpio->GPIO_PORTA_EOI;
80002f3e:	6cd0      	ldr	r0, [r2, #76]	@ 0x4c
LPGPIO_IRQ4Handler():
/Users/till/.cache/arm/packs/AlifSemiconductor/Ensemble/1.3.3/Alif_CMSIS/Source/Driver_GPIO.c:1877

void LPGPIO_IRQ4Handler  (void) {   GPIO_IRQ_Handler (&LPGPIO_RES, 4);    }
80002f40:	bf08      	it	eq
80002f42:	4770      	bxeq	lr
GPIO_IRQ_Handler():
/Users/till/.cache/arm/packs/AlifSemiconductor/Ensemble/1.3.3/Alif_CMSIS/Source/Driver_GPIO.c:509
        GPIO->cb_event[pin_no](ARM_GPIO_IRQ_EVENT_EXTERNAL);
80002f44:	2001      	movs	r0, #1
80002f46:	4708      	bx	r1

80002f48 <LPGPIO_IRQ5Handler>:
/Users/till/.cache/arm/packs/AlifSemiconductor/Ensemble/1.3.3/Alif_CMSIS/Source/Driver_GPIO.c:505
    gpio_interrupt_eoi(GPIO->reg_base, pin_no);
80002f48:	f240 3090 	movw	r0, #912	@ 0x390
80002f4c:	f2c2 0000 	movt	r0, #8192	@ 0x2000
80002f50:	6802      	ldr	r2, [r0, #0]
/Users/till/.cache/arm/packs/AlifSemiconductor/Ensemble/1.3.3/Alif_CMSIS/Source/Driver_GPIO.c:507
    if (GPIO->cb_event[pin_no] != NULL)
80002f52:	6b01      	ldr	r1, [r0, #48]	@ 0x30
gpio_interrupt_eoi():
/Users/till/.cache/arm/packs/AlifSemiconductor/Ensemble/1.3.3/drivers/include/gpio.h:349
    gpio->GPIO_PORTA_EOI |= (1 << pin_no);
80002f54:	6cd0      	ldr	r0, [r2, #76]	@ 0x4c
GPIO_IRQ_Handler():
/Users/till/.cache/arm/packs/AlifSemiconductor/Ensemble/1.3.3/Alif_CMSIS/Source/Driver_GPIO.c:507
80002f56:	2900      	cmp	r1, #0
gpio_interrupt_eoi():
/Users/till/.cache/arm/packs/AlifSemiconductor/Ensemble/1.3.3/drivers/include/gpio.h:349
80002f58:	f040 0020 	orr.w	r0, r0, #32
80002f5c:	64d0      	str	r0, [r2, #76]	@ 0x4c
/Users/till/.cache/arm/packs/AlifSemiconductor/Ensemble/1.3.3/drivers/include/gpio.h:350
    (void) gpio->GPIO_PORTA_EOI;
80002f5e:	6cd0      	ldr	r0, [r2, #76]	@ 0x4c
LPGPIO_IRQ5Handler():
/Users/till/.cache/arm/packs/AlifSemiconductor/Ensemble/1.3.3/Alif_CMSIS/Source/Driver_GPIO.c:1879

void LPGPIO_IRQ5Handler  (void) {   GPIO_IRQ_Handler (&LPGPIO_RES, 5);    }
80002f60:	bf08      	it	eq
80002f62:	4770      	bxeq	lr
GPIO_IRQ_Handler():
/Users/till/.cache/arm/packs/AlifSemiconductor/Ensemble/1.3.3/Alif_CMSIS/Source/Driver_GPIO.c:509
        GPIO->cb_event[pin_no](ARM_GPIO_IRQ_EVENT_EXTERNAL);
80002f64:	2001      	movs	r0, #1
80002f66:	4708      	bx	r1

80002f68 <LPGPIO_IRQ6Handler>:
/Users/till/.cache/arm/packs/AlifSemiconductor/Ensemble/1.3.3/Alif_CMSIS/Source/Driver_GPIO.c:505
    gpio_interrupt_eoi(GPIO->reg_base, pin_no);
80002f68:	f240 3090 	movw	r0, #912	@ 0x390
80002f6c:	f2c2 0000 	movt	r0, #8192	@ 0x2000
80002f70:	6802      	ldr	r2, [r0, #0]
/Users/till/.cache/arm/packs/AlifSemiconductor/Ensemble/1.3.3/Alif_CMSIS/Source/Driver_GPIO.c:507
    if (GPIO->cb_event[pin_no] != NULL)
80002f72:	6b41      	ldr	r1, [r0, #52]	@ 0x34
gpio_interrupt_eoi():
/Users/till/.cache/arm/packs/AlifSemiconductor/Ensemble/1.3.3/drivers/include/gpio.h:349
    gpio->GPIO_PORTA_EOI |= (1 << pin_no);
80002f74:	6cd0      	ldr	r0, [r2, #76]	@ 0x4c
GPIO_IRQ_Handler():
/Users/till/.cache/arm/packs/AlifSemiconductor/Ensemble/1.3.3/Alif_CMSIS/Source/Driver_GPIO.c:507
80002f76:	2900      	cmp	r1, #0
gpio_interrupt_eoi():
/Users/till/.cache/arm/packs/AlifSemiconductor/Ensemble/1.3.3/drivers/include/gpio.h:349
80002f78:	f040 0040 	orr.w	r0, r0, #64	@ 0x40
80002f7c:	64d0      	str	r0, [r2, #76]	@ 0x4c
/Users/till/.cache/arm/packs/AlifSemiconductor/Ensemble/1.3.3/drivers/include/gpio.h:350
    (void) gpio->GPIO_PORTA_EOI;
80002f7e:	6cd0      	ldr	r0, [r2, #76]	@ 0x4c
LPGPIO_IRQ6Handler():
/Users/till/.cache/arm/packs/AlifSemiconductor/Ensemble/1.3.3/Alif_CMSIS/Source/Driver_GPIO.c:1881

void LPGPIO_IRQ6Handler  (void) {   GPIO_IRQ_Handler (&LPGPIO_RES, 6);    }
80002f80:	bf08      	it	eq
80002f82:	4770      	bxeq	lr
GPIO_IRQ_Handler():
/Users/till/.cache/arm/packs/AlifSemiconductor/Ensemble/1.3.3/Alif_CMSIS/Source/Driver_GPIO.c:509
        GPIO->cb_event[pin_no](ARM_GPIO_IRQ_EVENT_EXTERNAL);
80002f84:	2001      	movs	r0, #1
80002f86:	4708      	bx	r1

80002f88 <LPGPIO_IRQ7Handler>:
/Users/till/.cache/arm/packs/AlifSemiconductor/Ensemble/1.3.3/Alif_CMSIS/Source/Driver_GPIO.c:505
    gpio_interrupt_eoi(GPIO->reg_base, pin_no);
80002f88:	f240 3090 	movw	r0, #912	@ 0x390
80002f8c:	f2c2 0000 	movt	r0, #8192	@ 0x2000
80002f90:	6802      	ldr	r2, [r0, #0]
/Users/till/.cache/arm/packs/AlifSemiconductor/Ensemble/1.3.3/Alif_CMSIS/Source/Driver_GPIO.c:507
    if (GPIO->cb_event[pin_no] != NULL)
80002f92:	6b81      	ldr	r1, [r0, #56]	@ 0x38
gpio_interrupt_eoi():
/Users/till/.cache/arm/packs/AlifSemiconductor/Ensemble/1.3.3/drivers/include/gpio.h:349
    gpio->GPIO_PORTA_EOI |= (1 << pin_no);
80002f94:	6cd0      	ldr	r0, [r2, #76]	@ 0x4c
GPIO_IRQ_Handler():
/Users/till/.cache/arm/packs/AlifSemiconductor/Ensemble/1.3.3/Alif_CMSIS/Source/Driver_GPIO.c:507
80002f96:	2900      	cmp	r1, #0
gpio_interrupt_eoi():
/Users/till/.cache/arm/packs/AlifSemiconductor/Ensemble/1.3.3/drivers/include/gpio.h:349
80002f98:	f040 0080 	orr.w	r0, r0, #128	@ 0x80
80002f9c:	64d0      	str	r0, [r2, #76]	@ 0x4c
/Users/till/.cache/arm/packs/AlifSemiconductor/Ensemble/1.3.3/drivers/include/gpio.h:350
    (void) gpio->GPIO_PORTA_EOI;
80002f9e:	6cd0      	ldr	r0, [r2, #76]	@ 0x4c
LPGPIO_IRQ7Handler():
/Users/till/.cache/arm/packs/AlifSemiconductor/Ensemble/1.3.3/Alif_CMSIS/Source/Driver_GPIO.c:1883

void LPGPIO_IRQ7Handler  (void) {   GPIO_IRQ_Handler (&LPGPIO_RES, 7);    }
80002fa0:	bf08      	it	eq
80002fa2:	4770      	bxeq	lr
GPIO_IRQ_Handler():
/Users/till/.cache/arm/packs/AlifSemiconductor/Ensemble/1.3.3/Alif_CMSIS/Source/Driver_GPIO.c:509
        GPIO->cb_event[pin_no](ARM_GPIO_IRQ_EVENT_EXTERNAL);
80002fa4:	2001      	movs	r0, #1
80002fa6:	4708      	bx	r1

80002fa8 <LPRTC_IRQHandler>:
LPRTC_IRQHandler():
/Users/till/.cache/arm/packs/AlifSemiconductor/Ensemble/1.3.3/Alif_CMSIS/Source/Driver_RTC.c:398
    return (LPRTC_LoadCounter (&RTC0, loadval));
}

/* Function Name: RTC0_IRQHandler */
void LPRTC_IRQHandler (void)
{
80002fa8:	b510      	push	{r4, lr}
RTC_IRQHandler():
/Users/till/.cache/arm/packs/AlifSemiconductor/Ensemble/1.3.3/Alif_CMSIS/Source/Driver_RTC.c:331
    lprtc_interrupt_ack (LPRTC_RES->regs);
80002faa:	f240 4418 	movw	r4, #1048	@ 0x418
80002fae:	f2c2 0400 	movt	r4, #8192	@ 0x2000
80002fb2:	e9d4 0100 	ldrd	r0, r1, [r4]
lprtc_interrupt_ack():
/Users/till/.cache/arm/packs/AlifSemiconductor/Ensemble/1.3.3/drivers/include/rtc.h:169
  \return       none
*/
static inline void lprtc_interrupt_ack (LPRTC_Type *lprtc)
{
    /* read to clear match interrupt. */
    (void) (lprtc->LPRTC_EOI);
80002fb6:	6980      	ldr	r0, [r0, #24]
RTC_IRQHandler():
/Users/till/.cache/arm/packs/AlifSemiconductor/Ensemble/1.3.3/Alif_CMSIS/Source/Driver_RTC.c:337
    if (LPRTC_RES->cb_event != NULL)
80002fb8:	2900      	cmp	r1, #0
/Users/till/.cache/arm/packs/AlifSemiconductor/Ensemble/1.3.3/Alif_CMSIS/Source/Driver_RTC.c:340
        LPRTC_RES->cb_event(event);
80002fba:	bf1c      	itt	ne
80002fbc:	2001      	movne	r0, #1
80002fbe:	4788      	blxne	r1
/Users/till/.cache/arm/packs/AlifSemiconductor/Ensemble/1.3.3/Alif_CMSIS/Source/Driver_RTC.c:343
    NVIC_DisableIRQ (LPRTC_RES->irq_num);
80002fc0:	68e0      	ldr	r0, [r4, #12]
__NVIC_DisableIRQ():
/Users/till/.cache/arm/packs/ARM/CMSIS/6.0.0/CMSIS/Core/Include/core_cm55.h:3774
  \param [in]      IRQn  Device specific interrupt number.
  \note    IRQn must not be negative.
 */
__STATIC_INLINE void __NVIC_DisableIRQ(IRQn_Type IRQn)
{
  if ((int32_t)(IRQn) >= 0)
80002fc2:	2800      	cmp	r0, #0
80002fc4:	d40f      	bmi.n	80002fe6 <LPRTC_IRQHandler+0x3e>
/Users/till/.cache/arm/packs/ARM/CMSIS/6.0.0/CMSIS/Core/Include/core_cm55.h:3776
  {
    NVIC->ICER[(((uint32_t)IRQn) >> 5UL)] = (uint32_t)(1UL << (((uint32_t)IRQn) & 0x1FUL));
80002fc6:	f000 011f 	and.w	r1, r0, #31
80002fca:	2201      	movs	r2, #1
80002fcc:	fa02 f101 	lsl.w	r1, r2, r1
80002fd0:	f24e 1280 	movw	r2, #57728	@ 0xe180
80002fd4:	0940      	lsrs	r0, r0, #5
80002fd6:	f2ce 0200 	movt	r2, #57344	@ 0xe000
80002fda:	f842 1020 	str.w	r1, [r2, r0, lsl #2]
/Users/till/.cache/arm/packs/ARM/CMSIS/6.0.0/CMSIS/Core/Include/core_cm55.h:3777
    __DSB();
80002fde:	f3bf 8f4f 	dsb	sy
/Users/till/.cache/arm/packs/ARM/CMSIS/6.0.0/CMSIS/Core/Include/core_cm55.h:3778
    __ISB();
80002fe2:	f3bf 8f6f 	isb	sy
RTC_IRQHandler():
/Users/till/.cache/arm/packs/AlifSemiconductor/Ensemble/1.3.3/Alif_CMSIS/Source/Driver_RTC.c:346
    LPRTC_RES->state.alarm = 0;
80002fe6:	68a0      	ldr	r0, [r4, #8]
80002fe8:	f020 0004 	bic.w	r0, r0, #4
80002fec:	60a0      	str	r0, [r4, #8]
LPRTC_IRQHandler():
/Users/till/.cache/arm/packs/AlifSemiconductor/Ensemble/1.3.3/Alif_CMSIS/Source/Driver_RTC.c:400
    RTC_IRQHandler (&RTC0);
}
80002fee:	bd10      	pop	{r4, pc}

80002ff0 <LPUART_IRQHandler>:
LPUART_IRQHandler():
/Users/till/.cache/arm/packs/AlifSemiconductor/Ensemble/1.3.3/Alif_CMSIS/Source/Driver_USART.c:3112
#endif /* END of RS485_SUPPORT */
};

void LPUART_IRQHandler (void)
{
    UART_IRQHandler(&LPUART);
80002ff0:	f240 30cc 	movw	r0, #972	@ 0x3cc
80002ff4:	f2c2 0000 	movt	r0, #8192	@ 0x2000
80002ff8:	f000 bb12 	b.w	80003620 <UART_IRQHandler>

80002ffc <MPU_Load_Regions>:
MPU_Load_Regions():
/Users/till/.cache/arm/packs/AlifSemiconductor/Ensemble/1.3.3/Device/common/source/mpu_M55.c:51
 * @param  None
 * @retval None
 */
__attribute__ ((weak))
void MPU_Load_Regions(void)
{
80002ffc:	f64e 50c0 	movw	r0, #60864	@ 0xedc0
80003000:	2222      	movs	r2, #34	@ 0x22
80003002:	f2ce 0000 	movt	r0, #57344	@ 0xe000
80003006:	23aa      	movs	r3, #170	@ 0xaa
ARM_MPU_SetMemAttrEx():
/Users/till/.cache/arm/packs/ARM/CMSIS/6.0.0/CMSIS/Core/Include/m-profile/armv8m_mpu.h:267

  if (reg >= (sizeof(mpu->MAIR) / sizeof(mpu->MAIR[0]))) {
    return; // invalid index
  }

  mpu->MAIR[reg] = ((mpu->MAIR[reg] & ~mask) | ((attr << pos) & mask));
80003008:	6801      	ldr	r1, [r0, #0]
8000300a:	f362 0107 	bfi	r1, r2, #0, #8
8000300e:	6001      	str	r1, [r0, #0]
80003010:	2104      	movs	r1, #4
80003012:	6802      	ldr	r2, [r0, #0]
80003014:	f361 220f 	bfi	r2, r1, #8, #8
80003018:	6002      	str	r2, [r0, #0]
8000301a:	6802      	ldr	r2, [r0, #0]
8000301c:	f442 027f 	orr.w	r2, r2, #16711680	@ 0xff0000
80003020:	6002      	str	r2, [r0, #0]
80003022:	6802      	ldr	r2, [r0, #0]
80003024:	f363 621f 	bfi	r2, r3, #24, #8
80003028:	6002      	str	r2, [r0, #0]
8000302a:	2200      	movs	r2, #0
ARM_MPU_LoadEx():
/Users/till/.cache/arm/packs/ARM/CMSIS/6.0.0/CMSIS/Core/Include/m-profile/armv8m_mpu.h:383
    ARM_MPU_OrderedMemcpy(&(mpu->RBAR), &(table->RBAR), rowWordSize);
  } else {
    uint32_t rnrBase   = rnr & ~(MPU_TYPE_RALIASES-1U);
    uint32_t rnrOffset = rnr % MPU_TYPE_RALIASES;

    mpu->RNR = rnrBase;
8000302c:	f840 2c28 	str.w	r2, [r0, #-40]
80003030:	2202      	movs	r2, #2
80003032:	f2c0 2200 	movt	r2, #512	@ 0x200
ARM_MPU_OrderedMemcpy():
/Users/till/.cache/arm/packs/ARM/CMSIS/6.0.0/CMSIS/Core/Include/m-profile/armv8m_mpu.h:363
    dst[i] = src[i];
80003036:	f840 2c24 	str.w	r2, [r0, #-36]
8000303a:	f64f 72e1 	movw	r2, #65505	@ 0xffe1
8000303e:	f2c0 223f 	movt	r2, #575	@ 0x23f
80003042:	f840 2c20 	str.w	r2, [r0, #-32]
80003046:	2202      	movs	r2, #2
80003048:	f6c0 0200 	movt	r2, #2048	@ 0x800
8000304c:	f840 2c1c 	str.w	r2, [r0, #-28]
80003050:	f64f 72e5 	movw	r2, #65509	@ 0xffe5
80003054:	f6c0 0227 	movt	r2, #2087	@ 0x827
80003058:	f840 2c18 	str.w	r2, [r0, #-24]
8000305c:	2203      	movs	r2, #3
8000305e:	f6c1 2200 	movt	r2, #6656	@ 0x1a00
80003062:	f840 2c14 	str.w	r2, [r0, #-20]
80003066:	f64f 72e3 	movw	r2, #65507	@ 0xffe3
8000306a:	f6c1 22ff 	movt	r2, #6911	@ 0x1aff
8000306e:	f840 2c10 	str.w	r2, [r0, #-16]
80003072:	2212      	movs	r2, #18
80003074:	f2c5 0200 	movt	r2, #20480	@ 0x5000
80003078:	f840 2c0c 	str.w	r2, [r0, #-12]
8000307c:	f64f 72e5 	movw	r2, #65509	@ 0xffe5
80003080:	f2c5 0203 	movt	r2, #20483	@ 0x5003
80003084:	f840 2c08 	str.w	r2, [r0, #-8]
80003088:	2208      	movs	r2, #8
ARM_MPU_LoadEx():
/Users/till/.cache/arm/packs/ARM/CMSIS/6.0.0/CMSIS/Core/Include/m-profile/armv8m_mpu.h:391
      ARM_MPU_OrderedMemcpy(&(mpu->RBAR)+(rnrOffset*2U), &(table->RBAR), c*rowWordSize);
      table += c;
      cnt -= c;
      rnrOffset = 0U;
      rnrBase += MPU_TYPE_RALIASES;
      mpu->RNR = rnrBase;
8000308a:	f840 1c28 	str.w	r1, [r0, #-40]
8000308e:	2112      	movs	r1, #18
80003090:	f2c5 0180 	movt	r1, #20608	@ 0x5080
ARM_MPU_OrderedMemcpy():
/Users/till/.cache/arm/packs/ARM/CMSIS/6.0.0/CMSIS/Core/Include/m-profile/armv8m_mpu.h:363
    dst[i] = src[i];
80003094:	f840 1c24 	str.w	r1, [r0, #-36]
80003098:	f64f 71e5 	movw	r1, #65509	@ 0xffe5
8000309c:	f2c5 018f 	movt	r1, #20623	@ 0x508f
800030a0:	f840 1c20 	str.w	r1, [r0, #-32]
800030a4:	2106      	movs	r1, #6
800030a6:	f2c8 0100 	movt	r1, #32768	@ 0x8000
800030aa:	f840 1c1c 	str.w	r1, [r0, #-28]
800030ae:	f64f 71e7 	movw	r1, #65511	@ 0xffe7
800030b2:	f2c8 0157 	movt	r1, #32855	@ 0x8057
800030b6:	f840 1c18 	str.w	r1, [r0, #-24]
800030ba:	2103      	movs	r1, #3
800030bc:	f2c8 3100 	movt	r1, #33536	@ 0x8300
800030c0:	f840 1c14 	str.w	r1, [r0, #-20]
800030c4:	f64f 71e3 	movw	r1, #65507	@ 0xffe3
800030c8:	f2c8 31ff 	movt	r1, #33791	@ 0x83ff
800030cc:	f840 1c10 	str.w	r1, [r0, #-16]
800030d0:	2102      	movs	r1, #2
800030d2:	f2ca 0100 	movt	r1, #40960	@ 0xa000
800030d6:	f840 1c0c 	str.w	r1, [r0, #-12]
800030da:	f64f 71e5 	movw	r1, #65509	@ 0xffe5
800030de:	f6cb 71ff 	movt	r1, #49151	@ 0xbfff
800030e2:	f840 1c08 	str.w	r1, [r0, #-8]
800030e6:	3121      	adds	r1, #33	@ 0x21
ARM_MPU_LoadEx():
/Users/till/.cache/arm/packs/ARM/CMSIS/6.0.0/CMSIS/Core/Include/m-profile/armv8m_mpu.h:391
      mpu->RNR = rnrBase;
800030e8:	f840 2c28 	str.w	r2, [r0, #-40]
ARM_MPU_OrderedMemcpy():
/Users/till/.cache/arm/packs/ARM/CMSIS/6.0.0/CMSIS/Core/Include/m-profile/armv8m_mpu.h:363
    dst[i] = src[i];
800030ec:	f840 1c24 	str.w	r1, [r0, #-36]
800030f0:	f64f 71e7 	movw	r1, #65511	@ 0xffe7
800030f4:	f6cd 71ff 	movt	r1, #57343	@ 0xdfff
800030f8:	f840 1c20 	str.w	r1, [r0, #-32]
MPU_Load_Regions():
/Users/till/.cache/arm/packs/AlifSemiconductor/Ensemble/1.3.3/Device/common/source/mpu_M55.c:136
                                         ARM_MPU_ATTR_MEMORY_(1,0,1,0),
                                         ARM_MPU_ATTR_MEMORY_(1,0,1,0)));

    /* Load the regions from the table */
    ARM_MPU_Load(0, mpu_table, sizeof(mpu_table)/sizeof(ARM_MPU_Region_t));
}
800030fc:	4770      	bx	lr
	...

80003100 <MPU_Setup>:
MPU_Setup():
/Users/till/.cache/arm/packs/AlifSemiconductor/Ensemble/1.3.3/Device/common/source/mpu_M55.c:170
 * @param  None
 * @retval None
 */
__attribute__ ((weak))
void MPU_Setup(void)
{
80003100:	b510      	push	{r4, lr}
80003102:	f64e 5498 	movw	r4, #60824	@ 0xed98
80003106:	f2ce 0400 	movt	r4, #57344	@ 0xe000
/Users/till/.cache/arm/packs/AlifSemiconductor/Ensemble/1.3.3/Device/common/source/mpu_M55.c:178
     * Make this conditional to avoid an unnecessary DSB -
     * If this call is made from the booting sequence, it is very
     * likely that cache auto-invalidation is ongoing (as we prepare
     * the table), and DSB would wait for it to finish.
     */
    if (MPU->CTRL & MPU_CTRL_ENABLE_Msk)
8000310a:	f854 0c04 	ldr.w	r0, [r4, #-4]
8000310e:	07c0      	lsls	r0, r0, #31
80003110:	d011      	beq.n	80003136 <MPU_Setup+0x36>
ARM_MPU_Disable():
/Users/till/.cache/arm/packs/ARM/CMSIS/6.0.0/CMSIS/Core/Include/m-profile/armv8m_mpu.h:214
  __DMB();
80003112:	f3bf 8f5f 	dmb	sy
/Users/till/.cache/arm/packs/ARM/CMSIS/6.0.0/CMSIS/Core/Include/m-profile/armv8m_mpu.h:216
  SCB->SHCSR &= ~SCB_SHCSR_MEMFAULTENA_Msk;
80003116:	f854 0c74 	ldr.w	r0, [r4, #-116]
8000311a:	f420 3080 	bic.w	r0, r0, #65536	@ 0x10000
8000311e:	f844 0c74 	str.w	r0, [r4, #-116]
/Users/till/.cache/arm/packs/ARM/CMSIS/6.0.0/CMSIS/Core/Include/m-profile/armv8m_mpu.h:218
  MPU->CTRL  &= ~MPU_CTRL_ENABLE_Msk;
80003122:	f854 0c04 	ldr.w	r0, [r4, #-4]
80003126:	f020 0001 	bic.w	r0, r0, #1
8000312a:	f844 0c04 	str.w	r0, [r4, #-4]
/Users/till/.cache/arm/packs/ARM/CMSIS/6.0.0/CMSIS/Core/Include/m-profile/armv8m_mpu.h:219
  __DSB();
8000312e:	f3bf 8f4f 	dsb	sy
/Users/till/.cache/arm/packs/ARM/CMSIS/6.0.0/CMSIS/Core/Include/m-profile/armv8m_mpu.h:220
  __ISB();
80003132:	f3bf 8f6f 	isb	sy
MPU_Clear_All_Regions():
/Users/till/.cache/arm/packs/AlifSemiconductor/Ensemble/1.3.3/Device/common/source/mpu_M55.c:149
    uint32_t num_regions = (mpu->TYPE >> 8);
80003136:	f854 3c08 	ldr.w	r3, [r4, #-8]
8000313a:	0a18      	lsrs	r0, r3, #8
/Users/till/.cache/arm/packs/AlifSemiconductor/Ensemble/1.3.3/Device/common/source/mpu_M55.c:152
    for(cnt = 0U; cnt < num_regions; cnt++)
8000313c:	d02f      	beq.n	8000319e <MPU_Setup+0x9e>
8000313e:	1e41      	subs	r1, r0, #1
80003140:	f000 0003 	and.w	r0, r0, #3
80003144:	2903      	cmp	r1, #3
80003146:	f04f 0200 	mov.w	r2, #0
8000314a:	f04f 0100 	mov.w	r1, #0
8000314e:	d317      	bcc.n	80003180 <MPU_Setup+0x80>
80003150:	0a99      	lsrs	r1, r3, #10
80003152:	f06f 0303 	mvn.w	r3, #3
80003156:	eb03 0181 	add.w	r1, r3, r1, lsl #2
8000315a:	2301      	movs	r3, #1
8000315c:	eb03 0e91 	add.w	lr, r3, r1, lsr #2
80003160:	2100      	movs	r1, #0
ARM_MPU_ClrRegionEx():
80003162:	bf00      	nop
/Users/till/.cache/arm/packs/ARM/CMSIS/6.0.0/CMSIS/Core/Include/m-profile/armv8m_mpu.h:296
  mpu->RNR = rnr;
80003164:	1c4b      	adds	r3, r1, #1
80003166:	6021      	str	r1, [r4, #0]
/Users/till/.cache/arm/packs/ARM/CMSIS/6.0.0/CMSIS/Core/Include/m-profile/armv8m_mpu.h:297
  mpu->RLAR = 0U;
80003168:	60a2      	str	r2, [r4, #8]
/Users/till/.cache/arm/packs/ARM/CMSIS/6.0.0/CMSIS/Core/Include/m-profile/armv8m_mpu.h:296
  mpu->RNR = rnr;
8000316a:	6023      	str	r3, [r4, #0]
8000316c:	1c8b      	adds	r3, r1, #2
/Users/till/.cache/arm/packs/ARM/CMSIS/6.0.0/CMSIS/Core/Include/m-profile/armv8m_mpu.h:297
  mpu->RLAR = 0U;
8000316e:	60a2      	str	r2, [r4, #8]
/Users/till/.cache/arm/packs/ARM/CMSIS/6.0.0/CMSIS/Core/Include/m-profile/armv8m_mpu.h:296
  mpu->RNR = rnr;
80003170:	6023      	str	r3, [r4, #0]
80003172:	1ccb      	adds	r3, r1, #3
MPU_Clear_All_Regions():
/Users/till/.cache/arm/packs/AlifSemiconductor/Ensemble/1.3.3/Device/common/source/mpu_M55.c:152
80003174:	3104      	adds	r1, #4
ARM_MPU_ClrRegionEx():
/Users/till/.cache/arm/packs/ARM/CMSIS/6.0.0/CMSIS/Core/Include/m-profile/armv8m_mpu.h:297
  mpu->RLAR = 0U;
80003176:	60a2      	str	r2, [r4, #8]
/Users/till/.cache/arm/packs/ARM/CMSIS/6.0.0/CMSIS/Core/Include/m-profile/armv8m_mpu.h:296
  mpu->RNR = rnr;
80003178:	6023      	str	r3, [r4, #0]
/Users/till/.cache/arm/packs/ARM/CMSIS/6.0.0/CMSIS/Core/Include/m-profile/armv8m_mpu.h:297
  mpu->RLAR = 0U;
8000317a:	60a2      	str	r2, [r4, #8]
MPU_Clear_All_Regions():
/Users/till/.cache/arm/packs/AlifSemiconductor/Ensemble/1.3.3/Device/common/source/mpu_M55.c:152
8000317c:	f00f c00f 	le	lr, 80003164 <MPU_Setup+0x64>
80003180:	b168      	cbz	r0, 8000319e <MPU_Setup+0x9e>
80003182:	2200      	movs	r2, #0
80003184:	2801      	cmp	r0, #1
ARM_MPU_ClrRegionEx():
/Users/till/.cache/arm/packs/ARM/CMSIS/6.0.0/CMSIS/Core/Include/m-profile/armv8m_mpu.h:296
  mpu->RNR = rnr;
80003186:	6021      	str	r1, [r4, #0]
/Users/till/.cache/arm/packs/ARM/CMSIS/6.0.0/CMSIS/Core/Include/m-profile/armv8m_mpu.h:297
  mpu->RLAR = 0U;
80003188:	60a2      	str	r2, [r4, #8]
MPU_Clear_All_Regions():
/Users/till/.cache/arm/packs/AlifSemiconductor/Ensemble/1.3.3/Device/common/source/mpu_M55.c:152
8000318a:	d008      	beq.n	8000319e <MPU_Setup+0x9e>
8000318c:	1c4b      	adds	r3, r1, #1
8000318e:	2802      	cmp	r0, #2
ARM_MPU_ClrRegionEx():
/Users/till/.cache/arm/packs/ARM/CMSIS/6.0.0/CMSIS/Core/Include/m-profile/armv8m_mpu.h:296
  mpu->RNR = rnr;
80003190:	6023      	str	r3, [r4, #0]
/Users/till/.cache/arm/packs/ARM/CMSIS/6.0.0/CMSIS/Core/Include/m-profile/armv8m_mpu.h:297
  mpu->RLAR = 0U;
80003192:	60a2      	str	r2, [r4, #8]
MPU_Clear_All_Regions():
/Users/till/.cache/arm/packs/AlifSemiconductor/Ensemble/1.3.3/Device/common/source/mpu_M55.c:152
80003194:	bf1f      	itttt	ne
80003196:	1c88      	addne	r0, r1, #2
ARM_MPU_ClrRegionEx():
/Users/till/.cache/arm/packs/ARM/CMSIS/6.0.0/CMSIS/Core/Include/m-profile/armv8m_mpu.h:296
  mpu->RNR = rnr;
80003198:	6020      	strne	r0, [r4, #0]
8000319a:	2000      	movne	r0, #0
/Users/till/.cache/arm/packs/ARM/CMSIS/6.0.0/CMSIS/Core/Include/m-profile/armv8m_mpu.h:297
  mpu->RLAR = 0U;
8000319c:	60a0      	strne	r0, [r4, #8]
MPU_Setup():
/Users/till/.cache/arm/packs/AlifSemiconductor/Ensemble/1.3.3/Device/common/source/mpu_M55.c:188

    /* Clear all the regions */
    MPU_Clear_All_Regions();

    /* Load the new table: mpu_table */
    MPU_Load_Regions();
8000319e:	f7ff ff2d 	bl	80002ffc <MPU_Load_Regions>
800031a2:	2007      	movs	r0, #7
ARM_MPU_Enable():
/Users/till/.cache/arm/packs/ARM/CMSIS/6.0.0/CMSIS/Core/Include/m-profile/armv8m_mpu.h:201
  __DMB();
800031a4:	f3bf 8f5f 	dmb	sy
/Users/till/.cache/arm/packs/ARM/CMSIS/6.0.0/CMSIS/Core/Include/m-profile/armv8m_mpu.h:202
  MPU->CTRL = MPU_Control | MPU_CTRL_ENABLE_Msk;
800031a8:	f844 0c04 	str.w	r0, [r4, #-4]
/Users/till/.cache/arm/packs/ARM/CMSIS/6.0.0/CMSIS/Core/Include/m-profile/armv8m_mpu.h:204
  SCB->SHCSR |= SCB_SHCSR_MEMFAULTENA_Msk;
800031ac:	f854 0c74 	ldr.w	r0, [r4, #-116]
800031b0:	f440 3080 	orr.w	r0, r0, #65536	@ 0x10000
800031b4:	f844 0c74 	str.w	r0, [r4, #-116]
/Users/till/.cache/arm/packs/ARM/CMSIS/6.0.0/CMSIS/Core/Include/m-profile/armv8m_mpu.h:206
  __DSB();
800031b8:	f3bf 8f4f 	dsb	sy
/Users/till/.cache/arm/packs/ARM/CMSIS/6.0.0/CMSIS/Core/Include/m-profile/armv8m_mpu.h:207
  __ISB();
800031bc:	f3bf 8f6f 	isb	sy
MPU_Setup():
/Users/till/.cache/arm/packs/AlifSemiconductor/Ensemble/1.3.3/Device/common/source/mpu_M55.c:192

    /* Enable the MPU now */
    ARM_MPU_Enable(MPU_CONTROL);
}
800031c0:	bd10      	pop	{r4, pc}
	...

800031c4 <MemManage_Handler>:
MemManage_Handler():
/Users/till/Documents/Studium/Module/2025_SoSe/Tests/alif_e7_tests/libs/common_app_utils/fault_handler/fault_handler.c:324
    __asm("MOVS R0, #1\n\t"
800031c4:	2001      	movs	r0, #1
800031c6:	f001 bffd 	b.w	800051c4 <CommonAsmFaultHandler>
	...

800031cc <Reset_Handler>:
Reset_Handler():
/Users/till/.cache/arm/packs/AlifSemiconductor/Ensemble/1.3.3/Device/core/M55_HE/source/startup_M55_HE.c:1082
  __asm (
800031cc:	4803      	ldr	r0, [pc, #12]	@ (800031dc <Reset_Handler+0x10>)
800031ce:	4904      	ldr	r1, [pc, #16]	@ (800031e0 <Reset_Handler+0x14>)
800031d0:	f380 880a 	msr	MSPLIM, r0
800031d4:	f381 8808 	msr	MSP, r1
800031d8:	f000 f804 	bl	800031e4 <Reset_Handler_C>
800031dc:	2003e000 	.word	0x2003e000
800031e0:	20040000 	.word	0x20040000

800031e4 <Reset_Handler_C>:
Reset_Handler_C():
/Users/till/.cache/arm/packs/AlifSemiconductor/Ensemble/1.3.3/Device/core/M55_HE/source/startup_M55_HE.c:1096
  SystemInit();                             /* CMSIS System Initialization */
800031e4:	f000 f922 	bl	8000342c <SystemInit>
/Users/till/.cache/arm/packs/AlifSemiconductor/Ensemble/1.3.3/Device/core/M55_HE/source/startup_M55_HE.c:1097
  __PROGRAM_START();                        /* Enter PreMain (C library entry point) */
800031e8:	f7fd faea 	bl	800007c0 <__main>

800031ec <SEGGER_RTT_Write>:
SEGGER_RTT_Write():
/Users/till/Documents/Studium/Module/2025_SoSe/Tests/alif_e7_tests/libs/SEGGER_RTT_V820/RTT/SEGGER_RTT.c:1194
*    Number of bytes which have been stored in the "Up"-buffer.
*
*  Notes
*    (1) Data is stored according to buffer flags.
*/
unsigned SEGGER_RTT_Write(unsigned BufferIndex, const void* pBuffer, unsigned NumBytes) {
800031ec:	b5f0      	push	{r4, r5, r6, r7, lr}
800031ee:	b081      	sub	sp, #4
/Users/till/Documents/Studium/Module/2025_SoSe/Tests/alif_e7_tests/libs/SEGGER_RTT_V820/RTT/SEGGER_RTT.c:1197
  unsigned Status;

  INIT();
800031f0:	f640 0508 	movw	r5, #2056	@ 0x808
800031f4:	460c      	mov	r4, r1
800031f6:	f2c2 0500 	movt	r5, #8192	@ 0x2000
800031fa:	782b      	ldrb	r3, [r5, #0]
800031fc:	2b53      	cmp	r3, #83	@ 0x53
800031fe:	d041      	beq.n	80003284 <SEGGER_RTT_Write+0x98>
80003200:	4606      	mov	r6, r0
_DoInit():
/Users/till/Documents/Studium/Module/2025_SoSe/Tests/alif_e7_tests/libs/SEGGER_RTT_V820/RTT/SEGGER_RTT.c:311
  memset((SEGGER_RTT_CB*)p, 0, sizeof(_SEGGER_RTT));         // Make sure that the RTT CB is always zero initialized.
80003202:	4628      	mov	r0, r5
80003204:	21a8      	movs	r1, #168	@ 0xa8
80003206:	4617      	mov	r7, r2
80003208:	f7fd fd8d 	bl	80000d26 <__aeabi_memclr4>
8000320c:	2103      	movs	r1, #3
/Users/till/Documents/Studium/Module/2025_SoSe/Tests/alif_e7_tests/libs/SEGGER_RTT_V820/RTT/SEGGER_RTT.c:317
  p->aUp[0].sName         = "Terminal";
8000320e:	f246 039b 	movw	r3, #24731	@ 0x609b
/Users/till/Documents/Studium/Module/2025_SoSe/Tests/alif_e7_tests/libs/SEGGER_RTT_V820/RTT/SEGGER_RTT.c:312
  p->MaxNumUpBuffers    = SEGGER_RTT_MAX_NUM_UP_BUFFERS;
80003212:	6129      	str	r1, [r5, #16]
80003214:	463a      	mov	r2, r7
/Users/till/Documents/Studium/Module/2025_SoSe/Tests/alif_e7_tests/libs/SEGGER_RTT_V820/RTT/SEGGER_RTT.c:313
  p->MaxNumDownBuffers  = SEGGER_RTT_MAX_NUM_DOWN_BUFFERS;
80003216:	6169      	str	r1, [r5, #20]
/Users/till/Documents/Studium/Module/2025_SoSe/Tests/alif_e7_tests/libs/SEGGER_RTT_V820/RTT/SEGGER_RTT.c:318
  p->aUp[0].pBuffer       = _acUpBuffer;
80003218:	f640 01d4 	movw	r1, #2260	@ 0x8d4
/Users/till/Documents/Studium/Module/2025_SoSe/Tests/alif_e7_tests/libs/SEGGER_RTT_V820/RTT/SEGGER_RTT.c:317
  p->aUp[0].sName         = "Terminal";
8000321c:	f2c8 0300 	movt	r3, #32768	@ 0x8000
/Users/till/Documents/Studium/Module/2025_SoSe/Tests/alif_e7_tests/libs/SEGGER_RTT_V820/RTT/SEGGER_RTT.c:327
  p->aDown[0].pBuffer       = _acDownBuffer;
80003220:	f240 77f4 	movw	r7, #2036	@ 0x7f4
/Users/till/Documents/Studium/Module/2025_SoSe/Tests/alif_e7_tests/libs/SEGGER_RTT_V820/RTT/SEGGER_RTT.c:318
  p->aUp[0].pBuffer       = _acUpBuffer;
80003224:	f2c2 0100 	movt	r1, #8192	@ 0x2000
80003228:	4630      	mov	r0, r6
/Users/till/Documents/Studium/Module/2025_SoSe/Tests/alif_e7_tests/libs/SEGGER_RTT_V820/RTT/SEGGER_RTT.c:317
  p->aUp[0].sName         = "Terminal";
8000322a:	61ab      	str	r3, [r5, #24]
/Users/till/Documents/Studium/Module/2025_SoSe/Tests/alif_e7_tests/libs/SEGGER_RTT_V820/RTT/SEGGER_RTT.c:318
  p->aUp[0].pBuffer       = _acUpBuffer;
8000322c:	61e9      	str	r1, [r5, #28]
8000322e:	f44f 6180 	mov.w	r1, #1024	@ 0x400
/Users/till/Documents/Studium/Module/2025_SoSe/Tests/alif_e7_tests/libs/SEGGER_RTT_V820/RTT/SEGGER_RTT.c:319
  p->aUp[0].SizeOfBuffer  = BUFFER_SIZE_UP;
80003232:	6229      	str	r1, [r5, #32]
80003234:	2100      	movs	r1, #0
/Users/till/Documents/Studium/Module/2025_SoSe/Tests/alif_e7_tests/libs/SEGGER_RTT_V820/RTT/SEGGER_RTT.c:327
  p->aDown[0].pBuffer       = _acDownBuffer;
80003236:	f2c2 0700 	movt	r7, #8192	@ 0x2000
/Users/till/Documents/Studium/Module/2025_SoSe/Tests/alif_e7_tests/libs/SEGGER_RTT_V820/RTT/SEGGER_RTT.c:320
  p->aUp[0].RdOff         = 0u;
8000323a:	62a9      	str	r1, [r5, #40]	@ 0x28
/Users/till/Documents/Studium/Module/2025_SoSe/Tests/alif_e7_tests/libs/SEGGER_RTT_V820/RTT/SEGGER_RTT.c:321
  p->aUp[0].WrOff         = 0u;
8000323c:	6269      	str	r1, [r5, #36]	@ 0x24
/Users/till/Documents/Studium/Module/2025_SoSe/Tests/alif_e7_tests/libs/SEGGER_RTT_V820/RTT/SEGGER_RTT.c:322
  p->aUp[0].Flags         = SEGGER_RTT_MODE_DEFAULT;
8000323e:	62e9      	str	r1, [r5, #44]	@ 0x2c
/Users/till/Documents/Studium/Module/2025_SoSe/Tests/alif_e7_tests/libs/SEGGER_RTT_V820/RTT/SEGGER_RTT.c:326
  p->aDown[0].sName         = "Terminal";
80003240:	662b      	str	r3, [r5, #96]	@ 0x60
/Users/till/Documents/Studium/Module/2025_SoSe/Tests/alif_e7_tests/libs/SEGGER_RTT_V820/RTT/SEGGER_RTT.c:327
  p->aDown[0].pBuffer       = _acDownBuffer;
80003242:	1c7b      	adds	r3, r7, #1
80003244:	666b      	str	r3, [r5, #100]	@ 0x64
80003246:	2310      	movs	r3, #16
/Users/till/Documents/Studium/Module/2025_SoSe/Tests/alif_e7_tests/libs/SEGGER_RTT_V820/RTT/SEGGER_RTT.c:328
  p->aDown[0].SizeOfBuffer  = BUFFER_SIZE_DOWN;
80003248:	66ab      	str	r3, [r5, #104]	@ 0x68
8000324a:	2353      	movs	r3, #83	@ 0x53
/Users/till/Documents/Studium/Module/2025_SoSe/Tests/alif_e7_tests/libs/SEGGER_RTT_V820/RTT/SEGGER_RTT.c:329
  p->aDown[0].RdOff         = 0u;
8000324c:	6729      	str	r1, [r5, #112]	@ 0x70
8000324e:	2747      	movs	r7, #71	@ 0x47
/Users/till/Documents/Studium/Module/2025_SoSe/Tests/alif_e7_tests/libs/SEGGER_RTT_V820/RTT/SEGGER_RTT.c:330
  p->aDown[0].WrOff         = 0u;
80003250:	66e9      	str	r1, [r5, #108]	@ 0x6c
/Users/till/Documents/Studium/Module/2025_SoSe/Tests/alif_e7_tests/libs/SEGGER_RTT_V820/RTT/SEGGER_RTT.c:331
  p->aDown[0].Flags         = SEGGER_RTT_MODE_DEFAULT;
80003252:	6769      	str	r1, [r5, #116]	@ 0x74
/Users/till/Documents/Studium/Module/2025_SoSe/Tests/alif_e7_tests/libs/SEGGER_RTT_V820/RTT/SEGGER_RTT.c:337
  RTT__DMB();                       // Force order of memory accesses for cores that may perform out-of-order memory accesses
80003254:	f3bf 8f5f 	dmb	sy
/Users/till/Documents/Studium/Module/2025_SoSe/Tests/alif_e7_tests/libs/SEGGER_RTT_V820/RTT/SEGGER_RTT.c:339
    p->acID[i] = _aInitStr[sizeof(_aInitStr) - 2 - i];  // Skip terminating \0 at the end of the array
80003258:	702b      	strb	r3, [r5, #0]
8000325a:	2345      	movs	r3, #69	@ 0x45
8000325c:	706b      	strb	r3, [r5, #1]
8000325e:	70af      	strb	r7, [r5, #2]
80003260:	70ef      	strb	r7, [r5, #3]
80003262:	2720      	movs	r7, #32
80003264:	712b      	strb	r3, [r5, #4]
80003266:	2352      	movs	r3, #82	@ 0x52
80003268:	716b      	strb	r3, [r5, #5]
8000326a:	71af      	strb	r7, [r5, #6]
8000326c:	71eb      	strb	r3, [r5, #7]
8000326e:	2354      	movs	r3, #84	@ 0x54
80003270:	722b      	strb	r3, [r5, #8]
80003272:	726b      	strb	r3, [r5, #9]
80003274:	72a9      	strb	r1, [r5, #10]
80003276:	72e9      	strb	r1, [r5, #11]
80003278:	7329      	strb	r1, [r5, #12]
8000327a:	7369      	strb	r1, [r5, #13]
8000327c:	73a9      	strb	r1, [r5, #14]
8000327e:	73e9      	strb	r1, [r5, #15]
/Users/till/Documents/Studium/Module/2025_SoSe/Tests/alif_e7_tests/libs/SEGGER_RTT_V820/RTT/SEGGER_RTT.c:341
  RTT__DMB();                       // Force order of memory accesses for cores that may perform out-of-order memory accesses
80003280:	f3bf 8f5f 	dmb	sy
SEGGER_RTT_Write():
/Users/till/Documents/Studium/Module/2025_SoSe/Tests/alif_e7_tests/libs/SEGGER_RTT_V820/RTT/SEGGER_RTT.c:1198
  SEGGER_RTT_LOCK();
80003284:	f3ef 8511 	mrs	r5, BASEPRI
80003288:	f04f 0120 	mov.w	r1, #32
8000328c:	f381 8811 	msr	BASEPRI, r1
/Users/till/Documents/Studium/Module/2025_SoSe/Tests/alif_e7_tests/libs/SEGGER_RTT_V820/RTT/SEGGER_RTT.c:1199
  Status = SEGGER_RTT_WriteNoLock(BufferIndex, pBuffer, NumBytes);  // Call the non-locking write function
80003290:	4621      	mov	r1, r4
80003292:	f000 f805 	bl	800032a0 <SEGGER_RTT_WriteNoLock>
/Users/till/Documents/Studium/Module/2025_SoSe/Tests/alif_e7_tests/libs/SEGGER_RTT_V820/RTT/SEGGER_RTT.c:1200
  SEGGER_RTT_UNLOCK();
80003296:	f385 8811 	msr	BASEPRI, r5
/Users/till/Documents/Studium/Module/2025_SoSe/Tests/alif_e7_tests/libs/SEGGER_RTT_V820/RTT/SEGGER_RTT.c:1201
  return Status;
8000329a:	b001      	add	sp, #4
8000329c:	bdf0      	pop	{r4, r5, r6, r7, pc}
	...

800032a0 <SEGGER_RTT_WriteNoLock>:
SEGGER_RTT_WriteNoLock():
/Users/till/Documents/Studium/Module/2025_SoSe/Tests/alif_e7_tests/libs/SEGGER_RTT_V820/RTT/SEGGER_RTT.c:1089
unsigned SEGGER_RTT_WriteNoLock(unsigned BufferIndex, const void* pBuffer, unsigned NumBytes) {
800032a0:	e92d 43f0 	stmdb	sp!, {r4, r5, r6, r7, r8, r9, lr}
800032a4:	b081      	sub	sp, #4
/Users/till/Documents/Studium/Module/2025_SoSe/Tests/alif_e7_tests/libs/SEGGER_RTT_V820/RTT/SEGGER_RTT.c:1098
  pRing = (SEGGER_RTT_BUFFER_UP*)((uintptr_t)&_SEGGER_RTT.aUp[BufferIndex] + SEGGER_RTT_UNCACHED_OFF);  // Access uncached to make sure we see changes made by the J-Link side and all of our changes go into HW directly
800032a6:	eb00 0040 	add.w	r0, r0, r0, lsl #1
800032aa:	f640 0308 	movw	r3, #2056	@ 0x808
800032ae:	4615      	mov	r5, r2
800032b0:	f2c2 0300 	movt	r3, #8192	@ 0x2000
800032b4:	4689      	mov	r9, r1
800032b6:	eb03 03c0 	add.w	r3, r3, r0, lsl #3
/Users/till/Documents/Studium/Module/2025_SoSe/Tests/alif_e7_tests/libs/SEGGER_RTT_V820/RTT/SEGGER_RTT.c:1102
  switch (pRing->Flags) {
800032ba:	6ad8      	ldr	r0, [r3, #44]	@ 0x2c
/Users/till/Documents/Studium/Module/2025_SoSe/Tests/alif_e7_tests/libs/SEGGER_RTT_V820/RTT/SEGGER_RTT.c:1098
  pRing = (SEGGER_RTT_BUFFER_UP*)((uintptr_t)&_SEGGER_RTT.aUp[BufferIndex] + SEGGER_RTT_UNCACHED_OFF);  // Access uncached to make sure we see changes made by the J-Link side and all of our changes go into HW directly
800032bc:	f103 0818 	add.w	r8, r3, #24
/Users/till/Documents/Studium/Module/2025_SoSe/Tests/alif_e7_tests/libs/SEGGER_RTT_V820/RTT/SEGGER_RTT.c:1102
  switch (pRing->Flags) {
800032c0:	2802      	cmp	r0, #2
800032c2:	d023      	beq.n	8000330c <SEGGER_RTT_WriteNoLock+0x6c>
800032c4:	2801      	cmp	r0, #1
800032c6:	d015      	beq.n	800032f4 <SEGGER_RTT_WriteNoLock+0x54>
800032c8:	2800      	cmp	r0, #0
800032ca:	d14b      	bne.n	80003364 <SEGGER_RTT_WriteNoLock+0xc4>
_GetAvailWriteSpace():
/Users/till/Documents/Studium/Module/2025_SoSe/Tests/alif_e7_tests/libs/SEGGER_RTT_V820/RTT/SEGGER_RTT.c:524
  WrOff = pRing->WrOff;
800032cc:	f8d8 400c 	ldr.w	r4, [r8, #12]
/Users/till/Documents/Studium/Module/2025_SoSe/Tests/alif_e7_tests/libs/SEGGER_RTT_V820/RTT/SEGGER_RTT.c:523
  RdOff = pRing->RdOff;
800032d0:	f8d8 0010 	ldr.w	r0, [r8, #16]
/Users/till/Documents/Studium/Module/2025_SoSe/Tests/alif_e7_tests/libs/SEGGER_RTT_V820/RTT/SEGGER_RTT.c:525
  if (RdOff <= WrOff) {
800032d4:	42a0      	cmp	r0, r4
/Users/till/Documents/Studium/Module/2025_SoSe/Tests/alif_e7_tests/libs/SEGGER_RTT_V820/RTT/SEGGER_RTT.c:528
    r = RdOff - WrOff - 1u;
800032d6:	bf8f      	iteee	hi
800032d8:	43e1      	mvnhi	r1, r4
/Users/till/Documents/Studium/Module/2025_SoSe/Tests/alif_e7_tests/libs/SEGGER_RTT_V820/RTT/SEGGER_RTT.c:526
    r = pRing->SizeOfBuffer - 1u - WrOff + RdOff;
800032da:	f8d8 1008 	ldrls.w	r1, [r8, #8]
800032de:	43e2      	mvnls	r2, r4
800032e0:	4410      	addls	r0, r2
800032e2:	4408      	add	r0, r1
SEGGER_RTT_WriteNoLock():
/Users/till/Documents/Studium/Module/2025_SoSe/Tests/alif_e7_tests/libs/SEGGER_RTT_V820/RTT/SEGGER_RTT.c:1109
    if (Avail < NumBytes) {
800032e4:	42a8      	cmp	r0, r5
800032e6:	d273      	bcs.n	800033d0 <SEGGER_RTT_WriteNoLock+0x130>
800032e8:	2600      	movs	r6, #0
/Users/till/Documents/Studium/Module/2025_SoSe/Tests/alif_e7_tests/libs/SEGGER_RTT_V820/RTT/SEGGER_RTT.c:1137
  return Status;
800032ea:	4630      	mov	r0, r6
800032ec:	b001      	add	sp, #4
800032ee:	e8bd 83f0 	ldmia.w	sp!, {r4, r5, r6, r7, r8, r9, pc}
_GetAvailWriteSpace():
800032f2:	bf00      	nop
/Users/till/Documents/Studium/Module/2025_SoSe/Tests/alif_e7_tests/libs/SEGGER_RTT_V820/RTT/SEGGER_RTT.c:524
  WrOff = pRing->WrOff;
800032f4:	f8d8 400c 	ldr.w	r4, [r8, #12]
/Users/till/Documents/Studium/Module/2025_SoSe/Tests/alif_e7_tests/libs/SEGGER_RTT_V820/RTT/SEGGER_RTT.c:523
  RdOff = pRing->RdOff;
800032f8:	f8d8 1010 	ldr.w	r1, [r8, #16]
/Users/till/Documents/Studium/Module/2025_SoSe/Tests/alif_e7_tests/libs/SEGGER_RTT_V820/RTT/SEGGER_RTT.c:525
  if (RdOff <= WrOff) {
800032fc:	42a1      	cmp	r1, r4
800032fe:	d937      	bls.n	80003370 <SEGGER_RTT_WriteNoLock+0xd0>
/Users/till/Documents/Studium/Module/2025_SoSe/Tests/alif_e7_tests/libs/SEGGER_RTT_V820/RTT/SEGGER_RTT.c:528
    r = RdOff - WrOff - 1u;
80003300:	43e2      	mvns	r2, r4
_WriteNoCheck():
/Users/till/Documents/Studium/Module/2025_SoSe/Tests/alif_e7_tests/libs/SEGGER_RTT_V820/RTT/SEGGER_RTT.c:432
  Rem = pRing->SizeOfBuffer - WrOff;
80003302:	f8d8 0008 	ldr.w	r0, [r8, #8]
_GetAvailWriteSpace():
/Users/till/Documents/Studium/Module/2025_SoSe/Tests/alif_e7_tests/libs/SEGGER_RTT_V820/RTT/SEGGER_RTT.c:528
    r = RdOff - WrOff - 1u;
80003306:	4411      	add	r1, r2
80003308:	e037      	b.n	8000337a <SEGGER_RTT_WriteNoLock+0xda>
_WriteBlocking():
8000330a:	bf00      	nop
/Users/till/Documents/Studium/Module/2025_SoSe/Tests/alif_e7_tests/libs/SEGGER_RTT_V820/RTT/SEGGER_RTT.c:373
  WrOff = pRing->WrOff;
8000330c:	f8d8 400c 	ldr.w	r4, [r8, #12]
80003310:	2600      	movs	r6, #0
80003312:	bf00      	nop
/Users/till/Documents/Studium/Module/2025_SoSe/Tests/alif_e7_tests/libs/SEGGER_RTT_V820/RTT/SEGGER_RTT.c:375
    RdOff = pRing->RdOff;                         // May be changed by host (debug probe) in the meantime
80003314:	f8d8 1010 	ldr.w	r1, [r8, #16]
80003318:	43e2      	mvns	r2, r4
/Users/till/Documents/Studium/Module/2025_SoSe/Tests/alif_e7_tests/libs/SEGGER_RTT_V820/RTT/SEGGER_RTT.c:379
      NumBytesToWrite = pRing->SizeOfBuffer - (WrOff - RdOff + 1u);
8000331a:	f8d8 0008 	ldr.w	r0, [r8, #8]
/Users/till/Documents/Studium/Module/2025_SoSe/Tests/alif_e7_tests/libs/SEGGER_RTT_V820/RTT/SEGGER_RTT.c:376
    if (RdOff > WrOff) {
8000331e:	42a1      	cmp	r1, r4
/Users/till/Documents/Studium/Module/2025_SoSe/Tests/alif_e7_tests/libs/SEGGER_RTT_V820/RTT/SEGGER_RTT.c:379
      NumBytesToWrite = pRing->SizeOfBuffer - (WrOff - RdOff + 1u);
80003320:	4411      	add	r1, r2
80003322:	bf98      	it	ls
80003324:	4401      	addls	r1, r0
/Users/till/Documents/Studium/Module/2025_SoSe/Tests/alif_e7_tests/libs/SEGGER_RTT_V820/RTT/SEGGER_RTT.c:381
    NumBytesToWrite = MIN(NumBytesToWrite, (pRing->SizeOfBuffer - WrOff));      // Number of bytes that can be written until buffer wrap-around
80003326:	1b00      	subs	r0, r0, r4
80003328:	4281      	cmp	r1, r0
8000332a:	ea51 8030 			@ <UNDEFINED> instruction: 0xea518030
/Users/till/Documents/Studium/Module/2025_SoSe/Tests/alif_e7_tests/libs/SEGGER_RTT_V820/RTT/SEGGER_RTT.c:382
    NumBytesToWrite = MIN(NumBytesToWrite, NumBytes);
8000332e:	42a8      	cmp	r0, r5
/Users/till/Documents/Studium/Module/2025_SoSe/Tests/alif_e7_tests/libs/SEGGER_RTT_V820/RTT/SEGGER_RTT.c:383
    pDst = (pRing->pBuffer + WrOff) + SEGGER_RTT_UNCACHED_OFF;
80003330:	f8d8 1004 	ldr.w	r1, [r8, #4]
/Users/till/Documents/Studium/Module/2025_SoSe/Tests/alif_e7_tests/libs/SEGGER_RTT_V820/RTT/SEGGER_RTT.c:382
    NumBytesToWrite = MIN(NumBytesToWrite, NumBytes);
80003334:	ea50 8735 			@ <UNDEFINED> instruction: 0xea508735
/Users/till/Documents/Studium/Module/2025_SoSe/Tests/alif_e7_tests/libs/SEGGER_RTT_V820/RTT/SEGGER_RTT.c:383
    pDst = (pRing->pBuffer + WrOff) + SEGGER_RTT_UNCACHED_OFF;
80003338:	1908      	adds	r0, r1, r4
/Users/till/Documents/Studium/Module/2025_SoSe/Tests/alif_e7_tests/libs/SEGGER_RTT_V820/RTT/SEGGER_RTT.c:392
    SEGGER_RTT_MEMCPY((void*)pDst, pBuffer, NumBytesToWrite);
8000333a:	4649      	mov	r1, r9
8000333c:	463a      	mov	r2, r7
8000333e:	f7fd fcad 	bl	80000c9c <__rt_memcpy>
/Users/till/Documents/Studium/Module/2025_SoSe/Tests/alif_e7_tests/libs/SEGGER_RTT_V820/RTT/SEGGER_RTT.c:398
    if (WrOff == pRing->SizeOfBuffer) {
80003342:	f8d8 0008 	ldr.w	r0, [r8, #8]
/Users/till/Documents/Studium/Module/2025_SoSe/Tests/alif_e7_tests/libs/SEGGER_RTT_V820/RTT/SEGGER_RTT.c:401
    RTT__DMB();                     // Force data write to be complete before writing the <WrOff>, in case CPU is allowed to change the order of memory accesses
80003346:	f3bf 8f5f 	dmb	sy
/Users/till/Documents/Studium/Module/2025_SoSe/Tests/alif_e7_tests/libs/SEGGER_RTT_V820/RTT/SEGGER_RTT.c:396
    WrOff           += NumBytesToWrite;
8000334a:	1939      	adds	r1, r7, r4
/Users/till/Documents/Studium/Module/2025_SoSe/Tests/alif_e7_tests/libs/SEGGER_RTT_V820/RTT/SEGGER_RTT.c:395
    NumBytes        -= NumBytesToWrite;
8000334c:	1bed      	subs	r5, r5, r7
/Users/till/Documents/Studium/Module/2025_SoSe/Tests/alif_e7_tests/libs/SEGGER_RTT_V820/RTT/SEGGER_RTT.c:398
    if (WrOff == pRing->SizeOfBuffer) {
8000334e:	1a08      	subs	r0, r1, r0
/Users/till/Documents/Studium/Module/2025_SoSe/Tests/alif_e7_tests/libs/SEGGER_RTT_V820/RTT/SEGGER_RTT.c:393
    NumBytesWritten += NumBytesToWrite;
80003350:	443e      	add	r6, r7
/Users/till/Documents/Studium/Module/2025_SoSe/Tests/alif_e7_tests/libs/SEGGER_RTT_V820/RTT/SEGGER_RTT.c:394
    pBuffer         += NumBytesToWrite;
80003352:	44b9      	add	r9, r7
/Users/till/Documents/Studium/Module/2025_SoSe/Tests/alif_e7_tests/libs/SEGGER_RTT_V820/RTT/SEGGER_RTT.c:398
    if (WrOff == pRing->SizeOfBuffer) {
80003354:	ea51 8410 			@ <UNDEFINED> instruction: 0xea518410
/Users/till/Documents/Studium/Module/2025_SoSe/Tests/alif_e7_tests/libs/SEGGER_RTT_V820/RTT/SEGGER_RTT.c:403
  } while (NumBytes);
80003358:	2d00      	cmp	r5, #0
/Users/till/Documents/Studium/Module/2025_SoSe/Tests/alif_e7_tests/libs/SEGGER_RTT_V820/RTT/SEGGER_RTT.c:402
    pRing->WrOff = WrOff;
8000335a:	f8c8 400c 	str.w	r4, [r8, #12]
/Users/till/Documents/Studium/Module/2025_SoSe/Tests/alif_e7_tests/libs/SEGGER_RTT_V820/RTT/SEGGER_RTT.c:403
  } while (NumBytes);
8000335e:	d1d9      	bne.n	80003314 <SEGGER_RTT_WriteNoLock+0x74>
80003360:	e7c3      	b.n	800032ea <SEGGER_RTT_WriteNoLock+0x4a>
SEGGER_RTT_WriteNoLock():
80003362:	bf00      	nop
80003364:	2600      	movs	r6, #0
/Users/till/Documents/Studium/Module/2025_SoSe/Tests/alif_e7_tests/libs/SEGGER_RTT_V820/RTT/SEGGER_RTT.c:1137
  return Status;
80003366:	4630      	mov	r0, r6
80003368:	b001      	add	sp, #4
8000336a:	e8bd 83f0 	ldmia.w	sp!, {r4, r5, r6, r7, r8, r9, pc}
_GetAvailWriteSpace():
8000336e:	bf00      	nop
/Users/till/Documents/Studium/Module/2025_SoSe/Tests/alif_e7_tests/libs/SEGGER_RTT_V820/RTT/SEGGER_RTT.c:526
    r = pRing->SizeOfBuffer - 1u - WrOff + RdOff;
80003370:	f8d8 0008 	ldr.w	r0, [r8, #8]
80003374:	43e2      	mvns	r2, r4
80003376:	4411      	add	r1, r2
80003378:	4401      	add	r1, r0
SEGGER_RTT_WriteNoLock():
/Users/till/Documents/Studium/Module/2025_SoSe/Tests/alif_e7_tests/libs/SEGGER_RTT_V820/RTT/SEGGER_RTT.c:1121
    Status = Avail < NumBytes ? Avail : NumBytes;
8000337a:	42a9      	cmp	r1, r5
8000337c:	ea51 8635 			@ <UNDEFINED> instruction: 0xea518635
_WriteNoCheck():
/Users/till/Documents/Studium/Module/2025_SoSe/Tests/alif_e7_tests/libs/SEGGER_RTT_V820/RTT/SEGGER_RTT.c:432
  Rem = pRing->SizeOfBuffer - WrOff;
80003380:	1b05      	subs	r5, r0, r4
80003382:	f8d8 0004 	ldr.w	r0, [r8, #4]
/Users/till/Documents/Studium/Module/2025_SoSe/Tests/alif_e7_tests/libs/SEGGER_RTT_V820/RTT/SEGGER_RTT.c:433
  if (Rem > NumBytes) {
80003386:	42ae      	cmp	r6, r5
80003388:	4420      	add	r0, r4
8000338a:	d20d      	bcs.n	800033a8 <SEGGER_RTT_WriteNoLock+0x108>
/Users/till/Documents/Studium/Module/2025_SoSe/Tests/alif_e7_tests/libs/SEGGER_RTT_V820/RTT/SEGGER_RTT.c:446
    SEGGER_RTT_MEMCPY((void*)pDst, pData, NumBytes);
8000338c:	4649      	mov	r1, r9
8000338e:	4632      	mov	r2, r6
80003390:	f7fd fc84 	bl	80000c9c <__rt_memcpy>
/Users/till/Documents/Studium/Module/2025_SoSe/Tests/alif_e7_tests/libs/SEGGER_RTT_V820/RTT/SEGGER_RTT.c:448
    pRing->WrOff = WrOff + NumBytes;
80003394:	1930      	adds	r0, r6, r4
/Users/till/Documents/Studium/Module/2025_SoSe/Tests/alif_e7_tests/libs/SEGGER_RTT_V820/RTT/SEGGER_RTT.c:447
    RTT__DMB();                     // Force data write to be complete before writing the <WrOff>, in case CPU is allowed to change the order of memory accesses
80003396:	f3bf 8f5f 	dmb	sy
8000339a:	f8c8 000c 	str.w	r0, [r8, #12]
SEGGER_RTT_WriteNoLock():
/Users/till/Documents/Studium/Module/2025_SoSe/Tests/alif_e7_tests/libs/SEGGER_RTT_V820/RTT/SEGGER_RTT.c:1137
  return Status;
8000339e:	4630      	mov	r0, r6
800033a0:	b001      	add	sp, #4
800033a2:	e8bd 83f0 	ldmia.w	sp!, {r4, r5, r6, r7, r8, r9, pc}
_WriteNoCheck():
800033a6:	bf00      	nop
/Users/till/Documents/Studium/Module/2025_SoSe/Tests/alif_e7_tests/libs/SEGGER_RTT_V820/RTT/SEGGER_RTT.c:470
    SEGGER_RTT_MEMCPY((void*)pDst, pData, NumBytesAtOnce);
800033a8:	4649      	mov	r1, r9
800033aa:	462a      	mov	r2, r5
800033ac:	f7fd fc76 	bl	80000c9c <__rt_memcpy>
/Users/till/Documents/Studium/Module/2025_SoSe/Tests/alif_e7_tests/libs/SEGGER_RTT_V820/RTT/SEGGER_RTT.c:471
    NumBytesAtOnce = NumBytes - Rem;
800033b0:	1b77      	subs	r7, r6, r5
/Users/till/Documents/Studium/Module/2025_SoSe/Tests/alif_e7_tests/libs/SEGGER_RTT_V820/RTT/SEGGER_RTT.c:472
    pDst = pRing->pBuffer + SEGGER_RTT_UNCACHED_OFF;
800033b2:	f8d8 0004 	ldr.w	r0, [r8, #4]
/Users/till/Documents/Studium/Module/2025_SoSe/Tests/alif_e7_tests/libs/SEGGER_RTT_V820/RTT/SEGGER_RTT.c:473
    SEGGER_RTT_MEMCPY((void*)pDst, pData + Rem, NumBytesAtOnce);
800033b6:	463a      	mov	r2, r7
800033b8:	eb09 0105 	add.w	r1, r9, r5
800033bc:	f7fd fc6e 	bl	80000c9c <__rt_memcpy>
/Users/till/Documents/Studium/Module/2025_SoSe/Tests/alif_e7_tests/libs/SEGGER_RTT_V820/RTT/SEGGER_RTT.c:474
    RTT__DMB();                     // Force data write to be complete before writing the <WrOff>, in case CPU is allowed to change the order of memory accesses
800033c0:	f3bf 8f5f 	dmb	sy
800033c4:	f8c8 700c 	str.w	r7, [r8, #12]
SEGGER_RTT_WriteNoLock():
/Users/till/Documents/Studium/Module/2025_SoSe/Tests/alif_e7_tests/libs/SEGGER_RTT_V820/RTT/SEGGER_RTT.c:1137
  return Status;
800033c8:	4630      	mov	r0, r6
800033ca:	b001      	add	sp, #4
800033cc:	e8bd 83f0 	ldmia.w	sp!, {r4, r5, r6, r7, r8, r9, pc}
_WriteNoCheck():
800033d0:	e9d8 0101 	ldrd	r0, r1, [r8, #4]
800033d4:	4420      	add	r0, r4
/Users/till/Documents/Studium/Module/2025_SoSe/Tests/alif_e7_tests/libs/SEGGER_RTT_V820/RTT/SEGGER_RTT.c:432
  Rem = pRing->SizeOfBuffer - WrOff;
800033d6:	1b0e      	subs	r6, r1, r4
/Users/till/Documents/Studium/Module/2025_SoSe/Tests/alif_e7_tests/libs/SEGGER_RTT_V820/RTT/SEGGER_RTT.c:433
  if (Rem > NumBytes) {
800033d8:	42b5      	cmp	r5, r6
800033da:	d20d      	bcs.n	800033f8 <SEGGER_RTT_WriteNoLock+0x158>
/Users/till/Documents/Studium/Module/2025_SoSe/Tests/alif_e7_tests/libs/SEGGER_RTT_V820/RTT/SEGGER_RTT.c:446
    SEGGER_RTT_MEMCPY((void*)pDst, pData, NumBytes);
800033dc:	4649      	mov	r1, r9
800033de:	462a      	mov	r2, r5
800033e0:	f7fd fc5c 	bl	80000c9c <__rt_memcpy>
/Users/till/Documents/Studium/Module/2025_SoSe/Tests/alif_e7_tests/libs/SEGGER_RTT_V820/RTT/SEGGER_RTT.c:448
    pRing->WrOff = WrOff + NumBytes;
800033e4:	1960      	adds	r0, r4, r5
/Users/till/Documents/Studium/Module/2025_SoSe/Tests/alif_e7_tests/libs/SEGGER_RTT_V820/RTT/SEGGER_RTT.c:447
    RTT__DMB();                     // Force data write to be complete before writing the <WrOff>, in case CPU is allowed to change the order of memory accesses
800033e6:	f3bf 8f5f 	dmb	sy
800033ea:	f8c8 000c 	str.w	r0, [r8, #12]
800033ee:	462e      	mov	r6, r5
SEGGER_RTT_WriteNoLock():
/Users/till/Documents/Studium/Module/2025_SoSe/Tests/alif_e7_tests/libs/SEGGER_RTT_V820/RTT/SEGGER_RTT.c:1137
  return Status;
800033f0:	4630      	mov	r0, r6
800033f2:	b001      	add	sp, #4
800033f4:	e8bd 83f0 	ldmia.w	sp!, {r4, r5, r6, r7, r8, r9, pc}
_WriteNoCheck():
/Users/till/Documents/Studium/Module/2025_SoSe/Tests/alif_e7_tests/libs/SEGGER_RTT_V820/RTT/SEGGER_RTT.c:470
    SEGGER_RTT_MEMCPY((void*)pDst, pData, NumBytesAtOnce);
800033f8:	4649      	mov	r1, r9
800033fa:	4632      	mov	r2, r6
800033fc:	f7fd fc4e 	bl	80000c9c <__rt_memcpy>
/Users/till/Documents/Studium/Module/2025_SoSe/Tests/alif_e7_tests/libs/SEGGER_RTT_V820/RTT/SEGGER_RTT.c:471
    NumBytesAtOnce = NumBytes - Rem;
80003400:	1baf      	subs	r7, r5, r6
/Users/till/Documents/Studium/Module/2025_SoSe/Tests/alif_e7_tests/libs/SEGGER_RTT_V820/RTT/SEGGER_RTT.c:472
    pDst = pRing->pBuffer + SEGGER_RTT_UNCACHED_OFF;
80003402:	f8d8 0004 	ldr.w	r0, [r8, #4]
/Users/till/Documents/Studium/Module/2025_SoSe/Tests/alif_e7_tests/libs/SEGGER_RTT_V820/RTT/SEGGER_RTT.c:473
    SEGGER_RTT_MEMCPY((void*)pDst, pData + Rem, NumBytesAtOnce);
80003406:	463a      	mov	r2, r7
80003408:	eb09 0106 	add.w	r1, r9, r6
8000340c:	f7fd fc46 	bl	80000c9c <__rt_memcpy>
/Users/till/Documents/Studium/Module/2025_SoSe/Tests/alif_e7_tests/libs/SEGGER_RTT_V820/RTT/SEGGER_RTT.c:474
    RTT__DMB();                     // Force data write to be complete before writing the <WrOff>, in case CPU is allowed to change the order of memory accesses
80003410:	f3bf 8f5f 	dmb	sy
80003414:	f8c8 700c 	str.w	r7, [r8, #12]
80003418:	462e      	mov	r6, r5
SEGGER_RTT_WriteNoLock():
/Users/till/Documents/Studium/Module/2025_SoSe/Tests/alif_e7_tests/libs/SEGGER_RTT_V820/RTT/SEGGER_RTT.c:1137
  return Status;
8000341a:	4630      	mov	r0, r6
8000341c:	b001      	add	sp, #4
8000341e:	e8bd 83f0 	ldmia.w	sp!, {r4, r5, r6, r7, r8, r9, pc}
	...

80003424 <SecureFault_Handler>:
SecureFault_Handler():
/Users/till/Documents/Studium/Module/2025_SoSe/Tests/alif_e7_tests/libs/common_app_utils/fault_handler/fault_handler.c:345
}

__attribute__((naked))
void SecureFault_Handler(void)
{
    __asm("MOVS R0, #4\n\t"
80003424:	2004      	movs	r0, #4
80003426:	f001 becd 	b.w	800051c4 <CommonAsmFaultHandler>
	...

8000342c <SystemInit>:
SystemInit():
/Users/till/.cache/arm/packs/AlifSemiconductor/Ensemble/1.3.3/Device/common/source/system_M55.c:156

/*----------------------------------------------------------------------------
  System initialization function
 *----------------------------------------------------------------------------*/
void SystemInit (void)
{
8000342c:	b5b0      	push	{r4, r5, r7, lr}
/Users/till/.cache/arm/packs/AlifSemiconductor/Ensemble/1.3.3/Device/common/source/system_M55.c:162
  // Avoid DSB as long as possible, as it will block until cache
  // auto-invalidation has completed. First DSB is currently at the
  // end of MPU_Setup.

#if defined (__VTOR_PRESENT) && (__VTOR_PRESENT == 1U)
  SCB->VTOR = (uint32_t) __VECTOR_TABLE;
8000342e:	f240 0000 	movw	r0, #0
80003432:	f24e 0408 	movw	r4, #57352	@ 0xe008
80003436:	f2c8 0000 	movt	r0, #32768	@ 0x8000
8000343a:	f64e 5514 	movw	r5, #60692	@ 0xed14
8000343e:	f2ce 0400 	movt	r4, #57344	@ 0xe000
80003442:	f8c4 0d00 	str.w	r0, [r4, #3328]	@ 0xd00
80003446:	f2ce 0500 	movt	r5, #57344	@ 0xe000
/Users/till/.cache/arm/packs/AlifSemiconductor/Ensemble/1.3.3/Device/common/source/system_M55.c:167
#endif

  /* Enable UsageFault, BusFault, MemFault and SecurityFault exceptions */
  /* Otherwise all you see is HardFault, even in the debugger */
  SCB->SHCSR |= SCB_SHCSR_USGFAULTENA_Msk | SCB_SHCSR_BUSFAULTENA_Msk |
8000344a:	6928      	ldr	r0, [r5, #16]
8000344c:	f440 2070 	orr.w	r0, r0, #983040	@ 0xf0000
80003450:	6128      	str	r0, [r5, #16]
/Users/till/.cache/arm/packs/AlifSemiconductor/Ensemble/1.3.3/Device/common/source/system_M55.c:173
                SCB_SHCSR_MEMFAULTENA_Msk | SCB_SHCSR_SECUREFAULTENA_Msk;

  /*
   * Handle Spurious Wakeup
   */
  System_HandleSpuriousWakeup();
80003452:	f000 f839 	bl	800034c8 <System_HandleSpuriousWakeup>
80003456:	f244 0010 	movw	r0, #16400	@ 0x4010
8000345a:	f6c1 2060 	movt	r0, #6752	@ 0x1a60
/Users/till/.cache/arm/packs/AlifSemiconductor/Ensemble/1.3.3/Device/common/source/system_M55.c:176

  /* Clear the WIC Sleep */
  WICCONTROL &= ~WICCONTROL_WIC_Msk;
8000345e:	6801      	ldr	r1, [r0, #0]
80003460:	f421 7180 	bic.w	r1, r1, #256	@ 0x100
80003464:	6001      	str	r1, [r0, #0]
80003466:	f240 11e5 	movw	r1, #485	@ 0x1e5
/Users/till/.cache/arm/packs/AlifSemiconductor/Ensemble/1.3.3/Device/common/source/system_M55.c:180

#if (defined (__FPU_USED) && (__FPU_USED == 1U)) || \
    (defined (__ARM_FEATURE_MVE) && (__ARM_FEATURE_MVE > 0U))
  SCB->CPACR |= ((3U << 10U*2U) |           /* enable CP10 Full Access */
8000346a:	6f68      	ldr	r0, [r5, #116]	@ 0x74
8000346c:	f440 0070 	orr.w	r0, r0, #15728640	@ 0xf00000
80003470:	6768      	str	r0, [r5, #116]	@ 0x74
80003472:	f24e 0004 	movw	r0, #57348	@ 0xe004
80003476:	f2ce 0001 	movt	r0, #57345	@ 0xe001
/Users/till/.cache/arm/packs/AlifSemiconductor/Ensemble/1.3.3/Device/common/source/system_M55.c:200
  *
  * Here we modify only the MAX_OS based on the performance achieved in our
  * trials.
  *
  */
 MEMSYSCTL->PFCR = (MEMSYSCTL_PFCR_MAX_OS_DEFAULT_VALUE << MEMSYSCTL_PFCR_MAX_OS_Pos) |
8000347a:	6001      	str	r1, [r0, #0]
/Users/till/.cache/arm/packs/AlifSemiconductor/Ensemble/1.3.3/Device/common/source/system_M55.c:212
 * Do not do MPU_Setup() if running from the OSPI XIP regions as MPU_Setup() temporarily
 * disables the MPU which causes the default Device/XN attributes to take effect for the
 * OSPI XIP regions.
 */
#if !BOOT_FROM_OSPI_FLASH
  MPU_Setup();
8000347c:	f7ff fe40 	bl	80003100 <MPU_Setup>
/Users/till/.cache/arm/packs/AlifSemiconductor/Ensemble/1.3.3/Device/common/source/system_M55.c:224
  // We do not use the CMSIS functions, as these manually invalidate the
  // cache - this is not required on the M55, as it is auto-invalidated
  // (and we implicitly rely on this already before activating, if booting
  // from MRAM).
  // Enable Loop and branch info cache
  SCB->CCR |= SCB_CCR_IC_Msk | SCB_CCR_DC_Msk | SCB_CCR_LOB_Msk;
80003480:	6828      	ldr	r0, [r5, #0]
80003482:	f440 2030 	orr.w	r0, r0, #720896	@ 0xb0000
80003486:	6028      	str	r0, [r5, #0]
/Users/till/.cache/arm/packs/AlifSemiconductor/Ensemble/1.3.3/Device/common/source/system_M55.c:227

  // Enable limited static branch prediction using low overhead loops
  ICB->ACTLR &= ~ICB_ACTLR_DISLOBR_Msk;
80003488:	6820      	ldr	r0, [r4, #0]
8000348a:	f020 0020 	bic.w	r0, r0, #32
8000348e:	6020      	str	r0, [r4, #0]
/Users/till/.cache/arm/packs/AlifSemiconductor/Ensemble/1.3.3/Device/common/source/system_M55.c:229

  __DSB();
80003490:	f3bf 8f4f 	dsb	sy
/Users/till/.cache/arm/packs/AlifSemiconductor/Ensemble/1.3.3/Device/common/source/system_M55.c:230
  __ISB();
80003494:	f3bf 8f6f 	isb	sy
/Users/till/.cache/arm/packs/AlifSemiconductor/Ensemble/1.3.3/Device/common/source/system_M55.c:236

#if defined (__ARM_FEATURE_CMSE) && (__ARM_FEATURE_CMSE == 3U)
  TZ_SAU_Setup();
  TGU_Setup();
#else
  setup_tcm_ns_partition();
80003498:	f001 f8c0 	bl	8000461c <setup_tcm_ns_partition>
/Users/till/.cache/arm/packs/AlifSemiconductor/Ensemble/1.3.3/Device/common/source/system_M55.c:239
#endif

  SystemCoreClock = SYSTEM_CLOCK;
8000349c:	f240 402c 	movw	r0, #1068	@ 0x42c
800034a0:	f646 0100 	movw	r1, #26624	@ 0x6800
800034a4:	f2c2 0000 	movt	r0, #8192	@ 0x2000
800034a8:	f6c0 1189 	movt	r1, #2441	@ 0x989
800034ac:	6001      	str	r1, [r0, #0]
800034ae:	f24f 0000 	movw	r0, #61440	@ 0xf000
800034b2:	f6c4 1002 	movt	r0, #18690	@ 0x4902
enable_force_peripheral_functional_clk():
/Users/till/.cache/arm/packs/AlifSemiconductor/Ensemble/1.3.3/Device/common/include/clk.h:25
#define HFOSC_CLK   38400000
#endif

static inline void enable_force_peripheral_functional_clk(void)
{
    CLKCTL_PER_SLV->EXPMST0_CTRL |= EXPMST0_CTRL_IPCLK_FORCE;
800034b6:	6801      	ldr	r1, [r0, #0]
800034b8:	f041 4100 	orr.w	r1, r1, #2147483648	@ 0x80000000
800034bc:	6001      	str	r1, [r0, #0]
enable_force_apb_interface_clk():
/Users/till/.cache/arm/packs/AlifSemiconductor/Ensemble/1.3.3/Device/common/include/clk.h:35
    CLKCTL_PER_SLV->EXPMST0_CTRL &= ~EXPMST0_CTRL_IPCLK_FORCE;
}

static inline void enable_force_apb_interface_clk(void)
{
    CLKCTL_PER_SLV->EXPMST0_CTRL |= EXPMST0_CTRL_PCLK_FORCE;
800034be:	6801      	ldr	r1, [r0, #0]
800034c0:	f041 4180 	orr.w	r1, r1, #1073741824	@ 0x40000000
800034c4:	6001      	str	r1, [r0, #0]
SystemInit():
/Users/till/.cache/arm/packs/AlifSemiconductor/Ensemble/1.3.3/Device/common/source/system_M55.c:253
  enable_force_peripheral_functional_clk();

  /* Bypass clock gating */
  enable_force_apb_interface_clk();
#endif
}
800034c6:	bdb0      	pop	{r4, r5, r7, pc}

800034c8 <System_HandleSpuriousWakeup>:
System_HandleSpuriousWakeup():
/Users/till/.cache/arm/packs/AlifSemiconductor/Ensemble/1.3.3/Device/common/source/system_M55.c:131
}
800034c8:	4770      	bx	lr
	...

800034cc <TGU_Setup>:
TGU_Setup():
/Users/till/.cache/arm/packs/AlifSemiconductor/Ensemble/1.3.3/Device/common/source/tgu_M55.c:38
  and ending at NS_REGION_1_END as Non Secure in the TGU look up tables. The
  region should be in the DTCM area. Can be extended to include the ITCM region
  and multiple discontigous regions if needed.
 *----------------------------------------------------------------------------*/
void TGU_Setup(void)
{
800034cc:	b570      	push	{r4, r5, r6, lr}
800034ce:	f24e 6610 	movw	r6, #58896	@ 0xe610
800034d2:	f64f 61f4 	movw	r1, #65268	@ 0xfef4
800034d6:	f2ce 0601 	movt	r6, #57345	@ 0xe001
/Users/till/.cache/arm/packs/AlifSemiconductor/Ensemble/1.3.3/Device/common/source/tgu_M55.c:57
    dtcm_blksize = 1 << (blksize + 5);

    for (i = 0; i < (sizeof(ns_regions) / sizeof(ns_regions[0])); i++) {
        if (ns_regions[i].type == DTCM) {
            start_block =  (ns_regions[i].start - DTCM_BASE) / dtcm_blksize;
            end_block = (ns_regions[i].end - DTCM_BASE) / dtcm_blksize;
800034da:	f244 0200 	movw	r2, #16384	@ 0x4000
800034de:	f6cf 71ff 	movt	r1, #65535	@ 0xffff
/Users/till/.cache/arm/packs/AlifSemiconductor/Ensemble/1.3.3/Device/common/source/tgu_M55.c:45
    blksize = *((volatile unsigned int *) ITGU_CFG) & ITGU_CFG_BLKSZ;
800034e2:	5871      	ldr	r1, [r6, r1]
/Users/till/.cache/arm/packs/AlifSemiconductor/Ensemble/1.3.3/Device/common/source/tgu_M55.c:50
    blksize = *((volatile unsigned int *) DTGU_CFG) & DTGU_CFG_BLKSZ;
800034e4:	f856 1c0c 	ldr.w	r1, [r6, #-12]
/Users/till/.cache/arm/packs/AlifSemiconductor/Ensemble/1.3.3/Device/common/source/tgu_M55.c:57
            end_block = (ns_regions[i].end - DTCM_BASE) / dtcm_blksize;
800034e8:	f2c2 0200 	movt	r2, #8192	@ 0x2000
800034ec:	f06f 5300 	mvn.w	r3, #536870912	@ 0x20000000
800034f0:	441a      	add	r2, r3
/Users/till/.cache/arm/packs/AlifSemiconductor/Ensemble/1.3.3/Device/common/source/tgu_M55.c:56
            start_block =  (ns_regions[i].start - DTCM_BASE) / dtcm_blksize;
800034f2:	f244 0300 	movw	r3, #16384	@ 0x4000
/Users/till/.cache/arm/packs/AlifSemiconductor/Ensemble/1.3.3/Device/common/source/tgu_M55.c:50
    blksize = *((volatile unsigned int *) DTGU_CFG) & DTGU_CFG_BLKSZ;
800034f6:	f001 010f 	and.w	r1, r1, #15
/Users/till/.cache/arm/packs/AlifSemiconductor/Ensemble/1.3.3/Device/common/source/tgu_M55.c:57
            end_block = (ns_regions[i].end - DTCM_BASE) / dtcm_blksize;
800034fa:	0952      	lsrs	r2, r2, #5
/Users/till/.cache/arm/packs/AlifSemiconductor/Ensemble/1.3.3/Device/common/source/tgu_M55.c:56
            start_block =  (ns_regions[i].start - DTCM_BASE) / dtcm_blksize;
800034fc:	f2c2 0300 	movt	r3, #8192	@ 0x2000
/Users/till/.cache/arm/packs/AlifSemiconductor/Ensemble/1.3.3/Device/common/source/tgu_M55.c:57
            end_block = (ns_regions[i].end - DTCM_BASE) / dtcm_blksize;
80003500:	fa22 f501 	lsr.w	r5, r2, r1
/Users/till/.cache/arm/packs/AlifSemiconductor/Ensemble/1.3.3/Device/common/source/tgu_M55.c:56
            start_block =  (ns_regions[i].start - DTCM_BASE) / dtcm_blksize;
80003504:	f103 4260 	add.w	r2, r3, #3758096384	@ 0xe0000000
80003508:	0952      	lsrs	r2, r2, #5
8000350a:	fa22 f401 	lsr.w	r4, r2, r1
/Users/till/.cache/arm/packs/AlifSemiconductor/Ensemble/1.3.3/Device/common/source/tgu_M55.c:65
            start_block =  (ns_regions[i].start - ITCM_BASE) / itcm_blksize;
            end_block = (ns_regions[i].end - ITCM_BASE) / itcm_blksize;
            base = ITGU_BASE;
        }

        start_lut = start_block / 32;
8000350e:	0963      	lsrs	r3, r4, #5
/Users/till/.cache/arm/packs/AlifSemiconductor/Ensemble/1.3.3/Device/common/source/tgu_M55.c:66
        end_lut = end_block / 32;
80003510:	0969      	lsrs	r1, r5, #5
/Users/till/.cache/arm/packs/AlifSemiconductor/Ensemble/1.3.3/Device/common/source/tgu_M55.c:65
        start_lut = start_block / 32;
80003512:	461a      	mov	r2, r3
/Users/till/.cache/arm/packs/AlifSemiconductor/Ensemble/1.3.3/Device/common/source/tgu_M55.c:68

        start_offset = start_block % 32;
80003514:	f004 041f 	and.w	r4, r4, #31
/Users/till/.cache/arm/packs/AlifSemiconductor/Ensemble/1.3.3/Device/common/source/tgu_M55.c:71
        end_offset = end_block % 32;

        if (start_lut == end_lut) {
80003518:	428b      	cmp	r3, r1
/Users/till/.cache/arm/packs/AlifSemiconductor/Ensemble/1.3.3/Device/common/source/tgu_M55.c:69
        end_offset = end_block % 32;
8000351a:	f005 051f 	and.w	r5, r5, #31
/Users/till/.cache/arm/packs/AlifSemiconductor/Ensemble/1.3.3/Device/common/source/tgu_M55.c:71
        if (start_lut == end_lut) {
8000351e:	d10f      	bne.n	80003540 <TGU_Setup+0x74>
/Users/till/.cache/arm/packs/AlifSemiconductor/Ensemble/1.3.3/Device/common/source/tgu_M55.c:73
            /* same LUT register */
            lut_val_l = SET_BIT_RANGE(start_offset, end_offset);
80003520:	f085 011f 	eor.w	r1, r5, #31
80003524:	f04f 33ff 	mov.w	r3, #4294967295	@ 0xffffffff
80003528:	fa23 f101 	lsr.w	r1, r3, r1
8000352c:	40a3      	lsls	r3, r4
8000352e:	ea01 0c03 	and.w	ip, r1, r3
80003532:	f856 0022 	ldr.w	r0, [r6, r2, lsl #2]
80003536:	ea40 000c 	orr.w	r0, r0, ip
8000353a:	f846 0022 	str.w	r0, [r6, r2, lsl #2]
/Users/till/.cache/arm/packs/AlifSemiconductor/Ensemble/1.3.3/Device/common/source/tgu_M55.c:93

            /* Write into the last LUT register*/
            *((volatile uint32_t *) TGU_LUT(base, end_lut)) |= lut_val_h;
        }
    }
}
8000353e:	bd70      	pop	{r4, r5, r6, pc}
80003540:	f04f 30ff 	mov.w	r0, #4294967295	@ 0xffffffff
/Users/till/.cache/arm/packs/AlifSemiconductor/Ensemble/1.3.3/Device/common/source/tgu_M55.c:78
            lut_val_h = SET_BIT_RANGE(0, end_offset);
80003544:	f085 051f 	eor.w	r5, r5, #31
/Users/till/.cache/arm/packs/AlifSemiconductor/Ensemble/1.3.3/Device/common/source/tgu_M55.c:77
            lut_val_l = SET_BIT_RANGE(start_offset, 31);
80003548:	fa00 f404 	lsl.w	r4, r0, r4
/Users/till/.cache/arm/packs/AlifSemiconductor/Ensemble/1.3.3/Device/common/source/tgu_M55.c:78
            lut_val_h = SET_BIT_RANGE(0, end_offset);
8000354c:	fa20 fc05 	lsr.w	ip, r0, r5
80003550:	1e48      	subs	r0, r1, #1
/Users/till/.cache/arm/packs/AlifSemiconductor/Ensemble/1.3.3/Device/common/source/tgu_M55.c:84
            while (start_lut != (end_lut - 1)) {
80003552:	4283      	cmp	r3, r0
/Users/till/.cache/arm/packs/AlifSemiconductor/Ensemble/1.3.3/Device/common/source/tgu_M55.c:81
            *((volatile uint32_t *) TGU_LUT(base, start_lut)) = lut_val_l;
80003554:	f846 4022 	str.w	r4, [r6, r2, lsl #2]
/Users/till/.cache/arm/packs/AlifSemiconductor/Ensemble/1.3.3/Device/common/source/tgu_M55.c:84
            while (start_lut != (end_lut - 1)) {
80003558:	d02a      	beq.n	800035b0 <TGU_Setup+0xe4>
8000355a:	43d8      	mvns	r0, r3
8000355c:	4408      	add	r0, r1
8000355e:	f010 0403 	ands.w	r4, r0, #3
80003562:	f1a0 0e01 	sub.w	lr, r0, #1
80003566:	d010      	beq.n	8000358a <TGU_Setup+0xbe>
/Users/till/.cache/arm/packs/AlifSemiconductor/Ensemble/1.3.3/Device/common/source/tgu_M55.c:85
                start_lut++;
80003568:	1c5a      	adds	r2, r3, #1
8000356a:	f04f 35ff 	mov.w	r5, #4294967295	@ 0xffffffff
/Users/till/.cache/arm/packs/AlifSemiconductor/Ensemble/1.3.3/Device/common/source/tgu_M55.c:84
            while (start_lut != (end_lut - 1)) {
8000356e:	2c01      	cmp	r4, #1
/Users/till/.cache/arm/packs/AlifSemiconductor/Ensemble/1.3.3/Device/common/source/tgu_M55.c:86
                *((volatile uint32_t *) TGU_LUT(base, start_lut)) = 0xFFFFFFFFU;
80003570:	f846 5022 	str.w	r5, [r6, r2, lsl #2]
/Users/till/.cache/arm/packs/AlifSemiconductor/Ensemble/1.3.3/Device/common/source/tgu_M55.c:84
            while (start_lut != (end_lut - 1)) {
80003574:	d009      	beq.n	8000358a <TGU_Setup+0xbe>
/Users/till/.cache/arm/packs/AlifSemiconductor/Ensemble/1.3.3/Device/common/source/tgu_M55.c:85
                start_lut++;
80003576:	1c9a      	adds	r2, r3, #2
/Users/till/.cache/arm/packs/AlifSemiconductor/Ensemble/1.3.3/Device/common/source/tgu_M55.c:84
            while (start_lut != (end_lut - 1)) {
80003578:	2c02      	cmp	r4, #2
/Users/till/.cache/arm/packs/AlifSemiconductor/Ensemble/1.3.3/Device/common/source/tgu_M55.c:86
                *((volatile uint32_t *) TGU_LUT(base, start_lut)) = 0xFFFFFFFFU;
8000357a:	f846 5022 	str.w	r5, [r6, r2, lsl #2]
/Users/till/.cache/arm/packs/AlifSemiconductor/Ensemble/1.3.3/Device/common/source/tgu_M55.c:85
                start_lut++;
8000357e:	bf1e      	ittt	ne
80003580:	1cda      	addne	r2, r3, #3
80003582:	f04f 30ff 	movne.w	r0, #4294967295	@ 0xffffffff
/Users/till/.cache/arm/packs/AlifSemiconductor/Ensemble/1.3.3/Device/common/source/tgu_M55.c:86
                *((volatile uint32_t *) TGU_LUT(base, start_lut)) = 0xFFFFFFFFU;
80003586:	f846 0022 	strne.w	r0, [r6, r2, lsl #2]
/Users/till/.cache/arm/packs/AlifSemiconductor/Ensemble/1.3.3/Device/common/source/tgu_M55.c:84
            while (start_lut != (end_lut - 1)) {
8000358a:	f1be 0f03 	cmp.w	lr, #3
8000358e:	d30f      	bcc.n	800035b0 <TGU_Setup+0xe4>
80003590:	eb06 0082 	add.w	r0, r6, r2, lsl #2
80003594:	f04f 34ff 	mov.w	r4, #4294967295	@ 0xffffffff
80003598:	1d03      	adds	r3, r0, #4
8000359a:	43d0      	mvns	r0, r2
8000359c:	1842      	adds	r2, r0, r1
8000359e:	bf00      	nop
/Users/till/.cache/arm/packs/AlifSemiconductor/Ensemble/1.3.3/Device/common/source/tgu_M55.c:86
                *((volatile uint32_t *) TGU_LUT(base, start_lut)) = 0xFFFFFFFFU;
800035a0:	601c      	str	r4, [r3, #0]
/Users/till/.cache/arm/packs/AlifSemiconductor/Ensemble/1.3.3/Device/common/source/tgu_M55.c:84
            while (start_lut != (end_lut - 1)) {
800035a2:	3a04      	subs	r2, #4
/Users/till/.cache/arm/packs/AlifSemiconductor/Ensemble/1.3.3/Device/common/source/tgu_M55.c:86
                *((volatile uint32_t *) TGU_LUT(base, start_lut)) = 0xFFFFFFFFU;
800035a4:	605c      	str	r4, [r3, #4]
800035a6:	609c      	str	r4, [r3, #8]
800035a8:	60dc      	str	r4, [r3, #12]
/Users/till/.cache/arm/packs/AlifSemiconductor/Ensemble/1.3.3/Device/common/source/tgu_M55.c:84
            while (start_lut != (end_lut - 1)) {
800035aa:	f103 0310 	add.w	r3, r3, #16
800035ae:	d1f7      	bne.n	800035a0 <TGU_Setup+0xd4>
800035b0:	460a      	mov	r2, r1
800035b2:	f856 0022 	ldr.w	r0, [r6, r2, lsl #2]
800035b6:	ea40 000c 	orr.w	r0, r0, ip
800035ba:	f846 0022 	str.w	r0, [r6, r2, lsl #2]
/Users/till/.cache/arm/packs/AlifSemiconductor/Ensemble/1.3.3/Device/common/source/tgu_M55.c:93
}
800035be:	bd70      	pop	{r4, r5, r6, pc}

800035c0 <UART0_IRQHandler>:
UART0_IRQHandler():
/Users/till/.cache/arm/packs/AlifSemiconductor/Ensemble/1.3.3/Alif_CMSIS/Source/Driver_USART.c:1723
    UART_IRQHandler(&UART0);
800035c0:	f240 4030 	movw	r0, #1072	@ 0x430
800035c4:	f2c2 0000 	movt	r0, #8192	@ 0x2000
800035c8:	f000 b82a 	b.w	80003620 <UART_IRQHandler>

800035cc <UART1_IRQHandler>:
UART1_IRQHandler():
/Users/till/.cache/arm/packs/AlifSemiconductor/Ensemble/1.3.3/Alif_CMSIS/Source/Driver_USART.c:1891
    UART_IRQHandler(&UART1);
800035cc:	f240 407c 	movw	r0, #1148	@ 0x47c
800035d0:	f2c2 0000 	movt	r0, #8192	@ 0x2000
800035d4:	f000 b824 	b.w	80003620 <UART_IRQHandler>

800035d8 <UART2_IRQHandler>:
UART2_IRQHandler():
/Users/till/.cache/arm/packs/AlifSemiconductor/Ensemble/1.3.3/Alif_CMSIS/Source/Driver_USART.c:2060
    UART_IRQHandler(&UART2);
800035d8:	f240 40c8 	movw	r0, #1224	@ 0x4c8
800035dc:	f2c2 0000 	movt	r0, #8192	@ 0x2000
800035e0:	f000 b81e 	b.w	80003620 <UART_IRQHandler>

800035e4 <UART3_IRQHandler>:
UART3_IRQHandler():
/Users/till/.cache/arm/packs/AlifSemiconductor/Ensemble/1.3.3/Alif_CMSIS/Source/Driver_USART.c:2228
    UART_IRQHandler(&UART3);
800035e4:	f240 5014 	movw	r0, #1300	@ 0x514
800035e8:	f2c2 0000 	movt	r0, #8192	@ 0x2000
800035ec:	f000 b818 	b.w	80003620 <UART_IRQHandler>

800035f0 <UART4_IRQHandler>:
UART4_IRQHandler():
/Users/till/.cache/arm/packs/AlifSemiconductor/Ensemble/1.3.3/Alif_CMSIS/Source/Driver_USART.c:2407
    UART_IRQHandler(&UART4);
800035f0:	f240 5060 	movw	r0, #1376	@ 0x560
800035f4:	f2c2 0000 	movt	r0, #8192	@ 0x2000
800035f8:	f000 b812 	b.w	80003620 <UART_IRQHandler>

800035fc <UART5_IRQHandler>:
UART5_IRQHandler():
/Users/till/.cache/arm/packs/AlifSemiconductor/Ensemble/1.3.3/Alif_CMSIS/Source/Driver_USART.c:2586
    UART_IRQHandler(&UART5);
800035fc:	f240 50ac 	movw	r0, #1452	@ 0x5ac
80003600:	f2c2 0000 	movt	r0, #8192	@ 0x2000
80003604:	f000 b80c 	b.w	80003620 <UART_IRQHandler>

80003608 <UART6_IRQHandler>:
UART6_IRQHandler():
/Users/till/.cache/arm/packs/AlifSemiconductor/Ensemble/1.3.3/Alif_CMSIS/Source/Driver_USART.c:2765
    UART_IRQHandler(&UART6);
80003608:	f240 50f8 	movw	r0, #1528	@ 0x5f8
8000360c:	f2c2 0000 	movt	r0, #8192	@ 0x2000
80003610:	f000 b806 	b.w	80003620 <UART_IRQHandler>

80003614 <UART7_IRQHandler>:
UART7_IRQHandler():
/Users/till/.cache/arm/packs/AlifSemiconductor/Ensemble/1.3.3/Alif_CMSIS/Source/Driver_USART.c:2944
    UART_IRQHandler(&UART7);
80003614:	f240 6044 	movw	r0, #1604	@ 0x644
80003618:	f2c2 0000 	movt	r0, #8192	@ 0x2000
8000361c:	f3af 8000 	nop.w

80003620 <UART_IRQHandler>:
UART_IRQHandler():
/Users/till/.cache/arm/packs/AlifSemiconductor/Ensemble/1.3.3/Alif_CMSIS/Source/Driver_USART.c:1454
{
80003620:	b510      	push	{r4, lr}
80003622:	4604      	mov	r4, r0
/Users/till/.cache/arm/packs/AlifSemiconductor/Ensemble/1.3.3/Alif_CMSIS/Source/Driver_USART.c:1458
    uart_irq_handler(uart->regs, transfer);
80003624:	6800      	ldr	r0, [r0, #0]
/Users/till/.cache/arm/packs/AlifSemiconductor/Ensemble/1.3.3/Alif_CMSIS/Source/Driver_USART.c:1455
    UART_TRANSFER *transfer = &(uart->transfer);
80003626:	f104 0108 	add.w	r1, r4, #8
/Users/till/.cache/arm/packs/AlifSemiconductor/Ensemble/1.3.3/Alif_CMSIS/Source/Driver_USART.c:1458
    uart_irq_handler(uart->regs, transfer);
8000362a:	f001 fe53 	bl	800052d4 <uart_irq_handler>
/Users/till/.cache/arm/packs/AlifSemiconductor/Ensemble/1.3.3/Alif_CMSIS/Source/Driver_USART.c:1461
    if(transfer->status & UART_TRANSFER_STATUS_ERROR)
8000362e:	6a20      	ldr	r0, [r4, #32]
80003630:	0700      	lsls	r0, r0, #28
80003632:	d41d      	bmi.n	80003670 <UART_IRQHandler+0x50>
/Users/till/.cache/arm/packs/AlifSemiconductor/Ensemble/1.3.3/Alif_CMSIS/Source/Driver_USART.c:1506
    if(transfer->status & UART_TRANSFER_STATUS_SEND_COMPLETE)
80003634:	6a20      	ldr	r0, [r4, #32]
80003636:	07c0      	lsls	r0, r0, #31
80003638:	d147      	bne.n	800036ca <UART_IRQHandler+0xaa>
/Users/till/.cache/arm/packs/AlifSemiconductor/Ensemble/1.3.3/Alif_CMSIS/Source/Driver_USART.c:1520
    if(transfer->status & UART_TRANSFER_STATUS_RECEIVE_COMPLETE)
8000363a:	6a20      	ldr	r0, [r4, #32]
8000363c:	0780      	lsls	r0, r0, #30
8000363e:	d50a      	bpl.n	80003656 <UART_IRQHandler+0x36>
80003640:	2000      	movs	r0, #0
/Users/till/.cache/arm/packs/AlifSemiconductor/Ensemble/1.3.3/Alif_CMSIS/Source/Driver_USART.c:1523
        transfer->status = UART_TRANSFER_STATUS_NONE;
80003642:	6220      	str	r0, [r4, #32]
/Users/till/.cache/arm/packs/AlifSemiconductor/Ensemble/1.3.3/Alif_CMSIS/Source/Driver_USART.c:1526
        uart->status.rx_busy = UART_STATUS_FREE;
80003644:	6a60      	ldr	r0, [r4, #36]	@ 0x24
/Users/till/.cache/arm/packs/AlifSemiconductor/Ensemble/1.3.3/Alif_CMSIS/Source/Driver_USART.c:1529
        if(uart->cb_event)
80003646:	6861      	ldr	r1, [r4, #4]
/Users/till/.cache/arm/packs/AlifSemiconductor/Ensemble/1.3.3/Alif_CMSIS/Source/Driver_USART.c:1526
        uart->status.rx_busy = UART_STATUS_FREE;
80003648:	f020 0002 	bic.w	r0, r0, #2
/Users/till/.cache/arm/packs/AlifSemiconductor/Ensemble/1.3.3/Alif_CMSIS/Source/Driver_USART.c:1529
        if(uart->cb_event)
8000364c:	2900      	cmp	r1, #0
/Users/till/.cache/arm/packs/AlifSemiconductor/Ensemble/1.3.3/Alif_CMSIS/Source/Driver_USART.c:1526
        uart->status.rx_busy = UART_STATUS_FREE;
8000364e:	6260      	str	r0, [r4, #36]	@ 0x24
/Users/till/.cache/arm/packs/AlifSemiconductor/Ensemble/1.3.3/Alif_CMSIS/Source/Driver_USART.c:1530
            uart->cb_event(ARM_USART_EVENT_RECEIVE_COMPLETE);
80003650:	bf1c      	itt	ne
80003652:	2002      	movne	r0, #2
80003654:	4788      	blxne	r1
/Users/till/.cache/arm/packs/AlifSemiconductor/Ensemble/1.3.3/Alif_CMSIS/Source/Driver_USART.c:1534
    if(transfer->status & UART_TRANSFER_STATUS_RX_TIMEOUT)
80003656:	6a20      	ldr	r0, [r4, #32]
80003658:	0740      	lsls	r0, r0, #29
/Users/till/.cache/arm/packs/AlifSemiconductor/Ensemble/1.3.3/Alif_CMSIS/Source/Driver_USART.c:1548
}
8000365a:	bf58      	it	pl
8000365c:	bd10      	poppl	{r4, pc}
8000365e:	2000      	movs	r0, #0
/Users/till/.cache/arm/packs/AlifSemiconductor/Ensemble/1.3.3/Alif_CMSIS/Source/Driver_USART.c:1537
        transfer->status = UART_TRANSFER_STATUS_NONE;
80003660:	6220      	str	r0, [r4, #32]
/Users/till/.cache/arm/packs/AlifSemiconductor/Ensemble/1.3.3/Alif_CMSIS/Source/Driver_USART.c:1545
        if(uart->cb_event)
80003662:	6861      	ldr	r1, [r4, #4]
80003664:	b161      	cbz	r1, 80003680 <UART_IRQHandler+0x60>
/Users/till/.cache/arm/packs/AlifSemiconductor/Ensemble/1.3.3/Alif_CMSIS/Source/Driver_USART.c:1546
            uart->cb_event(ARM_USART_EVENT_RX_TIMEOUT);
80003666:	2040      	movs	r0, #64	@ 0x40
80003668:	e8bd 4010 	ldmia.w	sp!, {r4, lr}
8000366c:	4708      	bx	r1
8000366e:	bf00      	nop
/Users/till/.cache/arm/packs/AlifSemiconductor/Ensemble/1.3.3/Alif_CMSIS/Source/Driver_USART.c:1468
        if(transfer->status & UART_TRANSFER_STATUS_ERROR_RX_BREAK)
80003670:	6a20      	ldr	r0, [r4, #32]
80003672:	0600      	lsls	r0, r0, #24
80003674:	d406      	bmi.n	80003684 <UART_IRQHandler+0x64>
80003676:	2000      	movs	r0, #0
/Users/till/.cache/arm/packs/AlifSemiconductor/Ensemble/1.3.3/Alif_CMSIS/Source/Driver_USART.c:1474
        if(transfer->status & UART_TRANSFER_STATUS_ERROR_RX_FRAMING)
80003678:	6a21      	ldr	r1, [r4, #32]
8000367a:	0649      	lsls	r1, r1, #25
8000367c:	d40a      	bmi.n	80003694 <UART_IRQHandler+0x74>
8000367e:	e00f      	b.n	800036a0 <UART_IRQHandler+0x80>
/Users/till/.cache/arm/packs/AlifSemiconductor/Ensemble/1.3.3/Alif_CMSIS/Source/Driver_USART.c:1548
}
80003680:	bd10      	pop	{r4, pc}
80003682:	bf00      	nop
/Users/till/.cache/arm/packs/AlifSemiconductor/Ensemble/1.3.3/Alif_CMSIS/Source/Driver_USART.c:1470
            uart->status.rx_break = 1;
80003684:	6a60      	ldr	r0, [r4, #36]	@ 0x24
80003686:	f040 0010 	orr.w	r0, r0, #16
8000368a:	6260      	str	r0, [r4, #36]	@ 0x24
8000368c:	2080      	movs	r0, #128	@ 0x80
/Users/till/.cache/arm/packs/AlifSemiconductor/Ensemble/1.3.3/Alif_CMSIS/Source/Driver_USART.c:1474
        if(transfer->status & UART_TRANSFER_STATUS_ERROR_RX_FRAMING)
8000368e:	6a21      	ldr	r1, [r4, #32]
80003690:	0649      	lsls	r1, r1, #25
80003692:	d505      	bpl.n	800036a0 <UART_IRQHandler+0x80>
/Users/till/.cache/arm/packs/AlifSemiconductor/Ensemble/1.3.3/Alif_CMSIS/Source/Driver_USART.c:1476
            uart->status.rx_framing_error = 1;
80003694:	6a61      	ldr	r1, [r4, #36]	@ 0x24
/Users/till/.cache/arm/packs/AlifSemiconductor/Ensemble/1.3.3/Alif_CMSIS/Source/Driver_USART.c:1477
            cb_event |= ARM_USART_EVENT_RX_FRAMING_ERROR;
80003696:	f500 7080 	add.w	r0, r0, #256	@ 0x100
/Users/till/.cache/arm/packs/AlifSemiconductor/Ensemble/1.3.3/Alif_CMSIS/Source/Driver_USART.c:1476
            uart->status.rx_framing_error = 1;
8000369a:	f041 0120 	orr.w	r1, r1, #32
8000369e:	6261      	str	r1, [r4, #36]	@ 0x24
/Users/till/.cache/arm/packs/AlifSemiconductor/Ensemble/1.3.3/Alif_CMSIS/Source/Driver_USART.c:1480
        if(transfer->status & UART_TRANSFER_STATUS_ERROR_RX_PARITY)
800036a0:	6a21      	ldr	r1, [r4, #32]
800036a2:	0689      	lsls	r1, r1, #26
800036a4:	d420      	bmi.n	800036e8 <UART_IRQHandler+0xc8>
/Users/till/.cache/arm/packs/AlifSemiconductor/Ensemble/1.3.3/Alif_CMSIS/Source/Driver_USART.c:1486
        if(transfer->status & UART_TRANSFER_STATUS_ERROR_RX_OVERRUN)
800036a6:	6a21      	ldr	r1, [r4, #32]
800036a8:	06c9      	lsls	r1, r1, #27
800036aa:	d505      	bpl.n	800036b8 <UART_IRQHandler+0x98>
/Users/till/.cache/arm/packs/AlifSemiconductor/Ensemble/1.3.3/Alif_CMSIS/Source/Driver_USART.c:1488
            uart->status.rx_overflow = 1;
800036ac:	6a61      	ldr	r1, [r4, #36]	@ 0x24
/Users/till/.cache/arm/packs/AlifSemiconductor/Ensemble/1.3.3/Alif_CMSIS/Source/Driver_USART.c:1489
            cb_event |= ARM_USART_EVENT_RX_OVERFLOW;
800036ae:	f040 0020 	orr.w	r0, r0, #32
/Users/till/.cache/arm/packs/AlifSemiconductor/Ensemble/1.3.3/Alif_CMSIS/Source/Driver_USART.c:1488
            uart->status.rx_overflow = 1;
800036b2:	f041 0108 	orr.w	r1, r1, #8
800036b6:	6261      	str	r1, [r4, #36]	@ 0x24
800036b8:	2100      	movs	r1, #0
/Users/till/.cache/arm/packs/AlifSemiconductor/Ensemble/1.3.3/Alif_CMSIS/Source/Driver_USART.c:1493
        transfer->status = UART_TRANSFER_STATUS_NONE;
800036ba:	6221      	str	r1, [r4, #32]
/Users/till/.cache/arm/packs/AlifSemiconductor/Ensemble/1.3.3/Alif_CMSIS/Source/Driver_USART.c:1501
        if(uart->cb_event)
800036bc:	6861      	ldr	r1, [r4, #4]
800036be:	2900      	cmp	r1, #0
/Users/till/.cache/arm/packs/AlifSemiconductor/Ensemble/1.3.3/Alif_CMSIS/Source/Driver_USART.c:1502
            uart->cb_event(cb_event);
800036c0:	bf18      	it	ne
800036c2:	4788      	blxne	r1
/Users/till/.cache/arm/packs/AlifSemiconductor/Ensemble/1.3.3/Alif_CMSIS/Source/Driver_USART.c:1506
    if(transfer->status & UART_TRANSFER_STATUS_SEND_COMPLETE)
800036c4:	6a20      	ldr	r0, [r4, #32]
800036c6:	07c0      	lsls	r0, r0, #31
800036c8:	d0b7      	beq.n	8000363a <UART_IRQHandler+0x1a>
800036ca:	2000      	movs	r0, #0
/Users/till/.cache/arm/packs/AlifSemiconductor/Ensemble/1.3.3/Alif_CMSIS/Source/Driver_USART.c:1509
        transfer->status = UART_TRANSFER_STATUS_NONE;
800036cc:	6220      	str	r0, [r4, #32]
/Users/till/.cache/arm/packs/AlifSemiconductor/Ensemble/1.3.3/Alif_CMSIS/Source/Driver_USART.c:1512
        uart->status.tx_busy = UART_STATUS_FREE;
800036ce:	6a60      	ldr	r0, [r4, #36]	@ 0x24
/Users/till/.cache/arm/packs/AlifSemiconductor/Ensemble/1.3.3/Alif_CMSIS/Source/Driver_USART.c:1515
        if(uart->cb_event)
800036d0:	6861      	ldr	r1, [r4, #4]
/Users/till/.cache/arm/packs/AlifSemiconductor/Ensemble/1.3.3/Alif_CMSIS/Source/Driver_USART.c:1512
        uart->status.tx_busy = UART_STATUS_FREE;
800036d2:	f020 0001 	bic.w	r0, r0, #1
/Users/till/.cache/arm/packs/AlifSemiconductor/Ensemble/1.3.3/Alif_CMSIS/Source/Driver_USART.c:1515
        if(uart->cb_event)
800036d6:	2900      	cmp	r1, #0
/Users/till/.cache/arm/packs/AlifSemiconductor/Ensemble/1.3.3/Alif_CMSIS/Source/Driver_USART.c:1512
        uart->status.tx_busy = UART_STATUS_FREE;
800036d8:	6260      	str	r0, [r4, #36]	@ 0x24
/Users/till/.cache/arm/packs/AlifSemiconductor/Ensemble/1.3.3/Alif_CMSIS/Source/Driver_USART.c:1516
            uart->cb_event(ARM_USART_EVENT_SEND_COMPLETE);
800036da:	bf1c      	itt	ne
800036dc:	2001      	movne	r0, #1
800036de:	4788      	blxne	r1
/Users/till/.cache/arm/packs/AlifSemiconductor/Ensemble/1.3.3/Alif_CMSIS/Source/Driver_USART.c:1520
    if(transfer->status & UART_TRANSFER_STATUS_RECEIVE_COMPLETE)
800036e0:	6a20      	ldr	r0, [r4, #32]
800036e2:	0780      	lsls	r0, r0, #30
800036e4:	d4ac      	bmi.n	80003640 <UART_IRQHandler+0x20>
800036e6:	e7b6      	b.n	80003656 <UART_IRQHandler+0x36>
/Users/till/.cache/arm/packs/AlifSemiconductor/Ensemble/1.3.3/Alif_CMSIS/Source/Driver_USART.c:1482
            uart->status.rx_parity_error = 1;
800036e8:	6a61      	ldr	r1, [r4, #36]	@ 0x24
/Users/till/.cache/arm/packs/AlifSemiconductor/Ensemble/1.3.3/Alif_CMSIS/Source/Driver_USART.c:1483
            cb_event |= ARM_USART_EVENT_RX_PARITY_ERROR;
800036ea:	f500 7000 	add.w	r0, r0, #512	@ 0x200
/Users/till/.cache/arm/packs/AlifSemiconductor/Ensemble/1.3.3/Alif_CMSIS/Source/Driver_USART.c:1482
            uart->status.rx_parity_error = 1;
800036ee:	f041 0140 	orr.w	r1, r1, #64	@ 0x40
800036f2:	6261      	str	r1, [r4, #36]	@ 0x24
/Users/till/.cache/arm/packs/AlifSemiconductor/Ensemble/1.3.3/Alif_CMSIS/Source/Driver_USART.c:1486
        if(transfer->status & UART_TRANSFER_STATUS_ERROR_RX_OVERRUN)
800036f4:	6a21      	ldr	r1, [r4, #32]
800036f6:	06c9      	lsls	r1, r1, #27
800036f8:	d4d8      	bmi.n	800036ac <UART_IRQHandler+0x8c>
800036fa:	e7dd      	b.n	800036b8 <UART_IRQHandler+0x98>

800036fc <UsageFault_Handler>:
UsageFault_Handler():
/Users/till/Documents/Studium/Module/2025_SoSe/Tests/alif_e7_tests/libs/common_app_utils/fault_handler/fault_handler.c:338
    __asm("MOVS R0, #3\n\t"
800036fc:	2003      	movs	r0, #3
800036fe:	f001 bd61 	b.w	800051c4 <CommonAsmFaultHandler>
	...

80003704 <setupTests()>:
setupTests():
/Users/till/Documents/Studium/Module/2025_SoSe/Tests/alif_e7_tests/libs/timing/benchmark.cpp:26
GET_DRIVER_REF(gpio_b, GPIO, BOARD_LEDRGB0_B_GPIO_PORT);
GET_DRIVER_REF(gpio_r, GPIO, BOARD_LEDRGB0_R_GPIO_PORT);
#endif

void setupTests() {
    RTC_Initialize();
80003704:	f3af 8000 	nop.w

80003708 <RTC_Initialize()>:
Register<unsigned int, unsigned int, 16u>::set(unsigned int):
/Users/till/Documents/Studium/Module/2025_SoSe/Tests/alif_e7_tests/libs/timing/LPRTC_Registers.hpp:38
        explicit Register(AddressType base):
            reg(reinterpret_cast<volatile RegisterType*>(base + Offset)) { }
        
        const RegisterType read() { return *reg; }
        void inline write(RegisterType value) { *reg = value; }
        void inline set(RegisterType mask) { *reg |= mask; }
80003708:	f640 00c8 	movw	r0, #2248	@ 0x8c8
8000370c:	f2c2 0000 	movt	r0, #8192	@ 0x2000
80003710:	6800      	ldr	r0, [r0, #0]
80003712:	6801      	ldr	r1, [r0, #0]
80003714:	f041 0101 	orr.w	r1, r1, #1
80003718:	6001      	str	r1, [r0, #0]
Register<unsigned int, unsigned int, 12u>::set(unsigned int):
/Users/till/Documents/Studium/Module/2025_SoSe/Tests/alif_e7_tests/libs/timing/LPRTC_Registers.hpp:38
8000371a:	f640 00cc 	movw	r0, #2252	@ 0x8cc
8000371e:	f2c2 0000 	movt	r0, #8192	@ 0x2000
80003722:	6801      	ldr	r1, [r0, #0]
80003724:	6808      	ldr	r0, [r1, #0]
80003726:	f040 0204 	orr.w	r2, r0, #4
RTC_Initialize():
/Users/till/Documents/Studium/Module/2025_SoSe/Tests/alif_e7_tests/libs/timing/timing.cpp:27
    if (ret != ARM_DRIVER_OK) {
        RTC_Uninitialize();
        return false;
    }*/

    return true;
8000372a:	2001      	movs	r0, #1
Register<unsigned int, unsigned int, 12u>::set(unsigned int):
/Users/till/Documents/Studium/Module/2025_SoSe/Tests/alif_e7_tests/libs/timing/LPRTC_Registers.hpp:38
8000372c:	600a      	str	r2, [r1, #0]
RTC_Initialize():
/Users/till/Documents/Studium/Module/2025_SoSe/Tests/alif_e7_tests/libs/timing/timing.cpp:27
8000372e:	4770      	bx	lr

80003730 <dotp_reference(float const*, float const*, float*, unsigned int)>:
dotp_reference(float const*, float const*, float*, unsigned int):
/Users/till/Documents/Studium/Module/2025_SoSe/Tests/alif_e7_tests/dotp_tests/main.cpp:32
extern "C" {
    float32_t dotp_scalar(const float32_t * a, const float32_t * b, float32_t * c, const uint32_t len);
    float32_t dotp_mve(const float32_t * a, const float32_t * b, float32_t * c, const uint32_t len);
}

float32_t dotp_reference(const float32_t *__restrict__ a, const float32_t *__restrict__ b, float32_t * c, const uint32_t len) {
80003730:	b570      	push	{r4, r5, r6, lr}
/Users/till/Documents/Studium/Module/2025_SoSe/Tests/alif_e7_tests/dotp_tests/main.cpp:34
    float32_t sum = 0.0;
    for (uint32_t i = 0; i < len; i++) {
80003732:	b13b      	cbz	r3, 80003744 <dotp_reference(float const*, float const*, float*, unsigned int)+0x14>
80003734:	2b04      	cmp	r3, #4
80003736:	f003 0c03 	and.w	ip, r3, #3
8000373a:	d209      	bcs.n	80003750 <dotp_reference(float const*, float const*, float*, unsigned int)+0x20>
8000373c:	ed9f 0a2e 	vldr	s0, [pc, #184]	@ 800037f8 <dotp_reference(float const*, float const*, float*, unsigned int)+0xc8>
80003740:	2300      	movs	r3, #0
80003742:	e02d      	b.n	800037a0 <dotp_reference(float const*, float const*, float*, unsigned int)+0x70>
80003744:	ed9f 0a2c 	vldr	s0, [pc, #176]	@ 800037f8 <dotp_reference(float const*, float const*, float*, unsigned int)+0xc8>
/Users/till/Documents/Studium/Module/2025_SoSe/Tests/alif_e7_tests/dotp_tests/main.cpp:37
        sum += a[i] * b[i];
    }
    *c = sum;
80003748:	ed82 0a00 	vstr	s0, [r2]
/Users/till/Documents/Studium/Module/2025_SoSe/Tests/alif_e7_tests/dotp_tests/main.cpp:38
    return sum;
8000374c:	bd70      	pop	{r4, r5, r6, pc}
8000374e:	bf00      	nop
80003750:	f023 0303 	bic.w	r3, r3, #3
80003754:	2401      	movs	r4, #1
80003756:	3b04      	subs	r3, #4
/Users/till/Documents/Studium/Module/2025_SoSe/Tests/alif_e7_tests/dotp_tests/main.cpp:34
    for (uint32_t i = 0; i < len; i++) {
80003758:	eb04 0e93 	add.w	lr, r4, r3, lsr #2
8000375c:	ed9f 0a26 	vldr	s0, [pc, #152]	@ 800037f8 <dotp_reference(float const*, float const*, float*, unsigned int)+0xc8>
80003760:	2400      	movs	r4, #0
80003762:	2300      	movs	r3, #0
/Users/till/Documents/Studium/Module/2025_SoSe/Tests/alif_e7_tests/dotp_tests/main.cpp:35
        sum += a[i] * b[i];
80003764:	1905      	adds	r5, r0, r4
/Users/till/Documents/Studium/Module/2025_SoSe/Tests/alif_e7_tests/dotp_tests/main.cpp:34
    for (uint32_t i = 0; i < len; i++) {
80003766:	3304      	adds	r3, #4
/Users/till/Documents/Studium/Module/2025_SoSe/Tests/alif_e7_tests/dotp_tests/main.cpp:35
        sum += a[i] * b[i];
80003768:	190e      	adds	r6, r1, r4
/Users/till/Documents/Studium/Module/2025_SoSe/Tests/alif_e7_tests/dotp_tests/main.cpp:34
    for (uint32_t i = 0; i < len; i++) {
8000376a:	3410      	adds	r4, #16
/Users/till/Documents/Studium/Module/2025_SoSe/Tests/alif_e7_tests/dotp_tests/main.cpp:35
        sum += a[i] * b[i];
8000376c:	ed95 1a00 	vldr	s2, [r5]
80003770:	ed96 5a00 	vldr	s10, [r6]
80003774:	ed95 2a01 	vldr	s4, [r5, #4]
80003778:	ed96 6a01 	vldr	s12, [r6, #4]
8000377c:	eea1 0a05 	vfma.f32	s0, s2, s10
80003780:	ed95 3a02 	vldr	s6, [r5, #8]
80003784:	ed96 1a02 	vldr	s2, [r6, #8]
80003788:	eea2 0a06 	vfma.f32	s0, s4, s12
8000378c:	ed95 4a03 	vldr	s8, [r5, #12]
80003790:	ed96 2a03 	vldr	s4, [r6, #12]
80003794:	eea3 0a01 	vfma.f32	s0, s6, s2
80003798:	eea4 0a02 	vfma.f32	s0, s8, s4
/Users/till/Documents/Studium/Module/2025_SoSe/Tests/alif_e7_tests/dotp_tests/main.cpp:34
    for (uint32_t i = 0; i < len; i++) {
8000379c:	f00f c01f 	le	lr, 80003764 <dotp_reference(float const*, float const*, float*, unsigned int)+0x34>
800037a0:	f1bc 0f00 	cmp.w	ip, #0
800037a4:	d025      	beq.n	800037f2 <dotp_reference(float const*, float const*, float*, unsigned int)+0xc2>
/Users/till/Documents/Studium/Module/2025_SoSe/Tests/alif_e7_tests/dotp_tests/main.cpp:35
        sum += a[i] * b[i];
800037a6:	eb00 0e83 	add.w	lr, r0, r3, lsl #2
800037aa:	eb01 0483 	add.w	r4, r1, r3, lsl #2
800037ae:	ed9e 1a00 	vldr	s2, [lr]
800037b2:	ed94 2a00 	vldr	s4, [r4]
/Users/till/Documents/Studium/Module/2025_SoSe/Tests/alif_e7_tests/dotp_tests/main.cpp:34
    for (uint32_t i = 0; i < len; i++) {
800037b6:	f1bc 0f01 	cmp.w	ip, #1
/Users/till/Documents/Studium/Module/2025_SoSe/Tests/alif_e7_tests/dotp_tests/main.cpp:35
        sum += a[i] * b[i];
800037ba:	eea1 0a02 	vfma.f32	s0, s2, s4
/Users/till/Documents/Studium/Module/2025_SoSe/Tests/alif_e7_tests/dotp_tests/main.cpp:34
    for (uint32_t i = 0; i < len; i++) {
800037be:	d018      	beq.n	800037f2 <dotp_reference(float const*, float const*, float*, unsigned int)+0xc2>
/Users/till/Documents/Studium/Module/2025_SoSe/Tests/alif_e7_tests/dotp_tests/main.cpp:35
        sum += a[i] * b[i];
800037c0:	1c5c      	adds	r4, r3, #1
/Users/till/Documents/Studium/Module/2025_SoSe/Tests/alif_e7_tests/dotp_tests/main.cpp:34
    for (uint32_t i = 0; i < len; i++) {
800037c2:	f1bc 0f02 	cmp.w	ip, #2
/Users/till/Documents/Studium/Module/2025_SoSe/Tests/alif_e7_tests/dotp_tests/main.cpp:35
        sum += a[i] * b[i];
800037c6:	eb00 0e84 	add.w	lr, r0, r4, lsl #2
800037ca:	eb01 0484 	add.w	r4, r1, r4, lsl #2
800037ce:	ed9e 1a00 	vldr	s2, [lr]
800037d2:	ed94 2a00 	vldr	s4, [r4]
800037d6:	eea1 0a02 	vfma.f32	s0, s2, s4
/Users/till/Documents/Studium/Module/2025_SoSe/Tests/alif_e7_tests/dotp_tests/main.cpp:34
    for (uint32_t i = 0; i < len; i++) {
800037da:	d00a      	beq.n	800037f2 <dotp_reference(float const*, float const*, float*, unsigned int)+0xc2>
/Users/till/Documents/Studium/Module/2025_SoSe/Tests/alif_e7_tests/dotp_tests/main.cpp:35
        sum += a[i] * b[i];
800037dc:	3302      	adds	r3, #2
800037de:	eb00 0083 	add.w	r0, r0, r3, lsl #2
800037e2:	eb01 0183 	add.w	r1, r1, r3, lsl #2
800037e6:	ed90 1a00 	vldr	s2, [r0]
800037ea:	ed91 2a00 	vldr	s4, [r1]
800037ee:	eea1 0a02 	vfma.f32	s0, s2, s4
/Users/till/Documents/Studium/Module/2025_SoSe/Tests/alif_e7_tests/dotp_tests/main.cpp:37
    *c = sum;
800037f2:	ed82 0a00 	vstr	s0, [r2]
/Users/till/Documents/Studium/Module/2025_SoSe/Tests/alif_e7_tests/dotp_tests/main.cpp:38
    return sum;
800037f6:	bd70      	pop	{r4, r5, r6, pc}
800037f8:	00000000 	.word	0x00000000

800037fc <RTC_GetTimepoint()>:
Register<unsigned int, unsigned int, 0u>::read():
/Users/till/Documents/Studium/Module/2025_SoSe/Tests/alif_e7_tests/libs/timing/LPRTC_Registers.hpp:36
        const RegisterType read() { return *reg; }
800037fc:	f640 00d0 	movw	r0, #2256	@ 0x8d0
80003800:	f2c2 0000 	movt	r0, #8192	@ 0x2000
80003804:	6800      	ldr	r0, [r0, #0]
80003806:	ed9f 1a06 	vldr	s2, [pc, #24]	@ 80003820 <RTC_GetTimepoint()+0x24>
RTC_GetTimepoint():
/Users/till/Documents/Studium/Module/2025_SoSe/Tests/alif_e7_tests/libs/timing/timing.cpp:43
uint32_t RTC_GetTimepoint() {
    /*uint32_t val;
    int32_t ret = RTCdrv->ReadCounter(&val);*/
    uint32_t val = LPRTC::getInstance().getCurrentValue();
    // Umwandeln von 32768Hz in ms
    return (int)(val / 32.768f);
8000380a:	ed90 0a00 	vldr	s0, [r0]
8000380e:	eeb8 0a40 	vcvt.f32.u32	s0, s0
80003812:	ee80 0a01 	vdiv.f32	s0, s0, s2
80003816:	eebd 0ac0 	vcvt.s32.f32	s0, s0
8000381a:	ee10 0a10 	vmov	r0, s0
8000381e:	4770      	bx	lr
80003820:	4203126f 	.word	0x4203126f

80003824 <RTC_Uninitialize()>:
Register<unsigned int, unsigned int, 12u>::clear(unsigned int):
/Users/till/Documents/Studium/Module/2025_SoSe/Tests/alif_e7_tests/libs/timing/LPRTC_Registers.hpp:39
        void inline clear(RegisterType mask) { *reg &= ~mask; }
80003824:	f640 00cc 	movw	r0, #2252	@ 0x8cc
80003828:	f2c2 0000 	movt	r0, #8192	@ 0x2000
8000382c:	6800      	ldr	r0, [r0, #0]
8000382e:	6801      	ldr	r1, [r0, #0]
80003830:	f021 0104 	bic.w	r1, r1, #4
80003834:	6001      	str	r1, [r0, #0]
Register<unsigned int, unsigned int, 16u>::clear(unsigned int):
/Users/till/Documents/Studium/Module/2025_SoSe/Tests/alif_e7_tests/libs/timing/LPRTC_Registers.hpp:39
80003836:	f640 00c8 	movw	r0, #2248	@ 0x8c8
8000383a:	f2c2 0000 	movt	r0, #8192	@ 0x2000
8000383e:	6801      	ldr	r1, [r0, #0]
80003840:	6808      	ldr	r0, [r1, #0]
80003842:	f020 0201 	bic.w	r2, r0, #1
RTC_Uninitialize():
/Users/till/Documents/Studium/Module/2025_SoSe/Tests/alif_e7_tests/libs/timing/timing.cpp:35
    return true;
80003846:	2001      	movs	r0, #1
Register<unsigned int, unsigned int, 16u>::clear(unsigned int):
/Users/till/Documents/Studium/Module/2025_SoSe/Tests/alif_e7_tests/libs/timing/LPRTC_Registers.hpp:39
80003848:	600a      	str	r2, [r1, #0]
RTC_Uninitialize():
/Users/till/Documents/Studium/Module/2025_SoSe/Tests/alif_e7_tests/libs/timing/timing.cpp:35
8000384a:	4770      	bx	lr

8000384c <dotp_mve_intrinsic(float const*, float const*, float*, unsigned int)>:
dotp_mve_intrinsic(float const*, float const*, float*, unsigned int):
/Users/till/Documents/Studium/Module/2025_SoSe/Tests/alif_e7_tests/dotp_tests/main.cpp:41
}

float32_t dotp_mve_intrinsic(const float32_t * a, const float32_t * b, float32_t * c, const uint32_t len) {
8000384c:	b5b0      	push	{r4, r5, r7, lr}
8000384e:	ef80 0050 	vmov.i32	q0, #0	@ 0x00000000
/Users/till/Documents/Studium/Module/2025_SoSe/Tests/alif_e7_tests/dotp_tests/main.cpp:47
    float32x4_t vecA, vecB, vecSum;
    uint32_t blockCount;
    float32_t sum = 0.0f;
    vecSum = vdupq_n_f32(0.0f); // init vecSum = {0, 0, 0, 0}

    blockCount = len >> 2U; // 4 floats pro Durchlauf -> Teilen durch 4
80003852:	089d      	lsrs	r5, r3, #2
/Users/till/Documents/Studium/Module/2025_SoSe/Tests/alif_e7_tests/dotp_tests/main.cpp:48
    while (blockCount > 0U) {
80003854:	f045 c011 	wls	lr, r5, 80003878 <dotp_mve_intrinsic(float const*, float const*, float*, unsigned int)+0x2c>
80003858:	ef80 0050 	vmov.i32	q0, #0	@ 0x00000000
8000385c:	eb00 1c05 	add.w	ip, r0, r5, lsl #4
80003860:	012c      	lsls	r4, r5, #4
80003862:	460d      	mov	r5, r1
/Users/till/Documents/Studium/Module/2025_SoSe/Tests/alif_e7_tests/dotp_tests/main.cpp:49
        vecA = vld1q(a); // 4 F32 laden
80003864:	ecb0 3f04 	ldc	15, cr3, [r0], #16
/Users/till/Documents/Studium/Module/2025_SoSe/Tests/alif_e7_tests/dotp_tests/main.cpp:51
        a += 4; // 4 F32 weiter
        vecB = vld1q(b); // 4 F32 laden
80003868:	ecb5 5f04 	ldc	15, cr5, [r5], #16
/Users/till/Documents/Studium/Module/2025_SoSe/Tests/alif_e7_tests/dotp_tests/main.cpp:54
        b += 4; // 4 F32 weiter

        vecSum = vfmaq(vecSum, vecA, vecB); // vecSum += vecA * vecB
8000386c:	ef02 0c54 	vfma.f32	q0, q1, q2
/Users/till/Documents/Studium/Module/2025_SoSe/Tests/alif_e7_tests/dotp_tests/main.cpp:48
    while (blockCount > 0U) {
80003870:	f00f c009 	le	lr, 80003864 <dotp_mve_intrinsic(float const*, float const*, float*, unsigned int)+0x18>
80003874:	4421      	add	r1, r4
80003876:	4660      	mov	r0, ip
/Users/till/Documents/Studium/Module/2025_SoSe/Tests/alif_e7_tests/dotp_tests/main.cpp:59
        blockCount--;
    }

    // len % 4 != 0
    blockCount = len & 3U; // Rest
80003878:	f013 0303 	ands.w	r3, r3, #3
/Users/till/Documents/Studium/Module/2025_SoSe/Tests/alif_e7_tests/dotp_tests/main.cpp:60
    if (blockCount > 0U) {
8000387c:	d009      	beq.n	80003892 <dotp_mve_intrinsic(float const*, float const*, float*, unsigned int)+0x46>
/Users/till/Documents/Studium/Module/2025_SoSe/Tests/alif_e7_tests/dotp_tests/main.cpp:62
        mve_pred16_t p0 = vctp32q(blockCount); // Predicate
        vecA = vld1q(a);
8000387e:	ed90 3f00 	ldc	15, cr3, [r0]
/Users/till/Documents/Studium/Module/2025_SoSe/Tests/alif_e7_tests/dotp_tests/main.cpp:61
        mve_pred16_t p0 = vctp32q(blockCount); // Predicate
80003882:	f023 e801 	bfcsel	0, 80002888 <GPIO3_IRQ7Handler+0x8>, 4, hi
/Users/till/Documents/Studium/Module/2025_SoSe/Tests/alif_e7_tests/dotp_tests/main.cpp:63
        vecB = vld1q(b);
80003886:	ed91 5f00 	ldc	15, cr5, [r1]
/Users/till/Documents/Studium/Module/2025_SoSe/Tests/alif_e7_tests/dotp_tests/main.cpp:64
        vecSum = vfmaq_m(vecSum, vecA, vecB, p0); // Predicated MAC
8000388a:	fe71 0f4d 			@ <UNDEFINED> instruction: 0xfe710f4d
8000388e:	ef02 0c54 	vfma.f32	q0, q1, q2
/Users/till/Documents/Studium/Module/2025_SoSe/Tests/alif_e7_tests/dotp_tests/main.cpp:69
    }

    // Summenvektor zusammenaddieren
    // sum = vecAddAcrossF32Mve(vecSum);
    sum = vgetq_lane_f32(vecSum, 0U) + vgetq_lane_f32(vecSum, 1U) + vgetq_lane_f32(vecSum, 2U) + vgetq_lane_f32(vecSum, 3U);
80003892:	ee30 0a20 	vadd.f32	s0, s0, s1
80003896:	ee31 0a00 	vadd.f32	s0, s2, s0
8000389a:	ee31 0a80 	vadd.f32	s0, s3, s0
/Users/till/Documents/Studium/Module/2025_SoSe/Tests/alif_e7_tests/dotp_tests/main.cpp:71
    
    *c = sum;
8000389e:	ed82 0a00 	vstr	s0, [r2]
/Users/till/Documents/Studium/Module/2025_SoSe/Tests/alif_e7_tests/dotp_tests/main.cpp:72
    return sum;
800038a2:	bdb0      	pop	{r4, r5, r7, pc}

800038a4 <dotp_scalar_intrinsic(float const*, float const*, float*, unsigned int)>:
dotp_scalar_intrinsic(float const*, float const*, float*, unsigned int):
/Users/till/Documents/Studium/Module/2025_SoSe/Tests/alif_e7_tests/dotp_tests/main.cpp:75
}

float32_t dotp_scalar_intrinsic(const float32_t * a, const float32_t * b, float32_t * c, const uint32_t len) {
800038a4:	b570      	push	{r4, r5, r6, lr}
/Users/till/Documents/Studium/Module/2025_SoSe/Tests/alif_e7_tests/dotp_tests/main.cpp:77
    float32_t sum = 0;
    for (uint32_t i = 0; i < len; i++) {
800038a6:	b13b      	cbz	r3, 800038b8 <dotp_scalar_intrinsic(float const*, float const*, float*, unsigned int)+0x14>
800038a8:	2b04      	cmp	r3, #4
800038aa:	f003 0c03 	and.w	ip, r3, #3
800038ae:	d209      	bcs.n	800038c4 <dotp_scalar_intrinsic(float const*, float const*, float*, unsigned int)+0x20>
800038b0:	ed9f 0a2e 	vldr	s0, [pc, #184]	@ 8000396c <dotp_scalar_intrinsic(float const*, float const*, float*, unsigned int)+0xc8>
800038b4:	2300      	movs	r3, #0
800038b6:	e02d      	b.n	80003914 <dotp_scalar_intrinsic(float const*, float const*, float*, unsigned int)+0x70>
800038b8:	ed9f 0a2c 	vldr	s0, [pc, #176]	@ 8000396c <dotp_scalar_intrinsic(float const*, float const*, float*, unsigned int)+0xc8>
/Users/till/Documents/Studium/Module/2025_SoSe/Tests/alif_e7_tests/dotp_tests/main.cpp:80
        sum += a[i] * b[i];
    }
    *c = sum;
800038bc:	ed82 0a00 	vstr	s0, [r2]
/Users/till/Documents/Studium/Module/2025_SoSe/Tests/alif_e7_tests/dotp_tests/main.cpp:81
    return sum;
800038c0:	bd70      	pop	{r4, r5, r6, pc}
800038c2:	bf00      	nop
800038c4:	f023 0303 	bic.w	r3, r3, #3
800038c8:	2401      	movs	r4, #1
800038ca:	3b04      	subs	r3, #4
/Users/till/Documents/Studium/Module/2025_SoSe/Tests/alif_e7_tests/dotp_tests/main.cpp:77
    for (uint32_t i = 0; i < len; i++) {
800038cc:	eb04 0e93 	add.w	lr, r4, r3, lsr #2
800038d0:	ed9f 0a26 	vldr	s0, [pc, #152]	@ 8000396c <dotp_scalar_intrinsic(float const*, float const*, float*, unsigned int)+0xc8>
800038d4:	2400      	movs	r4, #0
800038d6:	2300      	movs	r3, #0
/Users/till/Documents/Studium/Module/2025_SoSe/Tests/alif_e7_tests/dotp_tests/main.cpp:78
        sum += a[i] * b[i];
800038d8:	1905      	adds	r5, r0, r4
/Users/till/Documents/Studium/Module/2025_SoSe/Tests/alif_e7_tests/dotp_tests/main.cpp:77
    for (uint32_t i = 0; i < len; i++) {
800038da:	3304      	adds	r3, #4
/Users/till/Documents/Studium/Module/2025_SoSe/Tests/alif_e7_tests/dotp_tests/main.cpp:78
        sum += a[i] * b[i];
800038dc:	190e      	adds	r6, r1, r4
/Users/till/Documents/Studium/Module/2025_SoSe/Tests/alif_e7_tests/dotp_tests/main.cpp:77
    for (uint32_t i = 0; i < len; i++) {
800038de:	3410      	adds	r4, #16
/Users/till/Documents/Studium/Module/2025_SoSe/Tests/alif_e7_tests/dotp_tests/main.cpp:78
        sum += a[i] * b[i];
800038e0:	ed95 1a00 	vldr	s2, [r5]
800038e4:	ed96 5a00 	vldr	s10, [r6]
800038e8:	ed95 2a01 	vldr	s4, [r5, #4]
800038ec:	ed96 6a01 	vldr	s12, [r6, #4]
800038f0:	eea1 0a05 	vfma.f32	s0, s2, s10
800038f4:	ed95 3a02 	vldr	s6, [r5, #8]
800038f8:	ed96 1a02 	vldr	s2, [r6, #8]
800038fc:	eea2 0a06 	vfma.f32	s0, s4, s12
80003900:	ed95 4a03 	vldr	s8, [r5, #12]
80003904:	ed96 2a03 	vldr	s4, [r6, #12]
80003908:	eea3 0a01 	vfma.f32	s0, s6, s2
8000390c:	eea4 0a02 	vfma.f32	s0, s8, s4
/Users/till/Documents/Studium/Module/2025_SoSe/Tests/alif_e7_tests/dotp_tests/main.cpp:77
    for (uint32_t i = 0; i < len; i++) {
80003910:	f00f c01f 	le	lr, 800038d8 <dotp_scalar_intrinsic(float const*, float const*, float*, unsigned int)+0x34>
80003914:	f1bc 0f00 	cmp.w	ip, #0
80003918:	d025      	beq.n	80003966 <dotp_scalar_intrinsic(float const*, float const*, float*, unsigned int)+0xc2>
/Users/till/Documents/Studium/Module/2025_SoSe/Tests/alif_e7_tests/dotp_tests/main.cpp:78
        sum += a[i] * b[i];
8000391a:	eb00 0e83 	add.w	lr, r0, r3, lsl #2
8000391e:	eb01 0483 	add.w	r4, r1, r3, lsl #2
80003922:	ed9e 1a00 	vldr	s2, [lr]
80003926:	ed94 2a00 	vldr	s4, [r4]
/Users/till/Documents/Studium/Module/2025_SoSe/Tests/alif_e7_tests/dotp_tests/main.cpp:77
    for (uint32_t i = 0; i < len; i++) {
8000392a:	f1bc 0f01 	cmp.w	ip, #1
/Users/till/Documents/Studium/Module/2025_SoSe/Tests/alif_e7_tests/dotp_tests/main.cpp:78
        sum += a[i] * b[i];
8000392e:	eea1 0a02 	vfma.f32	s0, s2, s4
/Users/till/Documents/Studium/Module/2025_SoSe/Tests/alif_e7_tests/dotp_tests/main.cpp:77
    for (uint32_t i = 0; i < len; i++) {
80003932:	d018      	beq.n	80003966 <dotp_scalar_intrinsic(float const*, float const*, float*, unsigned int)+0xc2>
/Users/till/Documents/Studium/Module/2025_SoSe/Tests/alif_e7_tests/dotp_tests/main.cpp:78
        sum += a[i] * b[i];
80003934:	1c5c      	adds	r4, r3, #1
/Users/till/Documents/Studium/Module/2025_SoSe/Tests/alif_e7_tests/dotp_tests/main.cpp:77
    for (uint32_t i = 0; i < len; i++) {
80003936:	f1bc 0f02 	cmp.w	ip, #2
/Users/till/Documents/Studium/Module/2025_SoSe/Tests/alif_e7_tests/dotp_tests/main.cpp:78
        sum += a[i] * b[i];
8000393a:	eb00 0e84 	add.w	lr, r0, r4, lsl #2
8000393e:	eb01 0484 	add.w	r4, r1, r4, lsl #2
80003942:	ed9e 1a00 	vldr	s2, [lr]
80003946:	ed94 2a00 	vldr	s4, [r4]
8000394a:	eea1 0a02 	vfma.f32	s0, s2, s4
/Users/till/Documents/Studium/Module/2025_SoSe/Tests/alif_e7_tests/dotp_tests/main.cpp:77
    for (uint32_t i = 0; i < len; i++) {
8000394e:	d00a      	beq.n	80003966 <dotp_scalar_intrinsic(float const*, float const*, float*, unsigned int)+0xc2>
/Users/till/Documents/Studium/Module/2025_SoSe/Tests/alif_e7_tests/dotp_tests/main.cpp:78
        sum += a[i] * b[i];
80003950:	3302      	adds	r3, #2
80003952:	eb00 0083 	add.w	r0, r0, r3, lsl #2
80003956:	eb01 0183 	add.w	r1, r1, r3, lsl #2
8000395a:	ed90 1a00 	vldr	s2, [r0]
8000395e:	ed91 2a00 	vldr	s4, [r1]
80003962:	eea1 0a02 	vfma.f32	s0, s2, s4
/Users/till/Documents/Studium/Module/2025_SoSe/Tests/alif_e7_tests/dotp_tests/main.cpp:80
    *c = sum;
80003966:	ed82 0a00 	vstr	s0, [r2]
/Users/till/Documents/Studium/Module/2025_SoSe/Tests/alif_e7_tests/dotp_tests/main.cpp:81
    return sum;
8000396a:	bd70      	pop	{r4, r5, r6, pc}
8000396c:	00000000 	.word	0x00000000

80003970 <RTC_Sleep(unsigned int)>:
Register<unsigned int, unsigned int, 0u>::read():
/Users/till/Documents/Studium/Module/2025_SoSe/Tests/alif_e7_tests/libs/timing/LPRTC_Registers.hpp:36
        const RegisterType read() { return *reg; }
80003970:	f640 01d0 	movw	r1, #2256	@ 0x8d0
80003974:	f2c2 0100 	movt	r1, #8192	@ 0x2000
80003978:	6809      	ldr	r1, [r1, #0]
RTC_GetTimepoint():
/Users/till/Documents/Studium/Module/2025_SoSe/Tests/alif_e7_tests/libs/timing/timing.cpp:43
    return (int)(val / 32.768f);
8000397a:	ed91 0a00 	vldr	s0, [r1]
8000397e:	eeb8 1a40 	vcvt.f32.u32	s2, s0
80003982:	ed9f 0a1f 	vldr	s0, [pc, #124]	@ 80003a00 <RTC_Sleep(unsigned int)+0x90>
80003986:	ee81 1a00 	vdiv.f32	s2, s2, s0
8000398a:	eebd 1ac1 	vcvt.s32.f32	s2, s2
8000398e:	ee11 2a10 	vmov	r2, s2
80003992:	e01a      	b.n	800039ca <RTC_Sleep(unsigned int)+0x5a>
80003994:	ed91 1a00 	vldr	s2, [r1]
80003998:	eeb8 1a41 	vcvt.f32.u32	s2, s2
8000399c:	ee81 1a00 	vdiv.f32	s2, s2, s0
800039a0:	eebd 1ac1 	vcvt.s32.f32	s2, s2
800039a4:	ee11 3a10 	vmov	r3, s2
RTC_Sleep(unsigned int):
/Users/till/Documents/Studium/Module/2025_SoSe/Tests/alif_e7_tests/libs/timing/timing.cpp:48
}

void RTC_Sleep(uint32_t ms) {
    uint32_t start = RTC_GetTimepoint();
    while (RTC_GetTimepoint() - start < ms) { }
800039a8:	1a9b      	subs	r3, r3, r2
800039aa:	4283      	cmp	r3, r0
/Users/till/Documents/Studium/Module/2025_SoSe/Tests/alif_e7_tests/libs/timing/timing.cpp:49
800039ac:	bf28      	it	cs
800039ae:	4770      	bxcs	lr
RTC_GetTimepoint():
/Users/till/Documents/Studium/Module/2025_SoSe/Tests/alif_e7_tests/libs/timing/timing.cpp:43
    return (int)(val / 32.768f);
800039b0:	ed91 1a00 	vldr	s2, [r1]
800039b4:	eeb8 1a41 	vcvt.f32.u32	s2, s2
800039b8:	ee81 1a00 	vdiv.f32	s2, s2, s0
800039bc:	eebd 1ac1 	vcvt.s32.f32	s2, s2
800039c0:	ee11 3a10 	vmov	r3, s2
RTC_Sleep(unsigned int):
/Users/till/Documents/Studium/Module/2025_SoSe/Tests/alif_e7_tests/libs/timing/timing.cpp:48
    while (RTC_GetTimepoint() - start < ms) { }
800039c4:	1a9b      	subs	r3, r3, r2
800039c6:	4283      	cmp	r3, r0
800039c8:	d219      	bcs.n	800039fe <RTC_Sleep(unsigned int)+0x8e>
RTC_GetTimepoint():
/Users/till/Documents/Studium/Module/2025_SoSe/Tests/alif_e7_tests/libs/timing/timing.cpp:43
    return (int)(val / 32.768f);
800039ca:	ed91 1a00 	vldr	s2, [r1]
800039ce:	eeb8 1a41 	vcvt.f32.u32	s2, s2
800039d2:	ee81 1a00 	vdiv.f32	s2, s2, s0
800039d6:	eebd 1ac1 	vcvt.s32.f32	s2, s2
800039da:	ee11 3a10 	vmov	r3, s2
RTC_Sleep(unsigned int):
/Users/till/Documents/Studium/Module/2025_SoSe/Tests/alif_e7_tests/libs/timing/timing.cpp:48
    while (RTC_GetTimepoint() - start < ms) { }
800039de:	1a9b      	subs	r3, r3, r2
800039e0:	4283      	cmp	r3, r0
800039e2:	d20c      	bcs.n	800039fe <RTC_Sleep(unsigned int)+0x8e>
RTC_GetTimepoint():
/Users/till/Documents/Studium/Module/2025_SoSe/Tests/alif_e7_tests/libs/timing/timing.cpp:43
    return (int)(val / 32.768f);
800039e4:	ed91 1a00 	vldr	s2, [r1]
800039e8:	eeb8 1a41 	vcvt.f32.u32	s2, s2
800039ec:	ee81 1a00 	vdiv.f32	s2, s2, s0
800039f0:	eebd 1ac1 	vcvt.s32.f32	s2, s2
800039f4:	ee11 3a10 	vmov	r3, s2
RTC_Sleep(unsigned int):
/Users/till/Documents/Studium/Module/2025_SoSe/Tests/alif_e7_tests/libs/timing/timing.cpp:48
    while (RTC_GetTimepoint() - start < ms) { }
800039f8:	1a9b      	subs	r3, r3, r2
800039fa:	4283      	cmp	r3, r0
800039fc:	d3ca      	bcc.n	80003994 <RTC_Sleep(unsigned int)+0x24>
/Users/till/Documents/Studium/Module/2025_SoSe/Tests/alif_e7_tests/libs/timing/timing.cpp:49
800039fe:	4770      	bx	lr
80003a00:	4203126f 	.word	0x4203126f

80003a04 <unsigned int benchmark<float (*)(float const*, float const*, float*, unsigned int), float*, float*, float*, float*>(float (*)(float const*, float const*, float*, unsigned int), unsigned int, float*, float*, float*, float*, unsigned int)>:
unsigned int benchmark<float (*)(float const*, float const*, float*, unsigned int), float*, float*, float*, float*>(float (*)(float const*, float const*, float*, unsigned int), unsigned int, float*, float*, float*, float*, unsigned int):
/Users/till/Documents/Studium/Module/2025_SoSe/Tests/alif_e7_tests/libs/timing/benchmark.cpp:57
 * @return Gibt Zeit in ms zurück

 * @see https://learn.microsoft.com/en-us/cpp/cpp/ellipses-and-variadic-templates?view=msvc-170
*/
template <typename Func, typename Result, typename A, typename B, typename C>
uint32_t benchmark(const Func f, const uint32_t iterations, Result result, const A a, const B b, C c, const uint32_t len) {
80003a04:	e92d 4ff0 	stmdb	sp!, {r4, r5, r6, r7, r8, r9, sl, fp, lr}
80003a08:	b081      	sub	sp, #4
80003a0a:	461d      	mov	r5, r3
80003a0c:	4616      	mov	r6, r2
80003a0e:	460f      	mov	r7, r1
80003a10:	4604      	mov	r4, r0
RTC_Clock::now():
/Users/till/Documents/Studium/Module/2025_SoSe/Tests/alif_e7_tests/libs/timing/timing.hpp:45
        using period = std::milli;
        using duration = std::chrono::duration<rep, period>;
        using time_point = std::chrono::time_point<RTC_Clock, duration>;
        static constexpr bool is_steady = false;
        static time_point now() noexcept {
            return time_point{duration { RTC_GetTimepoint()}};
80003a12:	f7ff fef3 	bl	800037fc <RTC_GetTimepoint()>
unsigned int benchmark<float (*)(float const*, float const*, float*, unsigned int), float*, float*, float*, float*>(float (*)(float const*, float const*, float*, unsigned int), unsigned int, float*, float*, float*, float*, unsigned int):
80003a16:	4680      	mov	r8, r0
/Users/till/Documents/Studium/Module/2025_SoSe/Tests/alif_e7_tests/libs/timing/benchmark.cpp:62
    #ifdef USE_GPIO
    gpio_r->SetValue(BOARD_LEDRGB0_R_PIN_NO, GPIO_PIN_OUTPUT_STATE_HIGH);
    #endif
    RTC_Clock::time_point start = RTC_Clock::now();
    for (uint32_t i = iterations; i > 0; i--) {
80003a18:	b16f      	cbz	r7, 80003a36 <unsigned int benchmark<float (*)(float const*, float const*, float*, unsigned int), float*, float*, float*, float*>(float (*)(float const*, float const*, float*, unsigned int), unsigned int, float*, float*, float*, float*, unsigned int)+0x32>
80003a1a:	e9dd ba0a 	ldrd	fp, sl, [sp, #40]	@ 0x28
80003a1e:	f8dd 9030 	ldr.w	r9, [sp, #48]	@ 0x30
80003a22:	bf00      	nop
/Users/till/Documents/Studium/Module/2025_SoSe/Tests/alif_e7_tests/libs/timing/benchmark.cpp:64
        // https://www.heise.de/blog/C-Core-Guidelines-Regeln-fuer-Variadic-Templates-4259632.html
        *result = f(a, b, c, len);
80003a24:	4628      	mov	r0, r5
80003a26:	4659      	mov	r1, fp
80003a28:	4652      	mov	r2, sl
80003a2a:	464b      	mov	r3, r9
80003a2c:	47a0      	blx	r4
80003a2e:	ed86 0a00 	vstr	s0, [r6]
/Users/till/Documents/Studium/Module/2025_SoSe/Tests/alif_e7_tests/libs/timing/benchmark.cpp:62
    for (uint32_t i = iterations; i > 0; i--) {
80003a32:	3f01      	subs	r7, #1
80003a34:	d1f6      	bne.n	80003a24 <unsigned int benchmark<float (*)(float const*, float const*, float*, unsigned int), float*, float*, float*, float*>(float (*)(float const*, float const*, float*, unsigned int), unsigned int, float*, float*, float*, float*, unsigned int)+0x20>
RTC_Clock::now():
/Users/till/Documents/Studium/Module/2025_SoSe/Tests/alif_e7_tests/libs/timing/timing.hpp:45
80003a36:	f7ff fee1 	bl	800037fc <RTC_GetTimepoint()>
std::__2::common_type<std::__2::chrono::duration<unsigned int, std::__2::ratio<1ll, 1000ll> >, std::__2::chrono::duration<unsigned int, std::__2::ratio<1ll, 1000ll> > >::type std::__2::chrono::operator-[abi:ne200000]<unsigned int, std::__2::ratio<1ll, 1000ll>, unsigned int, std::__2::ratio<1ll, 1000ll> >(std::__2::chrono::duration<unsigned int, std::__2::ratio<1ll, 1000ll> > const&, std::__2::chrono::duration<unsigned int, std::__2::ratio<1ll, 1000ll> > const&):
/Users/till/.vcpkg/artifacts/2139c4c6/compilers.arm.armclang/6.23.0/include/libcxx/__chrono/duration.h:407
template <class _Rep1, class _Period1, class _Rep2, class _Period2>
inline _LIBCPP_HIDE_FROM_ABI _LIBCPP_CONSTEXPR
typename common_type<duration<_Rep1, _Period1>, duration<_Rep2, _Period2> >::type
operator-(const duration<_Rep1, _Period1>& __lhs, const duration<_Rep2, _Period2>& __rhs) {
  typedef typename common_type<duration<_Rep1, _Period1>, duration<_Rep2, _Period2> >::type _Cd;
  return _Cd(_Cd(__lhs).count() - _Cd(__rhs).count());
80003a3a:	eba0 0008 	sub.w	r0, r0, r8
unsigned int benchmark<float (*)(float const*, float const*, float*, unsigned int), float*, float*, float*, float*>(float (*)(float const*, float const*, float*, unsigned int), unsigned int, float*, float*, float*, float*, unsigned int):
/Users/till/Documents/Studium/Module/2025_SoSe/Tests/alif_e7_tests/libs/timing/benchmark.cpp:72
    }
    RTC_Clock::time_point end = RTC_Clock::now();
    #ifdef USE_GPIO
    gpio_r->SetValue(BOARD_LEDRGB0_R_PIN_NO, GPIO_PIN_OUTPUT_STATE_LOW);
    #endif
    return std::chrono::duration_cast<std::chrono::milliseconds>(end - start).count();
80003a3e:	b001      	add	sp, #4
80003a40:	e8bd 8ff0 	ldmia.w	sp!, {r4, r5, r6, r7, r8, r9, sl, fp, pc}
RTC_Clock::now():
/Users/till/Documents/Studium/Module/2025_SoSe/Tests/alif_e7_tests/libs/timing/timing.hpp:45
80003a44:	f000 f89d 	bl	80003b82 <__clang_call_terminate>
80003a48:	f000 f89b 	bl	80003b82 <__clang_call_terminate>

80003a4c <stopTests()>:
stopTests():
/Users/till/Documents/Studium/Module/2025_SoSe/Tests/alif_e7_tests/libs/timing/benchmark.cpp:41
    RTC_Uninitialize();
80003a4c:	f7ff beea 	b.w	80003824 <RTC_Uninitialize()>

80003a50 <__cxxabiv1::__isOurExceptionClass(_Unwind_Control_Block const*)>:
__cxxabiv1::__isOurExceptionClass(_Unwind_Control_Block const*):
80003a50:	c803      	ldmia	r0, {r0, r1}
80003a52:	f644 424e 	movw	r2, #19534	@ 0x4c4e
80003a56:	f2c0 0243 	movt	r2, #67	@ 0x43
80003a5a:	0a00      	lsrs	r0, r0, #8
80003a5c:	ea82 2211 	eor.w	r2, r2, r1, lsr #8
80003a60:	ea40 6001 	orr.w	r0, r0, r1, lsl #24
80003a64:	f642 312b 	movw	r1, #11051	@ 0x2b2b
80003a68:	f2c4 7143 	movt	r1, #18243	@ 0x4743
80003a6c:	4048      	eors	r0, r1
80003a6e:	4310      	orrs	r0, r2
80003a70:	fab0 f080 	clz	r0, r0
80003a74:	0940      	lsrs	r0, r0, #5
80003a76:	4770      	bx	lr

80003a78 <__cxxabiv1::__cxa_end_cleanup_impl()>:
__cxxabiv1::__cxa_end_cleanup_impl():
80003a78:	b510      	push	{r4, lr}
80003a7a:	f000 f8ae 	bl	80003bda <__cxa_get_globals>
80003a7e:	f8d0 e008 	ldr.w	lr, [r0, #8]
80003a82:	f1be 0f00 	cmp.w	lr, #0
80003a86:	d025      	beq.n	80003ad4 <__cxxabiv1::__cxa_end_cleanup_impl()+0x5c>
80003a88:	4671      	mov	r1, lr
80003a8a:	f851 cf28 	ldr.w	ip, [r1, #40]!
80003a8e:	f644 424e 	movw	r2, #19534	@ 0x4c4e
80003a92:	684b      	ldr	r3, [r1, #4]
80003a94:	f2c0 0243 	movt	r2, #67	@ 0x43
80003a98:	ea82 2413 	eor.w	r4, r2, r3, lsr #8
80003a9c:	ea4f 221c 	mov.w	r2, ip, lsr #8
80003aa0:	ea42 6203 	orr.w	r2, r2, r3, lsl #24
80003aa4:	f642 332b 	movw	r3, #11051	@ 0x2b2b
80003aa8:	f2c4 7343 	movt	r3, #18243	@ 0x4743
80003aac:	405a      	eors	r2, r3
80003aae:	4322      	orrs	r2, r4
80003ab0:	d10c      	bne.n	80003acc <__cxxabiv1::__cxa_end_cleanup_impl()+0x54>
80003ab2:	f8de 2024 	ldr.w	r2, [lr, #36]	@ 0x24
80003ab6:	3a01      	subs	r2, #1
80003ab8:	f8ce 2024 	str.w	r2, [lr, #36]	@ 0x24
80003abc:	d108      	bne.n	80003ad0 <__cxxabiv1::__cxa_end_cleanup_impl()+0x58>
80003abe:	f8de 2020 	ldr.w	r2, [lr, #32]
80003ac2:	6082      	str	r2, [r0, #8]
80003ac4:	2000      	movs	r0, #0
80003ac6:	f8ce 0020 	str.w	r0, [lr, #32]
80003aca:	e001      	b.n	80003ad0 <__cxxabiv1::__cxa_end_cleanup_impl()+0x58>
80003acc:	2200      	movs	r2, #0
80003ace:	6082      	str	r2, [r0, #8]
80003ad0:	4608      	mov	r0, r1
80003ad2:	bd10      	pop	{r4, pc}
80003ad4:	f000 f840 	bl	80003b58 <std::terminate()>

80003ad8 <std::__terminate(void (*)())>:
std::__terminate(void (*)()):
80003ad8:	b580      	push	{r7, lr}
80003ada:	4780      	blx	r0
80003adc:	a004      	add	r0, pc, #16	@ (adr r0, 80003af0 <std::__terminate(void (*)())+0x18>)
80003ade:	f001 fca0 	bl	80005422 <abort_message>
80003ae2:	f000 f853 	bl	80003b8c <__cxa_begin_catch>
80003ae6:	a00c      	add	r0, pc, #48	@ (adr r0, 80003b18 <std::__terminate(void (*)())+0x40>)
80003ae8:	f001 fc9b 	bl	80005422 <abort_message>
80003aec:	f000 f849 	bl	80003b82 <__clang_call_terminate>
80003af0:	6d726574 	.word	0x6d726574
80003af4:	74616e69 	.word	0x74616e69
80003af8:	61685f65 	.word	0x61685f65
80003afc:	656c646e 	.word	0x656c646e
80003b00:	6e752072 	.word	0x6e752072
80003b04:	65707865 	.word	0x65707865
80003b08:	64657463 	.word	0x64657463
80003b0c:	7220796c 	.word	0x7220796c
80003b10:	72757465 	.word	0x72757465
80003b14:	0064656e 	.word	0x0064656e
80003b18:	6d726574 	.word	0x6d726574
80003b1c:	74616e69 	.word	0x74616e69
80003b20:	61685f65 	.word	0x61685f65
80003b24:	656c646e 	.word	0x656c646e
80003b28:	6e752072 	.word	0x6e752072
80003b2c:	65707865 	.word	0x65707865
80003b30:	64657463 	.word	0x64657463
80003b34:	7420796c 	.word	0x7420796c
80003b38:	77657268 	.word	0x77657268
80003b3c:	206e6120 	.word	0x206e6120
80003b40:	65637865 	.word	0x65637865
80003b44:	6f697470 	.word	0x6f697470
80003b48:	0000006e 	.word	0x0000006e

80003b4c <std::get_terminate()>:
std::get_terminate():
80003b4c:	f240 6090 	movw	r0, #1680	@ 0x690
80003b50:	f2c2 0000 	movt	r0, #8192	@ 0x2000
80003b54:	6800      	ldr	r0, [r0, #0]
80003b56:	4770      	bx	lr

80003b58 <std::terminate()>:
std::terminate():
80003b58:	b510      	push	{r4, lr}
80003b5a:	f000 f843 	bl	80003be4 <__cxa_get_globals_fast>
80003b5e:	b108      	cbz	r0, 80003b64 <std::terminate()+0xc>
80003b60:	6804      	ldr	r4, [r0, #0]
80003b62:	b91c      	cbnz	r4, 80003b6c <std::terminate()+0x14>
80003b64:	f7ff fff2 	bl	80003b4c <std::get_terminate()>
80003b68:	f7ff ffb6 	bl	80003ad8 <std::__terminate(void (*)())>
80003b6c:	f104 0028 	add.w	r0, r4, #40	@ 0x28
80003b70:	f7ff ff6e 	bl	80003a50 <__cxxabiv1::__isOurExceptionClass(_Unwind_Control_Block const*)>
80003b74:	2800      	cmp	r0, #0
80003b76:	d0f5      	beq.n	80003b64 <std::terminate()+0xc>
80003b78:	6960      	ldr	r0, [r4, #20]
80003b7a:	f7ff ffad 	bl	80003ad8 <std::__terminate(void (*)())>
80003b7e:	f000 f800 	bl	80003b82 <__clang_call_terminate>

80003b82 <__clang_call_terminate>:
__clang_call_terminate():
80003b82:	b580      	push	{r7, lr}
80003b84:	f000 f802 	bl	80003b8c <__cxa_begin_catch>
80003b88:	f7ff ffe6 	bl	80003b58 <std::terminate()>

80003b8c <__cxa_begin_catch>:
__cxa_begin_catch():
80003b8c:	b570      	push	{r4, r5, r6, lr}
80003b8e:	4605      	mov	r5, r0
80003b90:	f7ff ff5e 	bl	80003a50 <__cxxabiv1::__isOurExceptionClass(_Unwind_Control_Block const*)>
80003b94:	4606      	mov	r6, r0
80003b96:	f000 f820 	bl	80003bda <__cxa_get_globals>
80003b9a:	4604      	mov	r4, r0
80003b9c:	4628      	mov	r0, r5
80003b9e:	3828      	subs	r0, #40	@ 0x28
80003ba0:	bf00      	nop
80003ba2:	b17e      	cbz	r6, 80003bc4 <__cxa_begin_catch+0x38>
80003ba4:	69c1      	ldr	r1, [r0, #28]
80003ba6:	2900      	cmp	r1, #0
80003ba8:	bf48      	it	mi
80003baa:	4249      	negmi	r1, r1
80003bac:	6822      	ldr	r2, [r4, #0]
80003bae:	3101      	adds	r1, #1
80003bb0:	4290      	cmp	r0, r2
80003bb2:	61c1      	str	r1, [r0, #28]
80003bb4:	bf1c      	itt	ne
80003bb6:	6182      	strne	r2, [r0, #24]
80003bb8:	6020      	strne	r0, [r4, #0]
80003bba:	6861      	ldr	r1, [r4, #4]
80003bbc:	3901      	subs	r1, #1
80003bbe:	6061      	str	r1, [r4, #4]
80003bc0:	6cc0      	ldr	r0, [r0, #76]	@ 0x4c
80003bc2:	bd70      	pop	{r4, r5, r6, pc}
80003bc4:	6821      	ldr	r1, [r4, #0]
80003bc6:	2900      	cmp	r1, #0
80003bc8:	bf02      	ittt	eq
80003bca:	6020      	streq	r0, [r4, #0]
80003bcc:	f105 0058 	addeq.w	r0, r5, #88	@ 0x58
80003bd0:	bd70      	popeq	{r4, r5, r6, pc}
80003bd2:	f7ff ffc1 	bl	80003b58 <std::terminate()>
80003bd6:	f7ff ffd4 	bl	80003b82 <__clang_call_terminate>

80003bda <__cxa_get_globals>:
__cxa_get_globals():
80003bda:	f640 00bc 	movw	r0, #2236	@ 0x8bc
80003bde:	f2c2 0000 	movt	r0, #8192	@ 0x2000
80003be2:	4770      	bx	lr

80003be4 <__cxa_get_globals_fast>:
__cxa_get_globals_fast():
80003be4:	f640 00bc 	movw	r0, #2236	@ 0x8bc
80003be8:	f2c2 0000 	movt	r0, #8192	@ 0x2000
80003bec:	4770      	bx	lr
	...

80003bf0 <__cxx_global_var_init>:
__cxx_global_var_init():
80003bf0:	f640 00b0 	movw	r0, #2224	@ 0x8b0
80003bf4:	f2c2 0000 	movt	r0, #8192	@ 0x2000
80003bf8:	e8d0 0f8f 	ldab	r0, [r0]
80003bfc:	07c0      	lsls	r0, r0, #31
/Users/till/Documents/Studium/Module/2025_SoSe/Tests/alif_e7_tests/libs/timing/LPRTC.hpp:10
#include "LPRTC_Registers.hpp"


class LPRTC {
    private:
        static inline Register<uint32_t, uintptr_t, LPRTC_Register::LPRTC_RTC_CLK_EN_OFFSET> RTC_CLK_EN{LPRTC_Register::LPRTC_VBAT_BASE_ADDRESS};
80003bfe:	bf18      	it	ne
80003c00:	4770      	bxne	lr
80003c02:	b580      	push	{r7, lr}
80003c04:	f640 00b0 	movw	r0, #2224	@ 0x8b0
80003c08:	f2c2 0000 	movt	r0, #8192	@ 0x2000
80003c0c:	f001 fbef 	bl	800053ee <__cxa_guard_acquire>
80003c10:	e8bd 4080 	ldmia.w	sp!, {r7, lr}
80003c14:	b170      	cbz	r0, 80003c34 <__cxx_global_var_init+0x44>
Register<unsigned int, unsigned int, 16u>::Register(unsigned int):
/Users/till/Documents/Studium/Module/2025_SoSe/Tests/alif_e7_tests/libs/timing/LPRTC_Registers.hpp:34
            reg(reinterpret_cast<volatile RegisterType*>(base + Offset)) { }
80003c16:	f640 01c8 	movw	r1, #2248	@ 0x8c8
80003c1a:	f249 0210 	movw	r2, #36880	@ 0x9010
__cxx_global_var_init():
80003c1e:	f640 00b0 	movw	r0, #2224	@ 0x8b0
Register<unsigned int, unsigned int, 16u>::Register(unsigned int):
/Users/till/Documents/Studium/Module/2025_SoSe/Tests/alif_e7_tests/libs/timing/LPRTC_Registers.hpp:34
80003c22:	f2c2 0100 	movt	r1, #8192	@ 0x2000
80003c26:	f6c1 2260 	movt	r2, #6752	@ 0x1a60
__cxx_global_var_init():
80003c2a:	f2c2 0000 	movt	r0, #8192	@ 0x2000
Register<unsigned int, unsigned int, 16u>::Register(unsigned int):
/Users/till/Documents/Studium/Module/2025_SoSe/Tests/alif_e7_tests/libs/timing/LPRTC_Registers.hpp:34
80003c2e:	600a      	str	r2, [r1, #0]
__cxx_global_var_init():
80003c30:	f001 bbf3 	b.w	8000541a <__cxa_guard_release>
/Users/till/Documents/Studium/Module/2025_SoSe/Tests/alif_e7_tests/libs/timing/LPRTC.hpp:10
80003c34:	4770      	bx	lr
	...

80003c38 <__cxx_global_var_init.1>:
__cxx_global_var_init.1():
80003c38:	f640 00b8 	movw	r0, #2232	@ 0x8b8
80003c3c:	f2c2 0000 	movt	r0, #8192	@ 0x2000
80003c40:	e8d0 0f8f 	ldab	r0, [r0]
80003c44:	07c0      	lsls	r0, r0, #31
/Users/till/Documents/Studium/Module/2025_SoSe/Tests/alif_e7_tests/libs/timing/LPRTC.hpp:11
        static inline Register<uint32_t, uintptr_t, LPRTC_Register::CCVR_OFFSET> CCVR{LPRTC_Register::LPRTC_BASE_ADDRESS};
80003c46:	bf18      	it	ne
80003c48:	4770      	bxne	lr
80003c4a:	b580      	push	{r7, lr}
80003c4c:	f640 00b8 	movw	r0, #2232	@ 0x8b8
80003c50:	f2c2 0000 	movt	r0, #8192	@ 0x2000
80003c54:	f001 fbcb 	bl	800053ee <__cxa_guard_acquire>
80003c58:	e8bd 4080 	ldmia.w	sp!, {r7, lr}
80003c5c:	b160      	cbz	r0, 80003c78 <__cxx_global_var_init.1+0x40>
Register<unsigned int, unsigned int, 0u>::Register(unsigned int):
/Users/till/Documents/Studium/Module/2025_SoSe/Tests/alif_e7_tests/libs/timing/LPRTC_Registers.hpp:34
80003c5e:	f640 01d0 	movw	r1, #2256	@ 0x8d0
__cxx_global_var_init.1():
80003c62:	f640 00b8 	movw	r0, #2232	@ 0x8b8
Register<unsigned int, unsigned int, 0u>::Register(unsigned int):
/Users/till/Documents/Studium/Module/2025_SoSe/Tests/alif_e7_tests/libs/timing/LPRTC_Registers.hpp:34
80003c66:	f2c2 0100 	movt	r1, #8192	@ 0x2000
80003c6a:	f04f 4284 	mov.w	r2, #1107296256	@ 0x42000000
__cxx_global_var_init.1():
80003c6e:	f2c2 0000 	movt	r0, #8192	@ 0x2000
Register<unsigned int, unsigned int, 0u>::Register(unsigned int):
/Users/till/Documents/Studium/Module/2025_SoSe/Tests/alif_e7_tests/libs/timing/LPRTC_Registers.hpp:34
80003c72:	600a      	str	r2, [r1, #0]
__cxx_global_var_init.1():
80003c74:	f001 bbd1 	b.w	8000541a <__cxa_guard_release>
/Users/till/Documents/Studium/Module/2025_SoSe/Tests/alif_e7_tests/libs/timing/LPRTC.hpp:11
80003c78:	4770      	bx	lr
	...

80003c7c <__cxx_global_var_init.2>:
__cxx_global_var_init.2():
80003c7c:	f640 00b4 	movw	r0, #2228	@ 0x8b4
80003c80:	f2c2 0000 	movt	r0, #8192	@ 0x2000
80003c84:	e8d0 0f8f 	ldab	r0, [r0]
80003c88:	07c0      	lsls	r0, r0, #31
/Users/till/Documents/Studium/Module/2025_SoSe/Tests/alif_e7_tests/libs/timing/LPRTC.hpp:12
        static inline Register<uint32_t, uintptr_t, LPRTC_Register::CCR_OFFSET> CCR{LPRTC_Register::LPRTC_BASE_ADDRESS};
80003c8a:	bf18      	it	ne
80003c8c:	4770      	bxne	lr
80003c8e:	b580      	push	{r7, lr}
80003c90:	f640 00b4 	movw	r0, #2228	@ 0x8b4
80003c94:	f2c2 0000 	movt	r0, #8192	@ 0x2000
80003c98:	f001 fba9 	bl	800053ee <__cxa_guard_acquire>
80003c9c:	e8bd 4080 	ldmia.w	sp!, {r7, lr}
80003ca0:	b170      	cbz	r0, 80003cc0 <__cxx_global_var_init.2+0x44>
Register<unsigned int, unsigned int, 12u>::Register(unsigned int):
/Users/till/Documents/Studium/Module/2025_SoSe/Tests/alif_e7_tests/libs/timing/LPRTC_Registers.hpp:34
80003ca2:	f640 01cc 	movw	r1, #2252	@ 0x8cc
80003ca6:	220c      	movs	r2, #12
__cxx_global_var_init.2():
80003ca8:	f640 00b4 	movw	r0, #2228	@ 0x8b4
Register<unsigned int, unsigned int, 12u>::Register(unsigned int):
/Users/till/Documents/Studium/Module/2025_SoSe/Tests/alif_e7_tests/libs/timing/LPRTC_Registers.hpp:34
80003cac:	f2c2 0100 	movt	r1, #8192	@ 0x2000
80003cb0:	f2c4 2200 	movt	r2, #16896	@ 0x4200
__cxx_global_var_init.2():
80003cb4:	f2c2 0000 	movt	r0, #8192	@ 0x2000
Register<unsigned int, unsigned int, 12u>::Register(unsigned int):
/Users/till/Documents/Studium/Module/2025_SoSe/Tests/alif_e7_tests/libs/timing/LPRTC_Registers.hpp:34
80003cb8:	600a      	str	r2, [r1, #0]
__cxx_global_var_init.2():
80003cba:	f001 bbae 	b.w	8000541a <__cxa_guard_release>
80003cbe:	bf00      	nop
/Users/till/Documents/Studium/Module/2025_SoSe/Tests/alif_e7_tests/libs/timing/LPRTC.hpp:12
80003cc0:	4770      	bx	lr
	...

80003cc4 <_platform_pre_stackheap_init>:
_platform_pre_stackheap_init():
/Users/till/.cache/arm/packs/AlifSemiconductor/Ensemble/1.3.3/Device/common/source/system_M55.c:136
{
80003cc4:	e92d 4ff0 	stmdb	sp!, {r4, r5, r6, r7, r8, r9, sl, fp, lr}
80003cc8:	b083      	sub	sp, #12
80003cca:	f24e 0000 	movw	r0, #57344	@ 0xe000
80003cce:	f2ce 0001 	movt	r0, #57345	@ 0xe001
/Users/till/.cache/arm/packs/AlifSemiconductor/Ensemble/1.3.3/Device/common/source/system_M55.c:138
    if (!(MEMSYSCTL->MSCR & MEMSYSCTL_MSCR_DCCLEAN_Msk))
80003cd2:	6800      	ldr	r0, [r0, #0]
80003cd4:	03c0      	lsls	r0, r0, #15
80003cd6:	f64e 706c 	movw	r0, #61292	@ 0xef6c
80003cda:	f2ce 0000 	movt	r0, #57344	@ 0xe000
80003cde:	f100 80bf 	bmi.w	80003e60 <_platform_pre_stackheap_init+0x19c>
80003ce2:	f64f 6118 	movw	r1, #65048	@ 0xfe18
80003ce6:	2200      	movs	r2, #0
80003ce8:	f6cf 71ff 	movt	r1, #65535	@ 0xffff
SCB_CleanDCache():
/Users/till/.cache/arm/packs/ARM/CMSIS/6.0.0/CMSIS/Core/Include/m-profile/armv7m_cachel1.h:289
  #if defined (__DCACHE_PRESENT) && (__DCACHE_PRESENT == 1U)
    uint32_t ccsidr;
    uint32_t sets;
    uint32_t ways;

    SCB->CSSELR = 0U;                       /* select Level 1 data cache */
80003cec:	5042      	str	r2, [r0, r1]
80003cee:	f64f 6114 	movw	r1, #65044	@ 0xfe14
/Users/till/.cache/arm/packs/ARM/CMSIS/6.0.0/CMSIS/Core/Include/m-profile/armv7m_cachel1.h:290
    __DSB();
80003cf2:	f3bf 8f4f 	dsb	sy
80003cf6:	f6cf 71ff 	movt	r1, #65535	@ 0xffff
/Users/till/.cache/arm/packs/ARM/CMSIS/6.0.0/CMSIS/Core/Include/m-profile/armv7m_cachel1.h:292

    ccsidr = SCB->CCSIDR;
80003cfa:	5841      	ldr	r1, [r0, r1]
80003cfc:	f3c1 05c9 	ubfx	r5, r1, #3, #10
/Users/till/.cache/arm/packs/ARM/CMSIS/6.0.0/CMSIS/Core/Include/m-profile/armv7m_cachel1.h:295

                                            /* clean D-Cache */
    sets = (uint32_t)(CCSIDR_SETS(ccsidr));
80003d00:	f3c1 3e4e 	ubfx	lr, r1, #13, #15
/Users/till/.cache/arm/packs/ARM/CMSIS/6.0.0/CMSIS/Core/Include/m-profile/armv7m_cachel1.h:296
    do {
80003d04:	1c6a      	adds	r2, r5, #1
80003d06:	048b      	lsls	r3, r1, #18
80003d08:	ea4f 0cd1 	mov.w	ip, r1, lsr #3
80003d0c:	4673      	mov	r3, lr
80003d0e:	f002 0a03 	and.w	sl, r2, #3
80003d12:	d42f      	bmi.n	80003d74 <_platform_pre_stackheap_init+0xb0>
80003d14:	0b49      	lsrs	r1, r1, #13
80003d16:	f44f 527f 	mov.w	r2, #16320	@ 0x3fc0
80003d1a:	ea02 1341 	and.w	r3, r2, r1, lsl #5
/Users/till/.cache/arm/packs/ARM/CMSIS/6.0.0/CMSIS/Core/Include/m-profile/armv7m_cachel1.h:298
      ways = (uint32_t)(CCSIDR_WAYS(ccsidr));
      do {
80003d1e:	f1ba 0f00 	cmp.w	sl, #0
80003d22:	4629      	mov	r1, r5
80003d24:	d013      	beq.n	80003d4e <_platform_pre_stackheap_init+0x8a>
/Users/till/.cache/arm/packs/ARM/CMSIS/6.0.0/CMSIS/Core/Include/m-profile/armv7m_cachel1.h:299
        SCB->DCCSW = (((sets << SCB_DCCSW_SET_Pos) & SCB_DCCSW_SET_Msk) |
80003d26:	ea43 718c 	orr.w	r1, r3, ip, lsl #30
/Users/till/.cache/arm/packs/ARM/CMSIS/6.0.0/CMSIS/Core/Include/m-profile/armv7m_cachel1.h:304
                      ((ways << SCB_DCCSW_WAY_Pos) & SCB_DCCSW_WAY_Msk)  );
        #if defined ( __CC_ARM )
          __schedule_barrier();
        #endif
      } while (ways-- != 0U);
80003d2a:	f1ba 0f01 	cmp.w	sl, #1
/Users/till/.cache/arm/packs/ARM/CMSIS/6.0.0/CMSIS/Core/Include/m-profile/armv7m_cachel1.h:299
        SCB->DCCSW = (((sets << SCB_DCCSW_SET_Pos) & SCB_DCCSW_SET_Msk) |
80003d2e:	6001      	str	r1, [r0, #0]
/Users/till/.cache/arm/packs/ARM/CMSIS/6.0.0/CMSIS/Core/Include/m-profile/armv7m_cachel1.h:304
      } while (ways-- != 0U);
80003d30:	f1a5 0101 	sub.w	r1, r5, #1
80003d34:	d00b      	beq.n	80003d4e <_platform_pre_stackheap_init+0x8a>
/Users/till/.cache/arm/packs/ARM/CMSIS/6.0.0/CMSIS/Core/Include/m-profile/armv7m_cachel1.h:299
        SCB->DCCSW = (((sets << SCB_DCCSW_SET_Pos) & SCB_DCCSW_SET_Msk) |
80003d36:	ea43 7181 	orr.w	r1, r3, r1, lsl #30
/Users/till/.cache/arm/packs/ARM/CMSIS/6.0.0/CMSIS/Core/Include/m-profile/armv7m_cachel1.h:304
      } while (ways-- != 0U);
80003d3a:	f1ba 0f02 	cmp.w	sl, #2
/Users/till/.cache/arm/packs/ARM/CMSIS/6.0.0/CMSIS/Core/Include/m-profile/armv7m_cachel1.h:299
        SCB->DCCSW = (((sets << SCB_DCCSW_SET_Pos) & SCB_DCCSW_SET_Msk) |
80003d3e:	6001      	str	r1, [r0, #0]
/Users/till/.cache/arm/packs/ARM/CMSIS/6.0.0/CMSIS/Core/Include/m-profile/armv7m_cachel1.h:304
      } while (ways-- != 0U);
80003d40:	f1a5 0102 	sub.w	r1, r5, #2
/Users/till/.cache/arm/packs/ARM/CMSIS/6.0.0/CMSIS/Core/Include/m-profile/armv7m_cachel1.h:299
        SCB->DCCSW = (((sets << SCB_DCCSW_SET_Pos) & SCB_DCCSW_SET_Msk) |
80003d44:	bf1e      	ittt	ne
80003d46:	ea43 7181 	orrne.w	r1, r3, r1, lsl #30
80003d4a:	6001      	strne	r1, [r0, #0]
/Users/till/.cache/arm/packs/ARM/CMSIS/6.0.0/CMSIS/Core/Include/m-profile/armv7m_cachel1.h:304
      } while (ways-- != 0U);
80003d4c:	1ee9      	subne	r1, r5, #3
/Users/till/.cache/arm/packs/ARM/CMSIS/6.0.0/CMSIS/Core/Include/m-profile/armv7m_cachel1.h:298
      do {
80003d4e:	2d03      	cmp	r5, #3
80003d50:	d30e      	bcc.n	80003d70 <_platform_pre_stackheap_init+0xac>
80003d52:	ea43 7381 	orr.w	r3, r3, r1, lsl #30
80003d56:	3101      	adds	r1, #1
80003d58:	f103 4440 	add.w	r4, r3, #3221225472	@ 0xc0000000
80003d5c:	f083 4600 	eor.w	r6, r3, #2147483648	@ 0x80000000
80003d60:	f103 4780 	add.w	r7, r3, #1073741824	@ 0x40000000
/Users/till/.cache/arm/packs/ARM/CMSIS/6.0.0/CMSIS/Core/Include/m-profile/armv7m_cachel1.h:304
      } while (ways-- != 0U);
80003d64:	3904      	subs	r1, #4
/Users/till/.cache/arm/packs/ARM/CMSIS/6.0.0/CMSIS/Core/Include/m-profile/armv7m_cachel1.h:299
        SCB->DCCSW = (((sets << SCB_DCCSW_SET_Pos) & SCB_DCCSW_SET_Msk) |
80003d66:	6003      	str	r3, [r0, #0]
80003d68:	6004      	str	r4, [r0, #0]
80003d6a:	6006      	str	r6, [r0, #0]
80003d6c:	6007      	str	r7, [r0, #0]
/Users/till/.cache/arm/packs/ARM/CMSIS/6.0.0/CMSIS/Core/Include/m-profile/armv7m_cachel1.h:304
      } while (ways-- != 0U);
80003d6e:	d1f9      	bne.n	80003d64 <_platform_pre_stackheap_init+0xa0>
/Users/till/.cache/arm/packs/ARM/CMSIS/6.0.0/CMSIS/Core/Include/m-profile/armv7m_cachel1.h:305
    } while(sets-- != 0U);
80003d70:	f1ae 0301 	sub.w	r3, lr, #1
/Users/till/.cache/arm/packs/ARM/CMSIS/6.0.0/CMSIS/Core/Include/m-profile/armv7m_cachel1.h:296
    do {
80003d74:	f1be 0f00 	cmp.w	lr, #0
80003d78:	d06e      	beq.n	80003e58 <_platform_pre_stackheap_init+0x194>
80003d7a:	f1a5 0e01 	sub.w	lr, r5, #1
80003d7e:	f1a5 0b02 	sub.w	fp, r5, #2
80003d82:	ea4f 718e 	mov.w	r1, lr, lsl #30
80003d86:	f643 79e0 	movw	r9, #16352	@ 0x3fe0
80003d8a:	9102      	str	r1, [sp, #8]
80003d8c:	ea4f 718b 	mov.w	r1, fp, lsl #30
80003d90:	ea4f 7c8c 	mov.w	ip, ip, lsl #30
80003d94:	9101      	str	r1, [sp, #4]
80003d96:	1ee9      	subs	r1, r5, #3
80003d98:	9100      	str	r1, [sp, #0]
80003d9a:	e003      	b.n	80003da4 <_platform_pre_stackheap_init+0xe0>
/Users/till/.cache/arm/packs/ARM/CMSIS/6.0.0/CMSIS/Core/Include/m-profile/armv7m_cachel1.h:305
    } while(sets-- != 0U);
80003d9c:	2f00      	cmp	r7, #0
80003d9e:	f1a3 0302 	sub.w	r3, r3, #2
80003da2:	d059      	beq.n	80003e58 <_platform_pre_stackheap_init+0x194>
80003da4:	ea09 1743 	and.w	r7, r9, r3, lsl #5
/Users/till/.cache/arm/packs/ARM/CMSIS/6.0.0/CMSIS/Core/Include/m-profile/armv7m_cachel1.h:298
      do {
80003da8:	f1ba 0f00 	cmp.w	sl, #0
80003dac:	462c      	mov	r4, r5
80003dae:	d013      	beq.n	80003dd8 <_platform_pre_stackheap_init+0x114>
/Users/till/.cache/arm/packs/ARM/CMSIS/6.0.0/CMSIS/Core/Include/m-profile/armv7m_cachel1.h:299
        SCB->DCCSW = (((sets << SCB_DCCSW_SET_Pos) & SCB_DCCSW_SET_Msk) |
80003db0:	ea4c 0107 	orr.w	r1, ip, r7
80003db4:	4674      	mov	r4, lr
/Users/till/.cache/arm/packs/ARM/CMSIS/6.0.0/CMSIS/Core/Include/m-profile/armv7m_cachel1.h:304
      } while (ways-- != 0U);
80003db6:	f1ba 0f01 	cmp.w	sl, #1
/Users/till/.cache/arm/packs/ARM/CMSIS/6.0.0/CMSIS/Core/Include/m-profile/armv7m_cachel1.h:299
        SCB->DCCSW = (((sets << SCB_DCCSW_SET_Pos) & SCB_DCCSW_SET_Msk) |
80003dba:	6001      	str	r1, [r0, #0]
/Users/till/.cache/arm/packs/ARM/CMSIS/6.0.0/CMSIS/Core/Include/m-profile/armv7m_cachel1.h:304
      } while (ways-- != 0U);
80003dbc:	d00c      	beq.n	80003dd8 <_platform_pre_stackheap_init+0x114>
/Users/till/.cache/arm/packs/ARM/CMSIS/6.0.0/CMSIS/Core/Include/m-profile/armv7m_cachel1.h:299
        SCB->DCCSW = (((sets << SCB_DCCSW_SET_Pos) & SCB_DCCSW_SET_Msk) |
80003dbe:	9902      	ldr	r1, [sp, #8]
80003dc0:	465c      	mov	r4, fp
/Users/till/.cache/arm/packs/ARM/CMSIS/6.0.0/CMSIS/Core/Include/m-profile/armv7m_cachel1.h:304
      } while (ways-- != 0U);
80003dc2:	f1ba 0f02 	cmp.w	sl, #2
/Users/till/.cache/arm/packs/ARM/CMSIS/6.0.0/CMSIS/Core/Include/m-profile/armv7m_cachel1.h:299
        SCB->DCCSW = (((sets << SCB_DCCSW_SET_Pos) & SCB_DCCSW_SET_Msk) |
80003dc6:	ea41 0107 	orr.w	r1, r1, r7
80003dca:	6001      	str	r1, [r0, #0]
/Users/till/.cache/arm/packs/ARM/CMSIS/6.0.0/CMSIS/Core/Include/m-profile/armv7m_cachel1.h:304
      } while (ways-- != 0U);
80003dcc:	d004      	beq.n	80003dd8 <_platform_pre_stackheap_init+0x114>
/Users/till/.cache/arm/packs/ARM/CMSIS/6.0.0/CMSIS/Core/Include/m-profile/armv7m_cachel1.h:299
        SCB->DCCSW = (((sets << SCB_DCCSW_SET_Pos) & SCB_DCCSW_SET_Msk) |
80003dce:	9901      	ldr	r1, [sp, #4]
80003dd0:	4339      	orrs	r1, r7
80003dd2:	6001      	str	r1, [r0, #0]
80003dd4:	9c00      	ldr	r4, [sp, #0]
80003dd6:	bf00      	nop
/Users/till/.cache/arm/packs/ARM/CMSIS/6.0.0/CMSIS/Core/Include/m-profile/armv7m_cachel1.h:298
      do {
80003dd8:	2d03      	cmp	r5, #3
80003dda:	d30f      	bcc.n	80003dfc <_platform_pre_stackheap_init+0x138>
80003ddc:	ea47 7184 	orr.w	r1, r7, r4, lsl #30
80003de0:	3401      	adds	r4, #1
80003de2:	f101 4740 	add.w	r7, r1, #3221225472	@ 0xc0000000
80003de6:	f081 4600 	eor.w	r6, r1, #2147483648	@ 0x80000000
80003dea:	f101 4280 	add.w	r2, r1, #1073741824	@ 0x40000000
80003dee:	bf00      	nop
/Users/till/.cache/arm/packs/ARM/CMSIS/6.0.0/CMSIS/Core/Include/m-profile/armv7m_cachel1.h:304
      } while (ways-- != 0U);
80003df0:	3c04      	subs	r4, #4
/Users/till/.cache/arm/packs/ARM/CMSIS/6.0.0/CMSIS/Core/Include/m-profile/armv7m_cachel1.h:299
        SCB->DCCSW = (((sets << SCB_DCCSW_SET_Pos) & SCB_DCCSW_SET_Msk) |
80003df2:	6001      	str	r1, [r0, #0]
80003df4:	6007      	str	r7, [r0, #0]
80003df6:	6006      	str	r6, [r0, #0]
80003df8:	6002      	str	r2, [r0, #0]
/Users/till/.cache/arm/packs/ARM/CMSIS/6.0.0/CMSIS/Core/Include/m-profile/armv7m_cachel1.h:304
      } while (ways-- != 0U);
80003dfa:	d1f9      	bne.n	80003df0 <_platform_pre_stackheap_init+0x12c>
/Users/till/.cache/arm/packs/ARM/CMSIS/6.0.0/CMSIS/Core/Include/m-profile/armv7m_cachel1.h:305
    } while(sets-- != 0U);
80003dfc:	1e5f      	subs	r7, r3, #1
/Users/till/.cache/arm/packs/ARM/CMSIS/6.0.0/CMSIS/Core/Include/m-profile/armv7m_cachel1.h:298
      do {
80003dfe:	f1ba 0f00 	cmp.w	sl, #0
80003e02:	ea09 1447 	and.w	r4, r9, r7, lsl #5
80003e06:	4629      	mov	r1, r5
80003e08:	d012      	beq.n	80003e30 <_platform_pre_stackheap_init+0x16c>
/Users/till/.cache/arm/packs/ARM/CMSIS/6.0.0/CMSIS/Core/Include/m-profile/armv7m_cachel1.h:299
        SCB->DCCSW = (((sets << SCB_DCCSW_SET_Pos) & SCB_DCCSW_SET_Msk) |
80003e0a:	ea4c 0104 	orr.w	r1, ip, r4
80003e0e:	6001      	str	r1, [r0, #0]
80003e10:	4671      	mov	r1, lr
/Users/till/.cache/arm/packs/ARM/CMSIS/6.0.0/CMSIS/Core/Include/m-profile/armv7m_cachel1.h:304
      } while (ways-- != 0U);
80003e12:	f1ba 0f01 	cmp.w	sl, #1
80003e16:	d00b      	beq.n	80003e30 <_platform_pre_stackheap_init+0x16c>
/Users/till/.cache/arm/packs/ARM/CMSIS/6.0.0/CMSIS/Core/Include/m-profile/armv7m_cachel1.h:299
        SCB->DCCSW = (((sets << SCB_DCCSW_SET_Pos) & SCB_DCCSW_SET_Msk) |
80003e18:	9902      	ldr	r1, [sp, #8]
/Users/till/.cache/arm/packs/ARM/CMSIS/6.0.0/CMSIS/Core/Include/m-profile/armv7m_cachel1.h:304
      } while (ways-- != 0U);
80003e1a:	f1ba 0f02 	cmp.w	sl, #2
/Users/till/.cache/arm/packs/ARM/CMSIS/6.0.0/CMSIS/Core/Include/m-profile/armv7m_cachel1.h:299
        SCB->DCCSW = (((sets << SCB_DCCSW_SET_Pos) & SCB_DCCSW_SET_Msk) |
80003e1e:	ea41 0104 	orr.w	r1, r1, r4
80003e22:	6001      	str	r1, [r0, #0]
80003e24:	4659      	mov	r1, fp
/Users/till/.cache/arm/packs/ARM/CMSIS/6.0.0/CMSIS/Core/Include/m-profile/armv7m_cachel1.h:304
      } while (ways-- != 0U);
80003e26:	d003      	beq.n	80003e30 <_platform_pre_stackheap_init+0x16c>
/Users/till/.cache/arm/packs/ARM/CMSIS/6.0.0/CMSIS/Core/Include/m-profile/armv7m_cachel1.h:299
        SCB->DCCSW = (((sets << SCB_DCCSW_SET_Pos) & SCB_DCCSW_SET_Msk) |
80003e28:	9901      	ldr	r1, [sp, #4]
80003e2a:	4321      	orrs	r1, r4
80003e2c:	6001      	str	r1, [r0, #0]
80003e2e:	9900      	ldr	r1, [sp, #0]
/Users/till/.cache/arm/packs/ARM/CMSIS/6.0.0/CMSIS/Core/Include/m-profile/armv7m_cachel1.h:298
      do {
80003e30:	2d03      	cmp	r5, #3
80003e32:	d3b3      	bcc.n	80003d9c <_platform_pre_stackheap_init+0xd8>
80003e34:	ea44 7481 	orr.w	r4, r4, r1, lsl #30
80003e38:	3101      	adds	r1, #1
80003e3a:	f104 4840 	add.w	r8, r4, #3221225472	@ 0xc0000000
80003e3e:	f084 4600 	eor.w	r6, r4, #2147483648	@ 0x80000000
80003e42:	f104 4280 	add.w	r2, r4, #1073741824	@ 0x40000000
80003e46:	bf00      	nop
/Users/till/.cache/arm/packs/ARM/CMSIS/6.0.0/CMSIS/Core/Include/m-profile/armv7m_cachel1.h:304
      } while (ways-- != 0U);
80003e48:	3904      	subs	r1, #4
/Users/till/.cache/arm/packs/ARM/CMSIS/6.0.0/CMSIS/Core/Include/m-profile/armv7m_cachel1.h:299
        SCB->DCCSW = (((sets << SCB_DCCSW_SET_Pos) & SCB_DCCSW_SET_Msk) |
80003e4a:	6004      	str	r4, [r0, #0]
80003e4c:	f8c0 8000 	str.w	r8, [r0]
80003e50:	6006      	str	r6, [r0, #0]
80003e52:	6002      	str	r2, [r0, #0]
/Users/till/.cache/arm/packs/ARM/CMSIS/6.0.0/CMSIS/Core/Include/m-profile/armv7m_cachel1.h:304
      } while (ways-- != 0U);
80003e54:	d1f8      	bne.n	80003e48 <_platform_pre_stackheap_init+0x184>
80003e56:	e7a1      	b.n	80003d9c <_platform_pre_stackheap_init+0xd8>
/Users/till/.cache/arm/packs/ARM/CMSIS/6.0.0/CMSIS/Core/Include/m-profile/armv7m_cachel1.h:307

    __DSB();
80003e58:	f3bf 8f4f 	dsb	sy
/Users/till/.cache/arm/packs/ARM/CMSIS/6.0.0/CMSIS/Core/Include/m-profile/armv7m_cachel1.h:308
    __ISB();
80003e5c:	f3bf 8f6f 	isb	sy
SCB_InvalidateICache():
/Users/till/.cache/arm/packs/ARM/CMSIS/6.0.0/CMSIS/Core/Include/m-profile/armv7m_cachel1.h:96
    __DSB();
80003e60:	f3bf 8f4f 	dsb	sy
80003e64:	2100      	movs	r1, #0
/Users/till/.cache/arm/packs/ARM/CMSIS/6.0.0/CMSIS/Core/Include/m-profile/armv7m_cachel1.h:97
    __ISB();
80003e66:	f3bf 8f6f 	isb	sy
/Users/till/.cache/arm/packs/ARM/CMSIS/6.0.0/CMSIS/Core/Include/m-profile/armv7m_cachel1.h:98
    SCB->ICIALLU = 0UL;
80003e6a:	f840 1c1c 	str.w	r1, [r0, #-28]
/Users/till/.cache/arm/packs/ARM/CMSIS/6.0.0/CMSIS/Core/Include/m-profile/armv7m_cachel1.h:99
    __DSB();
80003e6e:	f3bf 8f4f 	dsb	sy
/Users/till/.cache/arm/packs/ARM/CMSIS/6.0.0/CMSIS/Core/Include/m-profile/armv7m_cachel1.h:100
    __ISB();
80003e72:	f3bf 8f6f 	isb	sy
_platform_pre_stackheap_init():
/Users/till/.cache/arm/packs/AlifSemiconductor/Ensemble/1.3.3/Device/common/source/system_M55.c:145
    sys_busy_loop_init();
80003e76:	b003      	add	sp, #12
80003e78:	e8bd 4ff0 	ldmia.w	sp!, {r4, r5, r6, r7, r8, r9, sl, fp, lr}
80003e7c:	f001 ba22 	b.w	800052c4 <sys_busy_loop_init>

80003e80 <_sys_close>:
_sys_close():
/Users/till/Documents/Studium/Module/2025_SoSe/Tests/alif_e7_tests/libs/SEGGER_RTT_V820/Syscalls/SEGGER_RTT_Syscalls_KEIL.c:166
*    0     - device/file closed
*
*/
int _sys_close(FILEHANDLE hFile) {
  (void)hFile;
  return 0;  // Not implemented
80003e80:	2000      	movs	r0, #0
80003e82:	4770      	bx	lr

80003e84 <_sys_flen>:
_sys_flen():
/Users/till/Documents/Studium/Module/2025_SoSe/Tests/alif_e7_tests/libs/SEGGER_RTT_V820/Syscalls/SEGGER_RTT_Syscalls_KEIL.c:258
*    Length of the file
*
*/
long _sys_flen(FILEHANDLE hFile) {
  (void)hFile;
  return (0);  // Not implemented
80003e84:	2000      	movs	r0, #0
80003e86:	4770      	bx	lr

80003e88 <_sys_istty>:
_sys_istty():
/Users/till/Documents/Studium/Module/2025_SoSe/Tests/alif_e7_tests/libs/SEGGER_RTT_V820/Syscalls/SEGGER_RTT_Syscalls_KEIL.c:215
  if (hFile > 0x8000) {
80003e88:	f5b0 4f00 	cmp.w	r0, #32768	@ 0x8000
80003e8c:	ea5f 90df 			@ <UNDEFINED> instruction: 0xea5f90df
/Users/till/Documents/Studium/Module/2025_SoSe/Tests/alif_e7_tests/libs/SEGGER_RTT_V820/Syscalls/SEGGER_RTT_Syscalls_KEIL.c:219
}
80003e90:	4770      	bx	lr
	...

80003e94 <_sys_open>:
_sys_open():
/Users/till/Documents/Studium/Module/2025_SoSe/Tests/alif_e7_tests/libs/SEGGER_RTT_V820/Syscalls/SEGGER_RTT_Syscalls_KEIL.c:139
FILEHANDLE _sys_open(const char * sName, int OpenMode) {
80003e94:	b510      	push	{r4, lr}
/Users/till/Documents/Studium/Module/2025_SoSe/Tests/alif_e7_tests/libs/SEGGER_RTT_V820/Syscalls/SEGGER_RTT_Syscalls_KEIL.c:142
  if (strcmp(sName, __stdout_name) == 0) {
80003e96:	f645 4166 	movw	r1, #23654	@ 0x5c66
80003e9a:	4604      	mov	r4, r0
80003e9c:	f2c8 0100 	movt	r1, #32768	@ 0x8000
80003ea0:	f7fc ff6a 	bl	80000d78 <strcmp>
80003ea4:	2800      	cmp	r0, #0
80003ea6:	bf04      	itt	eq
80003ea8:	f248 0002 	movweq	r0, #32770	@ 0x8002
/Users/till/Documents/Studium/Module/2025_SoSe/Tests/alif_e7_tests/libs/SEGGER_RTT_V820/Syscalls/SEGGER_RTT_Syscalls_KEIL.c:148
}
80003eac:	bd10      	popeq	{r4, pc}
/Users/till/Documents/Studium/Module/2025_SoSe/Tests/alif_e7_tests/libs/SEGGER_RTT_V820/Syscalls/SEGGER_RTT_Syscalls_KEIL.c:144
  } else if (strcmp(sName, __stderr_name) == 0) {
80003eae:	f645 416a 	movw	r1, #23658	@ 0x5c6a
80003eb2:	4620      	mov	r0, r4
80003eb4:	f2c8 0100 	movt	r1, #32768	@ 0x8000
80003eb8:	f7fc ff5e 	bl	80000d78 <strcmp>
80003ebc:	4601      	mov	r1, r0
80003ebe:	2000      	movs	r0, #0
80003ec0:	2900      	cmp	r1, #0
80003ec2:	bf08      	it	eq
80003ec4:	f248 0003 	movweq	r0, #32771	@ 0x8003
/Users/till/Documents/Studium/Module/2025_SoSe/Tests/alif_e7_tests/libs/SEGGER_RTT_V820/Syscalls/SEGGER_RTT_Syscalls_KEIL.c:148
}
80003ec8:	bd10      	pop	{r4, pc}
	...

80003ecc <_sys_seek>:
_sys_seek():
/Users/till/Documents/Studium/Module/2025_SoSe/Tests/alif_e7_tests/libs/SEGGER_RTT_V820/Syscalls/SEGGER_RTT_Syscalls_KEIL.c:239
  return (0);  // Not implemented
80003ecc:	2000      	movs	r0, #0
80003ece:	4770      	bx	lr

80003ed0 <_sys_write>:
_sys_write():
/Users/till/Documents/Studium/Module/2025_SoSe/Tests/alif_e7_tests/libs/SEGGER_RTT_V820/Syscalls/SEGGER_RTT_Syscalls_KEIL.c:187
int _sys_write(FILEHANDLE hFile, const unsigned char * pBuffer, unsigned NumBytes, int Mode) {
80003ed0:	f248 0302 	movw	r3, #32770	@ 0x8002
/Users/till/Documents/Studium/Module/2025_SoSe/Tests/alif_e7_tests/libs/SEGGER_RTT_V820/Syscalls/SEGGER_RTT_Syscalls_KEIL.c:191
  if (hFile == STDOUT) {
80003ed4:	4298      	cmp	r0, r3
80003ed6:	d105      	bne.n	80003ee4 <_sys_write+0x14>
80003ed8:	b580      	push	{r7, lr}
/Users/till/Documents/Studium/Module/2025_SoSe/Tests/alif_e7_tests/libs/SEGGER_RTT_V820/Syscalls/SEGGER_RTT_Syscalls_KEIL.c:192
    SEGGER_RTT_Write(0, (const char*)pBuffer, NumBytes);
80003eda:	2000      	movs	r0, #0
80003edc:	f7ff f986 	bl	800031ec <SEGGER_RTT_Write>
80003ee0:	e8bd 4080 	ldmia.w	sp!, {r7, lr}
/Users/till/Documents/Studium/Module/2025_SoSe/Tests/alif_e7_tests/libs/SEGGER_RTT_V820/Syscalls/SEGGER_RTT_Syscalls_KEIL.c:196
}
80003ee4:	2000      	movs	r0, #0
80003ee6:	4770      	bx	lr

80003ee8 <_ttywrch>:
_ttywrch():
/Users/till/Documents/Studium/Module/2025_SoSe/Tests/alif_e7_tests/libs/SEGGER_RTT_V820/Syscalls/SEGGER_RTT_Syscalls_KEIL.c:118
void _ttywrch(int c) {
80003ee8:	b510      	push	{r4, lr}
/Users/till/Documents/Studium/Module/2025_SoSe/Tests/alif_e7_tests/libs/SEGGER_RTT_V820/Syscalls/SEGGER_RTT_Syscalls_KEIL.c:119
  fputc(c, stdout); // stdout
80003eea:	f240 64ec 	movw	r4, #1772	@ 0x6ec
80003eee:	f2c2 0400 	movt	r4, #8192	@ 0x2000
80003ef2:	4621      	mov	r1, r4
80003ef4:	f001 fe7f 	bl	80005bf6 <fputc>
/Users/till/Documents/Studium/Module/2025_SoSe/Tests/alif_e7_tests/libs/SEGGER_RTT_V820/Syscalls/SEGGER_RTT_Syscalls_KEIL.c:120
  fflush(stdout);
80003ef8:	4620      	mov	r0, r4
80003efa:	e8bd 4010 	ldmia.w	sp!, {r4, lr}
80003efe:	f7fc be98 	b.w	80000c32 <fflush>
	...

80003f04 <fault_dump_enable>:
fault_dump_enable():
/Users/till/Documents/Studium/Module/2025_SoSe/Tests/alif_e7_tests/libs/common_app_utils/fault_handler/fault_handler.c:300
{
80003f04:	b580      	push	{r7, lr}
/Users/till/Documents/Studium/Module/2025_SoSe/Tests/alif_e7_tests/libs/common_app_utils/fault_handler/fault_handler.c:301
    fault_dump_enabled = enable;
80003f06:	f640 0105 	movw	r1, #2053	@ 0x805
80003f0a:	f2c2 0100 	movt	r1, #8192	@ 0x2000
80003f0e:	7048      	strb	r0, [r1, #1]
80003f10:	2000      	movs	r0, #0
/Users/till/Documents/Studium/Module/2025_SoSe/Tests/alif_e7_tests/libs/common_app_utils/fault_handler/fault_handler.c:302
    fault_handler_active = false;
80003f12:	7008      	strb	r0, [r1, #0]
/Users/till/Documents/Studium/Module/2025_SoSe/Tests/alif_e7_tests/libs/common_app_utils/fault_handler/fault_handler.c:305
    print_faults();
80003f14:	f000 fb9e 	bl	80004654 <print_faults>
__get_IPSR():
/Users/till/.cache/arm/packs/ARM/CMSIS/6.0.0/CMSIS/Core/Include/./m-profile/cmsis_armclang_m.h:778
 */
__STATIC_FORCEINLINE uint32_t __get_IPSR(void)
{
  uint32_t result;

  __ASM volatile ("MRS %0, ipsr" : "=r" (result) );
80003f18:	f3ef 8105 	mrs	r1, IPSR
fault_dump_enable():
/Users/till/Documents/Studium/Module/2025_SoSe/Tests/alif_e7_tests/libs/common_app_utils/fault_handler/fault_handler.c:309
    if (ipsr.b.ISR != 0) {
80003f1c:	f36f 215f 	bfc	r1, #9, #23
80003f20:	2900      	cmp	r1, #0
/Users/till/Documents/Studium/Module/2025_SoSe/Tests/alif_e7_tests/libs/common_app_utils/fault_handler/fault_handler.c:312
}
80003f22:	bf08      	it	eq
80003f24:	bd80      	popeq	{r7, pc}
/Users/till/Documents/Studium/Module/2025_SoSe/Tests/alif_e7_tests/libs/common_app_utils/fault_handler/fault_handler.c:310
        printf("!!! In exception %d !!!\n", ipsr.b.ISR);
80003f26:	a002      	add	r0, pc, #8	@ (adr r0, 80003f30 <fault_dump_enable+0x2c>)
80003f28:	e8bd 4080 	ldmia.w	sp!, {r7, lr}
80003f2c:	f7fc bd06 	b.w	8000093c <__2printf>
80003f30:	20212121 	.word	0x20212121
80003f34:	65206e49 	.word	0x65206e49
80003f38:	70656378 	.word	0x70656378
80003f3c:	6e6f6974 	.word	0x6e6f6974
80003f40:	20642520 	.word	0x20642520
80003f44:	0a212121 	.word	0x0a212121
	...

80003f50 <main>:
main():
/Users/till/Documents/Studium/Module/2025_SoSe/Tests/alif_e7_tests/dotp_tests/main.cpp:85
}

int main (void)
{
80003f50:	e92d 47f0 	stmdb	sp!, {r4, r5, r6, r7, r8, r9, sl, lr}
80003f54:	ed2d 8b04 	vpush	{d8-d9}
80003f58:	f5ad 6d84 	sub.w	sp, sp, #1056	@ 0x420
/Users/till/Documents/Studium/Module/2025_SoSe/Tests/alif_e7_tests/dotp_tests/main.cpp:89
    // Init pinmux using boardlib
    // BOARD_Pinmux_Init();

    fault_dump_enable(true);
80003f5c:	2001      	movs	r0, #1
80003f5e:	f7ff ffd1 	bl	80003f04 <fault_dump_enable>
/Users/till/Documents/Studium/Module/2025_SoSe/Tests/alif_e7_tests/dotp_tests/main.cpp:91

    setupTests();
80003f62:	f7ff fbcf 	bl	80003704 <setupTests()>
/Users/till/Documents/Studium/Module/2025_SoSe/Tests/alif_e7_tests/dotp_tests/main.cpp:95

    // SysTick_Config(SystemCoreClock / 10);

    printf("\r\nHello World!\r\n");
80003f66:	f645 7046 	movw	r0, #24390	@ 0x5f46
80003f6a:	f2c8 0000 	movt	r0, #32768	@ 0x8000
80003f6e:	f7fc fe7f 	bl	80000c70 <puts>
80003f72:	f20f 401c 	addw	r0, pc, #1052	@ 0x41c
80003f76:	f50d 7808 	add.w	r8, sp, #544	@ 0x220
/Users/till/Documents/Studium/Module/2025_SoSe/Tests/alif_e7_tests/dotp_tests/main.cpp:104
    float32_t a[len];
    float32_t b[len];
    float32_t c = 0;
    float32_t result;
    for (int32_t i = 0; i < len; i++) {
        a[i] = i;
80003f7a:	ed90 1f00 	ldc	15, cr1, [r0]
80003f7e:	f10d 0920 	add.w	r9, sp, #32
80003f82:	f20f 401c 	addw	r0, pc, #1052	@ 0x41c
80003f86:	ed88 1f00 	stc	15, cr1, [r8]
/Users/till/Documents/Studium/Module/2025_SoSe/Tests/alif_e7_tests/dotp_tests/main.cpp:105
        b[i] = i;
80003f8a:	ed89 1f00 	stc	15, cr1, [r9]
/Users/till/Documents/Studium/Module/2025_SoSe/Tests/alif_e7_tests/dotp_tests/main.cpp:104
        a[i] = i;
80003f8e:	ed90 1f00 	ldc	15, cr1, [r0]
80003f92:	f50d 7e00 	add.w	lr, sp, #512	@ 0x200
80003f96:	f20f 4018 	addw	r0, pc, #1048	@ 0x418
80003f9a:	ed8e 1f0c 	stc	15, cr1, [lr, #48]	@ 0x30
/Users/till/Documents/Studium/Module/2025_SoSe/Tests/alif_e7_tests/dotp_tests/main.cpp:105
        b[i] = i;
80003f9e:	ed8d 1f0c 	stc	15, cr1, [sp, #48]	@ 0x30
/Users/till/Documents/Studium/Module/2025_SoSe/Tests/alif_e7_tests/dotp_tests/main.cpp:104
        a[i] = i;
80003fa2:	ed90 1f00 	ldc	15, cr1, [r0]
80003fa6:	f20f 4018 	addw	r0, pc, #1048	@ 0x418
80003faa:	f248 65a0 	movw	r5, #34464	@ 0x86a0
80003fae:	ed8e 1f10 	stc	15, cr1, [lr, #64]	@ 0x40
/Users/till/Documents/Studium/Module/2025_SoSe/Tests/alif_e7_tests/dotp_tests/main.cpp:105
        b[i] = i;
80003fb2:	ed8d 1f10 	stc	15, cr1, [sp, #64]	@ 0x40
/Users/till/Documents/Studium/Module/2025_SoSe/Tests/alif_e7_tests/dotp_tests/main.cpp:104
        a[i] = i;
80003fb6:	ed90 1f00 	ldc	15, cr1, [r0]
80003fba:	f20f 4014 	addw	r0, pc, #1044	@ 0x414
80003fbe:	ae06      	add	r6, sp, #24
80003fc0:	ed8e 1f14 	stc	15, cr1, [lr, #80]	@ 0x50
/Users/till/Documents/Studium/Module/2025_SoSe/Tests/alif_e7_tests/dotp_tests/main.cpp:105
        b[i] = i;
80003fc4:	ed8d 1f14 	stc	15, cr1, [sp, #80]	@ 0x50
/Users/till/Documents/Studium/Module/2025_SoSe/Tests/alif_e7_tests/dotp_tests/main.cpp:104
        a[i] = i;
80003fc8:	ed90 1f00 	ldc	15, cr1, [r0]
80003fcc:	f20f 4010 	addw	r0, pc, #1040	@ 0x410
80003fd0:	2400      	movs	r4, #0
80003fd2:	ed8e 1f18 	stc	15, cr1, [lr, #96]	@ 0x60
/Users/till/Documents/Studium/Module/2025_SoSe/Tests/alif_e7_tests/dotp_tests/main.cpp:105
        b[i] = i;
80003fd6:	ed8d 1f18 	stc	15, cr1, [sp, #96]	@ 0x60
/Users/till/Documents/Studium/Module/2025_SoSe/Tests/alif_e7_tests/dotp_tests/main.cpp:104
        a[i] = i;
80003fda:	ed90 1f00 	ldc	15, cr1, [r0]
80003fde:	f20f 4010 	addw	r0, pc, #1040	@ 0x410
80003fe2:	f04f 0a80 	mov.w	sl, #128	@ 0x80
80003fe6:	ed8e 1f1c 	stc	15, cr1, [lr, #112]	@ 0x70
/Users/till/Documents/Studium/Module/2025_SoSe/Tests/alif_e7_tests/dotp_tests/main.cpp:105
        b[i] = i;
80003fea:	ed8d 1f1c 	stc	15, cr1, [sp, #112]	@ 0x70
/Users/till/Documents/Studium/Module/2025_SoSe/Tests/alif_e7_tests/dotp_tests/main.cpp:104
        a[i] = i;
80003fee:	ed90 1f00 	ldc	15, cr1, [r0]
80003ff2:	f20f 400c 	addw	r0, pc, #1036	@ 0x40c
80003ff6:	af07      	add	r7, sp, #28
80003ff8:	ed8e 1f20 	stc	15, cr1, [lr, #128]	@ 0x80
/Users/till/Documents/Studium/Module/2025_SoSe/Tests/alif_e7_tests/dotp_tests/main.cpp:105
        b[i] = i;
80003ffc:	ed8d 1f20 	stc	15, cr1, [sp, #128]	@ 0x80
/Users/till/Documents/Studium/Module/2025_SoSe/Tests/alif_e7_tests/dotp_tests/main.cpp:104
        a[i] = i;
80004000:	ed90 1f00 	ldc	15, cr1, [r0]
80004004:	f20f 4008 	addw	r0, pc, #1032	@ 0x408
/Users/till/Documents/Studium/Module/2025_SoSe/Tests/alif_e7_tests/dotp_tests/main.cpp:111
    }


    uint32_t time;
    float32_t gflops;
    time = benchmark(dotp_reference, iterations, &result, a, b, &c, len);
80004008:	4632      	mov	r2, r6
/Users/till/Documents/Studium/Module/2025_SoSe/Tests/alif_e7_tests/dotp_tests/main.cpp:104
        a[i] = i;
8000400a:	ed8e 1f24 	stc	15, cr1, [lr, #144]	@ 0x90
/Users/till/Documents/Studium/Module/2025_SoSe/Tests/alif_e7_tests/dotp_tests/main.cpp:105
        b[i] = i;
8000400e:	ed8d 1f24 	stc	15, cr1, [sp, #144]	@ 0x90
/Users/till/Documents/Studium/Module/2025_SoSe/Tests/alif_e7_tests/dotp_tests/main.cpp:104
        a[i] = i;
80004012:	ed90 1f00 	ldc	15, cr1, [r0]
80004016:	f20f 4008 	addw	r0, pc, #1032	@ 0x408
/Users/till/Documents/Studium/Module/2025_SoSe/Tests/alif_e7_tests/dotp_tests/main.cpp:111
    time = benchmark(dotp_reference, iterations, &result, a, b, &c, len);
8000401a:	4643      	mov	r3, r8
/Users/till/Documents/Studium/Module/2025_SoSe/Tests/alif_e7_tests/dotp_tests/main.cpp:104
        a[i] = i;
8000401c:	ed8e 1f28 	stc	15, cr1, [lr, #160]	@ 0xa0
/Users/till/Documents/Studium/Module/2025_SoSe/Tests/alif_e7_tests/dotp_tests/main.cpp:105
        b[i] = i;
80004020:	ed8d 1f28 	stc	15, cr1, [sp, #160]	@ 0xa0
/Users/till/Documents/Studium/Module/2025_SoSe/Tests/alif_e7_tests/dotp_tests/main.cpp:104
        a[i] = i;
80004024:	ed90 1f00 	ldc	15, cr1, [r0]
80004028:	f20f 4004 	addw	r0, pc, #1028	@ 0x404
8000402c:	ed8e 1f2c 	stc	15, cr1, [lr, #176]	@ 0xb0
/Users/till/Documents/Studium/Module/2025_SoSe/Tests/alif_e7_tests/dotp_tests/main.cpp:105
        b[i] = i;
80004030:	ed8d 1f2c 	stc	15, cr1, [sp, #176]	@ 0xb0
/Users/till/Documents/Studium/Module/2025_SoSe/Tests/alif_e7_tests/dotp_tests/main.cpp:104
        a[i] = i;
80004034:	ed90 1f00 	ldc	15, cr1, [r0]
80004038:	f20f 4004 	addw	r0, pc, #1028	@ 0x404
8000403c:	ed8e 1f30 	stc	15, cr1, [lr, #192]	@ 0xc0
/Users/till/Documents/Studium/Module/2025_SoSe/Tests/alif_e7_tests/dotp_tests/main.cpp:105
        b[i] = i;
80004040:	ed8d 1f30 	stc	15, cr1, [sp, #192]	@ 0xc0
/Users/till/Documents/Studium/Module/2025_SoSe/Tests/alif_e7_tests/dotp_tests/main.cpp:104
        a[i] = i;
80004044:	ed90 1f00 	ldc	15, cr1, [r0]
80004048:	f20f 4004 	addw	r0, pc, #1028	@ 0x404
8000404c:	ed8e 1f34 	stc	15, cr1, [lr, #208]	@ 0xd0
/Users/till/Documents/Studium/Module/2025_SoSe/Tests/alif_e7_tests/dotp_tests/main.cpp:105
        b[i] = i;
80004050:	ed8d 1f34 	stc	15, cr1, [sp, #208]	@ 0xd0
/Users/till/Documents/Studium/Module/2025_SoSe/Tests/alif_e7_tests/dotp_tests/main.cpp:104
        a[i] = i;
80004054:	ed90 1f00 	ldc	15, cr1, [r0]
80004058:	f20f 4004 	addw	r0, pc, #1028	@ 0x404
8000405c:	ed8e 1f38 	stc	15, cr1, [lr, #224]	@ 0xe0
/Users/till/Documents/Studium/Module/2025_SoSe/Tests/alif_e7_tests/dotp_tests/main.cpp:105
        b[i] = i;
80004060:	ed8d 1f38 	stc	15, cr1, [sp, #224]	@ 0xe0
/Users/till/Documents/Studium/Module/2025_SoSe/Tests/alif_e7_tests/dotp_tests/main.cpp:104
        a[i] = i;
80004064:	ed90 1f00 	ldc	15, cr1, [r0]
80004068:	f20f 4004 	addw	r0, pc, #1028	@ 0x404
8000406c:	ed8e 1f3c 	stc	15, cr1, [lr, #240]	@ 0xf0
/Users/till/Documents/Studium/Module/2025_SoSe/Tests/alif_e7_tests/dotp_tests/main.cpp:105
        b[i] = i;
80004070:	ed8d 1f3c 	stc	15, cr1, [sp, #240]	@ 0xf0
/Users/till/Documents/Studium/Module/2025_SoSe/Tests/alif_e7_tests/dotp_tests/main.cpp:104
        a[i] = i;
80004074:	ed90 1f00 	ldc	15, cr1, [r0]
80004078:	f20f 4004 	addw	r0, pc, #1028	@ 0x404
8000407c:	ed8e 1f40 	stc	15, cr1, [lr, #256]	@ 0x100
/Users/till/Documents/Studium/Module/2025_SoSe/Tests/alif_e7_tests/dotp_tests/main.cpp:105
        b[i] = i;
80004080:	ed8d 1f40 	stc	15, cr1, [sp, #256]	@ 0x100
/Users/till/Documents/Studium/Module/2025_SoSe/Tests/alif_e7_tests/dotp_tests/main.cpp:104
        a[i] = i;
80004084:	ed90 1f00 	ldc	15, cr1, [r0]
80004088:	f20f 4004 	addw	r0, pc, #1028	@ 0x404
8000408c:	ed8e 1f44 	stc	15, cr1, [lr, #272]	@ 0x110
/Users/till/Documents/Studium/Module/2025_SoSe/Tests/alif_e7_tests/dotp_tests/main.cpp:105
        b[i] = i;
80004090:	ed8d 1f44 	stc	15, cr1, [sp, #272]	@ 0x110
/Users/till/Documents/Studium/Module/2025_SoSe/Tests/alif_e7_tests/dotp_tests/main.cpp:104
        a[i] = i;
80004094:	ed90 1f00 	ldc	15, cr1, [r0]
80004098:	f20f 4004 	addw	r0, pc, #1028	@ 0x404
8000409c:	ed8e 1f48 	stc	15, cr1, [lr, #288]	@ 0x120
/Users/till/Documents/Studium/Module/2025_SoSe/Tests/alif_e7_tests/dotp_tests/main.cpp:105
        b[i] = i;
800040a0:	ed8d 1f48 	stc	15, cr1, [sp, #288]	@ 0x120
/Users/till/Documents/Studium/Module/2025_SoSe/Tests/alif_e7_tests/dotp_tests/main.cpp:104
        a[i] = i;
800040a4:	ed90 1f00 	ldc	15, cr1, [r0]
800040a8:	f20f 4004 	addw	r0, pc, #1028	@ 0x404
800040ac:	ed8e 1f4c 	stc	15, cr1, [lr, #304]	@ 0x130
/Users/till/Documents/Studium/Module/2025_SoSe/Tests/alif_e7_tests/dotp_tests/main.cpp:105
        b[i] = i;
800040b0:	ed8d 1f4c 	stc	15, cr1, [sp, #304]	@ 0x130
/Users/till/Documents/Studium/Module/2025_SoSe/Tests/alif_e7_tests/dotp_tests/main.cpp:104
        a[i] = i;
800040b4:	ed90 1f00 	ldc	15, cr1, [r0]
800040b8:	f20f 4004 	addw	r0, pc, #1028	@ 0x404
800040bc:	ed8e 1f50 	stc	15, cr1, [lr, #320]	@ 0x140
/Users/till/Documents/Studium/Module/2025_SoSe/Tests/alif_e7_tests/dotp_tests/main.cpp:105
        b[i] = i;
800040c0:	ed8d 1f50 	stc	15, cr1, [sp, #320]	@ 0x140
/Users/till/Documents/Studium/Module/2025_SoSe/Tests/alif_e7_tests/dotp_tests/main.cpp:104
        a[i] = i;
800040c4:	ed90 1f00 	ldc	15, cr1, [r0]
800040c8:	f20f 4004 	addw	r0, pc, #1028	@ 0x404
800040cc:	ed8e 1f54 	stc	15, cr1, [lr, #336]	@ 0x150
/Users/till/Documents/Studium/Module/2025_SoSe/Tests/alif_e7_tests/dotp_tests/main.cpp:105
        b[i] = i;
800040d0:	ed8d 1f54 	stc	15, cr1, [sp, #336]	@ 0x150
/Users/till/Documents/Studium/Module/2025_SoSe/Tests/alif_e7_tests/dotp_tests/main.cpp:104
        a[i] = i;
800040d4:	ed90 1f00 	ldc	15, cr1, [r0]
800040d8:	f20f 4004 	addw	r0, pc, #1028	@ 0x404
800040dc:	ed8e 1f58 	stc	15, cr1, [lr, #352]	@ 0x160
/Users/till/Documents/Studium/Module/2025_SoSe/Tests/alif_e7_tests/dotp_tests/main.cpp:105
        b[i] = i;
800040e0:	ed8d 1f58 	stc	15, cr1, [sp, #352]	@ 0x160
/Users/till/Documents/Studium/Module/2025_SoSe/Tests/alif_e7_tests/dotp_tests/main.cpp:104
        a[i] = i;
800040e4:	ed90 1f00 	ldc	15, cr1, [r0]
800040e8:	f20f 4004 	addw	r0, pc, #1028	@ 0x404
800040ec:	ed8e 1f5c 	stc	15, cr1, [lr, #368]	@ 0x170
/Users/till/Documents/Studium/Module/2025_SoSe/Tests/alif_e7_tests/dotp_tests/main.cpp:105
        b[i] = i;
800040f0:	ed8d 1f5c 	stc	15, cr1, [sp, #368]	@ 0x170
/Users/till/Documents/Studium/Module/2025_SoSe/Tests/alif_e7_tests/dotp_tests/main.cpp:104
        a[i] = i;
800040f4:	ed90 1f00 	ldc	15, cr1, [r0]
800040f8:	f20f 4004 	addw	r0, pc, #1028	@ 0x404
800040fc:	ed8e 1f60 	stc	15, cr1, [lr, #384]	@ 0x180
/Users/till/Documents/Studium/Module/2025_SoSe/Tests/alif_e7_tests/dotp_tests/main.cpp:105
        b[i] = i;
80004100:	ed8d 1f60 	stc	15, cr1, [sp, #384]	@ 0x180
/Users/till/Documents/Studium/Module/2025_SoSe/Tests/alif_e7_tests/dotp_tests/main.cpp:104
        a[i] = i;
80004104:	ed90 1f00 	ldc	15, cr1, [r0]
80004108:	f20f 4004 	addw	r0, pc, #1028	@ 0x404
8000410c:	ed8e 1f64 	stc	15, cr1, [lr, #400]	@ 0x190
/Users/till/Documents/Studium/Module/2025_SoSe/Tests/alif_e7_tests/dotp_tests/main.cpp:105
        b[i] = i;
80004110:	ed8d 1f64 	stc	15, cr1, [sp, #400]	@ 0x190
/Users/till/Documents/Studium/Module/2025_SoSe/Tests/alif_e7_tests/dotp_tests/main.cpp:104
        a[i] = i;
80004114:	ed90 1f00 	ldc	15, cr1, [r0]
80004118:	f20f 4004 	addw	r0, pc, #1028	@ 0x404
8000411c:	ed8e 1f68 	stc	15, cr1, [lr, #416]	@ 0x1a0
/Users/till/Documents/Studium/Module/2025_SoSe/Tests/alif_e7_tests/dotp_tests/main.cpp:105
        b[i] = i;
80004120:	ed8d 1f68 	stc	15, cr1, [sp, #416]	@ 0x1a0
/Users/till/Documents/Studium/Module/2025_SoSe/Tests/alif_e7_tests/dotp_tests/main.cpp:104
        a[i] = i;
80004124:	ed90 1f00 	ldc	15, cr1, [r0]
80004128:	f20f 4004 	addw	r0, pc, #1028	@ 0x404
8000412c:	ed8e 1f6c 	stc	15, cr1, [lr, #432]	@ 0x1b0
/Users/till/Documents/Studium/Module/2025_SoSe/Tests/alif_e7_tests/dotp_tests/main.cpp:105
        b[i] = i;
80004130:	ed8d 1f6c 	stc	15, cr1, [sp, #432]	@ 0x1b0
/Users/till/Documents/Studium/Module/2025_SoSe/Tests/alif_e7_tests/dotp_tests/main.cpp:104
        a[i] = i;
80004134:	ed90 1f00 	ldc	15, cr1, [r0]
80004138:	f20f 4004 	addw	r0, pc, #1028	@ 0x404
8000413c:	ed8e 1f70 	stc	15, cr1, [lr, #448]	@ 0x1c0
/Users/till/Documents/Studium/Module/2025_SoSe/Tests/alif_e7_tests/dotp_tests/main.cpp:105
        b[i] = i;
80004140:	ed8d 1f70 	stc	15, cr1, [sp, #448]	@ 0x1c0
/Users/till/Documents/Studium/Module/2025_SoSe/Tests/alif_e7_tests/dotp_tests/main.cpp:104
        a[i] = i;
80004144:	ed90 1f00 	ldc	15, cr1, [r0]
80004148:	f20f 4004 	addw	r0, pc, #1028	@ 0x404
8000414c:	ed8e 1f74 	stc	15, cr1, [lr, #464]	@ 0x1d0
/Users/till/Documents/Studium/Module/2025_SoSe/Tests/alif_e7_tests/dotp_tests/main.cpp:105
        b[i] = i;
80004150:	ed8d 1f74 	stc	15, cr1, [sp, #464]	@ 0x1d0
/Users/till/Documents/Studium/Module/2025_SoSe/Tests/alif_e7_tests/dotp_tests/main.cpp:104
        a[i] = i;
80004154:	ed90 1f00 	ldc	15, cr1, [r0]
80004158:	f20f 4004 	addw	r0, pc, #1028	@ 0x404
8000415c:	ed8e 1f78 	stc	15, cr1, [lr, #480]	@ 0x1e0
/Users/till/Documents/Studium/Module/2025_SoSe/Tests/alif_e7_tests/dotp_tests/main.cpp:105
        b[i] = i;
80004160:	ed8d 1f78 	stc	15, cr1, [sp, #480]	@ 0x1e0
/Users/till/Documents/Studium/Module/2025_SoSe/Tests/alif_e7_tests/dotp_tests/main.cpp:104
        a[i] = i;
80004164:	ed90 1f00 	ldc	15, cr1, [r0]
80004168:	f20f 4004 	addw	r0, pc, #1028	@ 0x404
8000416c:	ed8e 1f7c 	stc	15, cr1, [lr, #496]	@ 0x1f0
/Users/till/Documents/Studium/Module/2025_SoSe/Tests/alif_e7_tests/dotp_tests/main.cpp:105
        b[i] = i;
80004170:	ed8d 1f7c 	stc	15, cr1, [sp, #496]	@ 0x1f0
/Users/till/Documents/Studium/Module/2025_SoSe/Tests/alif_e7_tests/dotp_tests/main.cpp:104
        a[i] = i;
80004174:	ed90 1f00 	ldc	15, cr1, [r0]
80004178:	f50d 6e80 	add.w	lr, sp, #1024	@ 0x400
8000417c:	f20f 4000 	addw	r0, pc, #1024	@ 0x400
80004180:	ed8e 1f00 	stc	15, cr1, [lr]
/Users/till/Documents/Studium/Module/2025_SoSe/Tests/alif_e7_tests/dotp_tests/main.cpp:105
        b[i] = i;
80004184:	f50d 7e00 	add.w	lr, sp, #512	@ 0x200
80004188:	f2c0 0501 	movt	r5, #1
8000418c:	ed8e 1f00 	stc	15, cr1, [lr]
/Users/till/Documents/Studium/Module/2025_SoSe/Tests/alif_e7_tests/dotp_tests/main.cpp:104
        a[i] = i;
80004190:	ed90 1f00 	ldc	15, cr1, [r0]
80004194:	f50d 6e80 	add.w	lr, sp, #1024	@ 0x400
/Users/till/Documents/Studium/Module/2025_SoSe/Tests/alif_e7_tests/dotp_tests/main.cpp:111
    time = benchmark(dotp_reference, iterations, &result, a, b, &c, len);
80004198:	f243 7031 	movw	r0, #14129	@ 0x3731
/Users/till/Documents/Studium/Module/2025_SoSe/Tests/alif_e7_tests/dotp_tests/main.cpp:104
        a[i] = i;
8000419c:	ed8e 1f04 	stc	15, cr1, [lr, #16]
/Users/till/Documents/Studium/Module/2025_SoSe/Tests/alif_e7_tests/dotp_tests/main.cpp:105
        b[i] = i;
800041a0:	f50d 7e00 	add.w	lr, sp, #512	@ 0x200
/Users/till/Documents/Studium/Module/2025_SoSe/Tests/alif_e7_tests/dotp_tests/main.cpp:111
    time = benchmark(dotp_reference, iterations, &result, a, b, &c, len);
800041a4:	f2c8 0000 	movt	r0, #32768	@ 0x8000
800041a8:	4629      	mov	r1, r5
/Users/till/Documents/Studium/Module/2025_SoSe/Tests/alif_e7_tests/dotp_tests/main.cpp:101
    float32_t c = 0;
800041aa:	9407      	str	r4, [sp, #28]
/Users/till/Documents/Studium/Module/2025_SoSe/Tests/alif_e7_tests/dotp_tests/main.cpp:105
        b[i] = i;
800041ac:	ed8e 1f04 	stc	15, cr1, [lr, #16]
/Users/till/Documents/Studium/Module/2025_SoSe/Tests/alif_e7_tests/dotp_tests/main.cpp:111
    time = benchmark(dotp_reference, iterations, &result, a, b, &c, len);
800041b0:	e9cd 9700 	strd	r9, r7, [sp]
800041b4:	f8cd a008 	str.w	sl, [sp, #8]
800041b8:	f7ff fc24 	bl	80003a04 <unsigned int benchmark<float (*)(float const*, float const*, float*, unsigned int), float*, float*, float*, float*>(float (*)(float const*, float const*, float*, unsigned int), unsigned int, float*, float*, float*, float*, unsigned int)>
800041bc:	4601      	mov	r1, r0
/Users/till/Documents/Studium/Module/2025_SoSe/Tests/alif_e7_tests/dotp_tests/main.cpp:113
    gflops = ((iterations * len * 2 * 1000.0f)  / time) / 1000000000.0f;
    printf("C Reference (%d): %f, %f, %f\r\n", time, c, result, gflops);
800041be:	f645 7027 	movw	r0, #24359	@ 0x5f27
/Users/till/Documents/Studium/Module/2025_SoSe/Tests/alif_e7_tests/dotp_tests/main.cpp:112
    gflops = ((iterations * len * 2 * 1000.0f)  / time) / 1000000000.0f;
800041c2:	ee00 1a10 	vmov	s0, r1
800041c6:	ed9f 8af2 	vldr	s16, [pc, #968]	@ 80004590 <main+0x640>
800041ca:	eeb8 0a40 	vcvt.f32.u32	s0, s0
800041ce:	ed9f 9af1 	vldr	s18, [pc, #964]	@ 80004594 <main+0x644>
800041d2:	ee88 0a00 	vdiv.f32	s0, s16, s0
/Users/till/Documents/Studium/Module/2025_SoSe/Tests/alif_e7_tests/dotp_tests/main.cpp:113
    printf("C Reference (%d): %f, %f, %f\r\n", time, c, result, gflops);
800041d6:	ed9d 1a07 	vldr	s2, [sp, #28]
800041da:	ed9d 2a06 	vldr	s4, [sp, #24]
800041de:	eeb7 1ac1 	vcvt.f64.f32	d1, s2
800041e2:	eeb7 2ac2 	vcvt.f64.f32	d2, s4
800041e6:	ec53 2b11 	vmov	r2, r3, d1
800041ea:	f2c8 0000 	movt	r0, #32768	@ 0x8000
800041ee:	ed8d 2b00 	vstr	d2, [sp]
/Users/till/Documents/Studium/Module/2025_SoSe/Tests/alif_e7_tests/dotp_tests/main.cpp:112
    gflops = ((iterations * len * 2 * 1000.0f)  / time) / 1000000000.0f;
800041f2:	ee80 0a09 	vdiv.f32	s0, s0, s18
/Users/till/Documents/Studium/Module/2025_SoSe/Tests/alif_e7_tests/dotp_tests/main.cpp:113
    printf("C Reference (%d): %f, %f, %f\r\n", time, c, result, gflops);
800041f6:	eeb7 0ac0 	vcvt.f64.f32	d0, s0
800041fa:	ed8d 0b02 	vstr	d0, [sp, #8]
800041fe:	f7fc fb9d 	bl	8000093c <__2printf>
/Users/till/Documents/Studium/Module/2025_SoSe/Tests/alif_e7_tests/dotp_tests/main.cpp:115
    c = 0;
    RTC_Sleep(500);
80004202:	f44f 70fa 	mov.w	r0, #500	@ 0x1f4
/Users/till/Documents/Studium/Module/2025_SoSe/Tests/alif_e7_tests/dotp_tests/main.cpp:114
    c = 0;
80004206:	9407      	str	r4, [sp, #28]
/Users/till/Documents/Studium/Module/2025_SoSe/Tests/alif_e7_tests/dotp_tests/main.cpp:115
    RTC_Sleep(500);
80004208:	f7ff fbb2 	bl	80003970 <RTC_Sleep(unsigned int)>
/Users/till/Documents/Studium/Module/2025_SoSe/Tests/alif_e7_tests/dotp_tests/main.cpp:117

    time = benchmark(dotp_scalar_intrinsic, iterations, &result, a, b, &c, len);
8000420c:	f643 00a5 	movw	r0, #14501	@ 0x38a5
80004210:	4629      	mov	r1, r5
80004212:	f2c8 0000 	movt	r0, #32768	@ 0x8000
80004216:	4632      	mov	r2, r6
80004218:	4643      	mov	r3, r8
8000421a:	f8cd a008 	str.w	sl, [sp, #8]
8000421e:	e9cd 9700 	strd	r9, r7, [sp]
80004222:	f7ff fbef 	bl	80003a04 <unsigned int benchmark<float (*)(float const*, float const*, float*, unsigned int), float*, float*, float*, float*>(float (*)(float const*, float const*, float*, unsigned int), unsigned int, float*, float*, float*, float*, unsigned int)>
80004226:	4601      	mov	r1, r0
/Users/till/Documents/Studium/Module/2025_SoSe/Tests/alif_e7_tests/dotp_tests/main.cpp:119
    gflops = ((iterations * len * 2 * 1000.0f)  / time) / 1000000000;
    printf("Scalar Intrinsic (%d): %f, %f, %f\r\n", time, c, result, gflops);
80004228:	a0db      	add	r0, pc, #876	@ (adr r0, 80004598 <main+0x648>)
/Users/till/Documents/Studium/Module/2025_SoSe/Tests/alif_e7_tests/dotp_tests/main.cpp:118
    gflops = ((iterations * len * 2 * 1000.0f)  / time) / 1000000000;
8000422a:	ee00 1a10 	vmov	s0, r1
/Users/till/Documents/Studium/Module/2025_SoSe/Tests/alif_e7_tests/dotp_tests/main.cpp:119
    printf("Scalar Intrinsic (%d): %f, %f, %f\r\n", time, c, result, gflops);
8000422e:	ed9d 1a07 	vldr	s2, [sp, #28]
/Users/till/Documents/Studium/Module/2025_SoSe/Tests/alif_e7_tests/dotp_tests/main.cpp:118
    gflops = ((iterations * len * 2 * 1000.0f)  / time) / 1000000000;
80004232:	eeb8 0a40 	vcvt.f32.u32	s0, s0
/Users/till/Documents/Studium/Module/2025_SoSe/Tests/alif_e7_tests/dotp_tests/main.cpp:119
    printf("Scalar Intrinsic (%d): %f, %f, %f\r\n", time, c, result, gflops);
80004236:	ed9d 2a06 	vldr	s4, [sp, #24]
/Users/till/Documents/Studium/Module/2025_SoSe/Tests/alif_e7_tests/dotp_tests/main.cpp:118
    gflops = ((iterations * len * 2 * 1000.0f)  / time) / 1000000000;
8000423a:	ee88 0a00 	vdiv.f32	s0, s16, s0
/Users/till/Documents/Studium/Module/2025_SoSe/Tests/alif_e7_tests/dotp_tests/main.cpp:119
    printf("Scalar Intrinsic (%d): %f, %f, %f\r\n", time, c, result, gflops);
8000423e:	eeb7 1ac1 	vcvt.f64.f32	d1, s2
80004242:	eeb7 2ac2 	vcvt.f64.f32	d2, s4
80004246:	ec53 2b11 	vmov	r2, r3, d1
8000424a:	ed8d 2b00 	vstr	d2, [sp]
/Users/till/Documents/Studium/Module/2025_SoSe/Tests/alif_e7_tests/dotp_tests/main.cpp:118
    gflops = ((iterations * len * 2 * 1000.0f)  / time) / 1000000000;
8000424e:	ee80 0a09 	vdiv.f32	s0, s0, s18
/Users/till/Documents/Studium/Module/2025_SoSe/Tests/alif_e7_tests/dotp_tests/main.cpp:119
    printf("Scalar Intrinsic (%d): %f, %f, %f\r\n", time, c, result, gflops);
80004252:	eeb7 0ac0 	vcvt.f64.f32	d0, s0
80004256:	ed8d 0b02 	vstr	d0, [sp, #8]
8000425a:	f7fc fb6f 	bl	8000093c <__2printf>
/Users/till/Documents/Studium/Module/2025_SoSe/Tests/alif_e7_tests/dotp_tests/main.cpp:121
    c = 0;    
    RTC_Sleep(500);
8000425e:	f44f 70fa 	mov.w	r0, #500	@ 0x1f4
/Users/till/Documents/Studium/Module/2025_SoSe/Tests/alif_e7_tests/dotp_tests/main.cpp:120
    c = 0;    
80004262:	9407      	str	r4, [sp, #28]
/Users/till/Documents/Studium/Module/2025_SoSe/Tests/alif_e7_tests/dotp_tests/main.cpp:121
    RTC_Sleep(500);
80004264:	f7ff fb84 	bl	80003970 <RTC_Sleep(unsigned int)>
/Users/till/Documents/Studium/Module/2025_SoSe/Tests/alif_e7_tests/dotp_tests/main.cpp:123

    time = benchmark(dotp_mve_intrinsic, iterations, &result, a, b, &c, len);
80004268:	f643 004d 	movw	r0, #14413	@ 0x384d
8000426c:	4629      	mov	r1, r5
8000426e:	f2c8 0000 	movt	r0, #32768	@ 0x8000
80004272:	4632      	mov	r2, r6
80004274:	4643      	mov	r3, r8
80004276:	f8cd a008 	str.w	sl, [sp, #8]
8000427a:	e9cd 9700 	strd	r9, r7, [sp]
8000427e:	f7ff fbc1 	bl	80003a04 <unsigned int benchmark<float (*)(float const*, float const*, float*, unsigned int), float*, float*, float*, float*>(float (*)(float const*, float const*, float*, unsigned int), unsigned int, float*, float*, float*, float*, unsigned int)>
80004282:	4601      	mov	r1, r0
/Users/till/Documents/Studium/Module/2025_SoSe/Tests/alif_e7_tests/dotp_tests/main.cpp:125
    gflops = ((iterations * len * 2 * 1000.0f)  / time) / 1000000000.0f;
    printf("MVE Intrinsic (%d): %f, %f, %f\r\n", time, c, result, gflops);
80004284:	a0cd      	add	r0, pc, #820	@ (adr r0, 800045bc <main+0x66c>)
/Users/till/Documents/Studium/Module/2025_SoSe/Tests/alif_e7_tests/dotp_tests/main.cpp:124
    gflops = ((iterations * len * 2 * 1000.0f)  / time) / 1000000000.0f;
80004286:	ee00 1a10 	vmov	s0, r1
/Users/till/Documents/Studium/Module/2025_SoSe/Tests/alif_e7_tests/dotp_tests/main.cpp:125
    printf("MVE Intrinsic (%d): %f, %f, %f\r\n", time, c, result, gflops);
8000428a:	ed9d 1a07 	vldr	s2, [sp, #28]
/Users/till/Documents/Studium/Module/2025_SoSe/Tests/alif_e7_tests/dotp_tests/main.cpp:124
    gflops = ((iterations * len * 2 * 1000.0f)  / time) / 1000000000.0f;
8000428e:	eeb8 0a40 	vcvt.f32.u32	s0, s0
/Users/till/Documents/Studium/Module/2025_SoSe/Tests/alif_e7_tests/dotp_tests/main.cpp:125
    printf("MVE Intrinsic (%d): %f, %f, %f\r\n", time, c, result, gflops);
80004292:	ed9d 2a06 	vldr	s4, [sp, #24]
/Users/till/Documents/Studium/Module/2025_SoSe/Tests/alif_e7_tests/dotp_tests/main.cpp:124
    gflops = ((iterations * len * 2 * 1000.0f)  / time) / 1000000000.0f;
80004296:	ee88 0a00 	vdiv.f32	s0, s16, s0
/Users/till/Documents/Studium/Module/2025_SoSe/Tests/alif_e7_tests/dotp_tests/main.cpp:125
    printf("MVE Intrinsic (%d): %f, %f, %f\r\n", time, c, result, gflops);
8000429a:	eeb7 1ac1 	vcvt.f64.f32	d1, s2
8000429e:	eeb7 2ac2 	vcvt.f64.f32	d2, s4
800042a2:	ec53 2b11 	vmov	r2, r3, d1
800042a6:	ed8d 2b00 	vstr	d2, [sp]
/Users/till/Documents/Studium/Module/2025_SoSe/Tests/alif_e7_tests/dotp_tests/main.cpp:124
    gflops = ((iterations * len * 2 * 1000.0f)  / time) / 1000000000.0f;
800042aa:	ee80 0a09 	vdiv.f32	s0, s0, s18
/Users/till/Documents/Studium/Module/2025_SoSe/Tests/alif_e7_tests/dotp_tests/main.cpp:125
    printf("MVE Intrinsic (%d): %f, %f, %f\r\n", time, c, result, gflops);
800042ae:	eeb7 0ac0 	vcvt.f64.f32	d0, s0
800042b2:	ed8d 0b02 	vstr	d0, [sp, #8]
800042b6:	f7fc fb41 	bl	8000093c <__2printf>
/Users/till/Documents/Studium/Module/2025_SoSe/Tests/alif_e7_tests/dotp_tests/main.cpp:127
    c = 0;
    RTC_Sleep(500);
800042ba:	f44f 70fa 	mov.w	r0, #500	@ 0x1f4
/Users/till/Documents/Studium/Module/2025_SoSe/Tests/alif_e7_tests/dotp_tests/main.cpp:126
    c = 0;
800042be:	9407      	str	r4, [sp, #28]
/Users/till/Documents/Studium/Module/2025_SoSe/Tests/alif_e7_tests/dotp_tests/main.cpp:127
    RTC_Sleep(500);
800042c0:	f7ff fb56 	bl	80003970 <RTC_Sleep(unsigned int)>
/Users/till/Documents/Studium/Module/2025_SoSe/Tests/alif_e7_tests/dotp_tests/main.cpp:129

    time = benchmark(dotp_scalar, iterations, &result, a, b, &c, len);
800042c4:	f640 1011 	movw	r0, #2321	@ 0x911
800042c8:	4629      	mov	r1, r5
800042ca:	f2c8 0000 	movt	r0, #32768	@ 0x8000
800042ce:	4632      	mov	r2, r6
800042d0:	4643      	mov	r3, r8
800042d2:	f8cd a008 	str.w	sl, [sp, #8]
800042d6:	e9cd 9700 	strd	r9, r7, [sp]
800042da:	f7ff fb93 	bl	80003a04 <unsigned int benchmark<float (*)(float const*, float const*, float*, unsigned int), float*, float*, float*, float*>(float (*)(float const*, float const*, float*, unsigned int), unsigned int, float*, float*, float*, float*, unsigned int)>
800042de:	4601      	mov	r1, r0
/Users/till/Documents/Studium/Module/2025_SoSe/Tests/alif_e7_tests/dotp_tests/main.cpp:131
    gflops = ((iterations * len * 2 * 1000.0f)  / time) / 1000000000.0f;
    printf("ASM Scalar (%d): %f, %f, %f\r\n", time, c, result, gflops);
800042e0:	a0bf      	add	r0, pc, #764	@ (adr r0, 800045e0 <main+0x690>)
/Users/till/Documents/Studium/Module/2025_SoSe/Tests/alif_e7_tests/dotp_tests/main.cpp:130
    gflops = ((iterations * len * 2 * 1000.0f)  / time) / 1000000000.0f;
800042e2:	ee00 1a10 	vmov	s0, r1
/Users/till/Documents/Studium/Module/2025_SoSe/Tests/alif_e7_tests/dotp_tests/main.cpp:131
    printf("ASM Scalar (%d): %f, %f, %f\r\n", time, c, result, gflops);
800042e6:	ed9d 1a07 	vldr	s2, [sp, #28]
/Users/till/Documents/Studium/Module/2025_SoSe/Tests/alif_e7_tests/dotp_tests/main.cpp:130
    gflops = ((iterations * len * 2 * 1000.0f)  / time) / 1000000000.0f;
800042ea:	eeb8 0a40 	vcvt.f32.u32	s0, s0
/Users/till/Documents/Studium/Module/2025_SoSe/Tests/alif_e7_tests/dotp_tests/main.cpp:131
    printf("ASM Scalar (%d): %f, %f, %f\r\n", time, c, result, gflops);
800042ee:	ed9d 2a06 	vldr	s4, [sp, #24]
/Users/till/Documents/Studium/Module/2025_SoSe/Tests/alif_e7_tests/dotp_tests/main.cpp:130
    gflops = ((iterations * len * 2 * 1000.0f)  / time) / 1000000000.0f;
800042f2:	ee88 0a00 	vdiv.f32	s0, s16, s0
/Users/till/Documents/Studium/Module/2025_SoSe/Tests/alif_e7_tests/dotp_tests/main.cpp:131
    printf("ASM Scalar (%d): %f, %f, %f\r\n", time, c, result, gflops);
800042f6:	eeb7 1ac1 	vcvt.f64.f32	d1, s2
800042fa:	eeb7 2ac2 	vcvt.f64.f32	d2, s4
800042fe:	ec53 2b11 	vmov	r2, r3, d1
80004302:	ed8d 2b00 	vstr	d2, [sp]
/Users/till/Documents/Studium/Module/2025_SoSe/Tests/alif_e7_tests/dotp_tests/main.cpp:130
    gflops = ((iterations * len * 2 * 1000.0f)  / time) / 1000000000.0f;
80004306:	ee80 0a09 	vdiv.f32	s0, s0, s18
/Users/till/Documents/Studium/Module/2025_SoSe/Tests/alif_e7_tests/dotp_tests/main.cpp:131
    printf("ASM Scalar (%d): %f, %f, %f\r\n", time, c, result, gflops);
8000430a:	eeb7 0ac0 	vcvt.f64.f32	d0, s0
8000430e:	ed8d 0b02 	vstr	d0, [sp, #8]
80004312:	f7fc fb13 	bl	8000093c <__2printf>
/Users/till/Documents/Studium/Module/2025_SoSe/Tests/alif_e7_tests/dotp_tests/main.cpp:134

    c = 0;
    RTC_Sleep(500);
80004316:	f44f 70fa 	mov.w	r0, #500	@ 0x1f4
/Users/till/Documents/Studium/Module/2025_SoSe/Tests/alif_e7_tests/dotp_tests/main.cpp:133
    c = 0;
8000431a:	9407      	str	r4, [sp, #28]
/Users/till/Documents/Studium/Module/2025_SoSe/Tests/alif_e7_tests/dotp_tests/main.cpp:134
    RTC_Sleep(500);
8000431c:	f7ff fb28 	bl	80003970 <RTC_Sleep(unsigned int)>
/Users/till/Documents/Studium/Module/2025_SoSe/Tests/alif_e7_tests/dotp_tests/main.cpp:135
    time = benchmark(dotp_mve, iterations, &result, a, b, &c,  len);
80004320:	f640 00e1 	movw	r0, #2273	@ 0x8e1
80004324:	4629      	mov	r1, r5
80004326:	f2c8 0000 	movt	r0, #32768	@ 0x8000
8000432a:	4632      	mov	r2, r6
8000432c:	4643      	mov	r3, r8
8000432e:	f8cd a008 	str.w	sl, [sp, #8]
80004332:	e9cd 9700 	strd	r9, r7, [sp]
80004336:	f7ff fb65 	bl	80003a04 <unsigned int benchmark<float (*)(float const*, float const*, float*, unsigned int), float*, float*, float*, float*>(float (*)(float const*, float const*, float*, unsigned int), unsigned int, float*, float*, float*, float*, unsigned int)>
8000433a:	4601      	mov	r1, r0
/Users/till/Documents/Studium/Module/2025_SoSe/Tests/alif_e7_tests/dotp_tests/main.cpp:137
    gflops = ((iterations * len * 2 * 1000.0f)  / time) / 1000000000.0f;
    printf("ASM MVE (%d): %f, %f, %f\r\n", time, c, result, gflops);
8000433c:	a0b0      	add	r0, pc, #704	@ (adr r0, 80004600 <main+0x6b0>)
/Users/till/Documents/Studium/Module/2025_SoSe/Tests/alif_e7_tests/dotp_tests/main.cpp:136
    gflops = ((iterations * len * 2 * 1000.0f)  / time) / 1000000000.0f;
8000433e:	ee00 1a10 	vmov	s0, r1
/Users/till/Documents/Studium/Module/2025_SoSe/Tests/alif_e7_tests/dotp_tests/main.cpp:137
    printf("ASM MVE (%d): %f, %f, %f\r\n", time, c, result, gflops);
80004342:	ed9d 1a07 	vldr	s2, [sp, #28]
/Users/till/Documents/Studium/Module/2025_SoSe/Tests/alif_e7_tests/dotp_tests/main.cpp:136
    gflops = ((iterations * len * 2 * 1000.0f)  / time) / 1000000000.0f;
80004346:	eeb8 0a40 	vcvt.f32.u32	s0, s0
/Users/till/Documents/Studium/Module/2025_SoSe/Tests/alif_e7_tests/dotp_tests/main.cpp:137
    printf("ASM MVE (%d): %f, %f, %f\r\n", time, c, result, gflops);
8000434a:	ed9d 2a06 	vldr	s4, [sp, #24]
/Users/till/Documents/Studium/Module/2025_SoSe/Tests/alif_e7_tests/dotp_tests/main.cpp:136
    gflops = ((iterations * len * 2 * 1000.0f)  / time) / 1000000000.0f;
8000434e:	ee88 0a00 	vdiv.f32	s0, s16, s0
/Users/till/Documents/Studium/Module/2025_SoSe/Tests/alif_e7_tests/dotp_tests/main.cpp:137
    printf("ASM MVE (%d): %f, %f, %f\r\n", time, c, result, gflops);
80004352:	eeb7 1ac1 	vcvt.f64.f32	d1, s2
80004356:	eeb7 2ac2 	vcvt.f64.f32	d2, s4
8000435a:	ec53 2b11 	vmov	r2, r3, d1
8000435e:	ed8d 2b00 	vstr	d2, [sp]
/Users/till/Documents/Studium/Module/2025_SoSe/Tests/alif_e7_tests/dotp_tests/main.cpp:136
    gflops = ((iterations * len * 2 * 1000.0f)  / time) / 1000000000.0f;
80004362:	ee80 0a09 	vdiv.f32	s0, s0, s18
/Users/till/Documents/Studium/Module/2025_SoSe/Tests/alif_e7_tests/dotp_tests/main.cpp:137
    printf("ASM MVE (%d): %f, %f, %f\r\n", time, c, result, gflops);
80004366:	eeb7 0ac0 	vcvt.f64.f32	d0, s0
8000436a:	ed8d 0b02 	vstr	d0, [sp, #8]
8000436e:	f7fc fae5 	bl	8000093c <__2printf>
/Users/till/Documents/Studium/Module/2025_SoSe/Tests/alif_e7_tests/dotp_tests/main.cpp:139

    stopTests();
80004372:	f7ff fb6b 	bl	80003a4c <stopTests()>
80004376:	bf00      	nop
/Users/till/Documents/Studium/Module/2025_SoSe/Tests/alif_e7_tests/dotp_tests/main.cpp:141

    while (1) __WFE();
80004378:	bf20      	wfe
8000437a:	bf20      	wfe
8000437c:	bf20      	wfe
8000437e:	bf20      	wfe
80004380:	e7fa      	b.n	80004378 <main+0x428>
80004382:	bf00      	nop
80004384:	bf00      	nop
80004386:	bf00      	nop
80004388:	bf00      	nop
8000438a:	bf00      	nop
8000438c:	bf00      	nop
8000438e:	bf00      	nop
80004390:	00000000 	.word	0x00000000
80004394:	3f800000 	.word	0x3f800000
80004398:	40000000 	.word	0x40000000
8000439c:	40400000 	.word	0x40400000
800043a0:	40800000 	.word	0x40800000
800043a4:	40a00000 	.word	0x40a00000
800043a8:	40c00000 	.word	0x40c00000
800043ac:	40e00000 	.word	0x40e00000
800043b0:	41000000 	.word	0x41000000
800043b4:	41100000 	.word	0x41100000
800043b8:	41200000 	.word	0x41200000
800043bc:	41300000 	.word	0x41300000
800043c0:	41400000 	.word	0x41400000
800043c4:	41500000 	.word	0x41500000
800043c8:	41600000 	.word	0x41600000
800043cc:	41700000 	.word	0x41700000
800043d0:	41800000 	.word	0x41800000
800043d4:	41880000 	.word	0x41880000
800043d8:	41900000 	.word	0x41900000
800043dc:	41980000 	.word	0x41980000
800043e0:	41a00000 	.word	0x41a00000
800043e4:	41a80000 	.word	0x41a80000
800043e8:	41b00000 	.word	0x41b00000
800043ec:	41b80000 	.word	0x41b80000
800043f0:	41c00000 	.word	0x41c00000
800043f4:	41c80000 	.word	0x41c80000
800043f8:	41d00000 	.word	0x41d00000
800043fc:	41d80000 	.word	0x41d80000
80004400:	41e00000 	.word	0x41e00000
80004404:	41e80000 	.word	0x41e80000
80004408:	41f00000 	.word	0x41f00000
8000440c:	41f80000 	.word	0x41f80000
80004410:	42000000 	.word	0x42000000
80004414:	42040000 	.word	0x42040000
80004418:	42080000 	.word	0x42080000
8000441c:	420c0000 	.word	0x420c0000
80004420:	42100000 	.word	0x42100000
80004424:	42140000 	.word	0x42140000
80004428:	42180000 	.word	0x42180000
8000442c:	421c0000 	.word	0x421c0000
80004430:	42200000 	.word	0x42200000
80004434:	42240000 	.word	0x42240000
80004438:	42280000 	.word	0x42280000
8000443c:	422c0000 	.word	0x422c0000
80004440:	42300000 	.word	0x42300000
80004444:	42340000 	.word	0x42340000
80004448:	42380000 	.word	0x42380000
8000444c:	423c0000 	.word	0x423c0000
80004450:	42400000 	.word	0x42400000
80004454:	42440000 	.word	0x42440000
80004458:	42480000 	.word	0x42480000
8000445c:	424c0000 	.word	0x424c0000
80004460:	42500000 	.word	0x42500000
80004464:	42540000 	.word	0x42540000
80004468:	42580000 	.word	0x42580000
8000446c:	425c0000 	.word	0x425c0000
80004470:	42600000 	.word	0x42600000
80004474:	42640000 	.word	0x42640000
80004478:	42680000 	.word	0x42680000
8000447c:	426c0000 	.word	0x426c0000
80004480:	42700000 	.word	0x42700000
80004484:	42740000 	.word	0x42740000
80004488:	42780000 	.word	0x42780000
8000448c:	427c0000 	.word	0x427c0000
80004490:	42800000 	.word	0x42800000
80004494:	42820000 	.word	0x42820000
80004498:	42840000 	.word	0x42840000
8000449c:	42860000 	.word	0x42860000
800044a0:	42880000 	.word	0x42880000
800044a4:	428a0000 	.word	0x428a0000
800044a8:	428c0000 	.word	0x428c0000
800044ac:	428e0000 	.word	0x428e0000
800044b0:	42900000 	.word	0x42900000
800044b4:	42920000 	.word	0x42920000
800044b8:	42940000 	.word	0x42940000
800044bc:	42960000 	.word	0x42960000
800044c0:	42980000 	.word	0x42980000
800044c4:	429a0000 	.word	0x429a0000
800044c8:	429c0000 	.word	0x429c0000
800044cc:	429e0000 	.word	0x429e0000
800044d0:	42a00000 	.word	0x42a00000
800044d4:	42a20000 	.word	0x42a20000
800044d8:	42a40000 	.word	0x42a40000
800044dc:	42a60000 	.word	0x42a60000
800044e0:	42a80000 	.word	0x42a80000
800044e4:	42aa0000 	.word	0x42aa0000
800044e8:	42ac0000 	.word	0x42ac0000
800044ec:	42ae0000 	.word	0x42ae0000
800044f0:	42b00000 	.word	0x42b00000
800044f4:	42b20000 	.word	0x42b20000
800044f8:	42b40000 	.word	0x42b40000
800044fc:	42b60000 	.word	0x42b60000
80004500:	42b80000 	.word	0x42b80000
80004504:	42ba0000 	.word	0x42ba0000
80004508:	42bc0000 	.word	0x42bc0000
8000450c:	42be0000 	.word	0x42be0000
80004510:	42c00000 	.word	0x42c00000
80004514:	42c20000 	.word	0x42c20000
80004518:	42c40000 	.word	0x42c40000
8000451c:	42c60000 	.word	0x42c60000
80004520:	42c80000 	.word	0x42c80000
80004524:	42ca0000 	.word	0x42ca0000
80004528:	42cc0000 	.word	0x42cc0000
8000452c:	42ce0000 	.word	0x42ce0000
80004530:	42d00000 	.word	0x42d00000
80004534:	42d20000 	.word	0x42d20000
80004538:	42d40000 	.word	0x42d40000
8000453c:	42d60000 	.word	0x42d60000
80004540:	42d80000 	.word	0x42d80000
80004544:	42da0000 	.word	0x42da0000
80004548:	42dc0000 	.word	0x42dc0000
8000454c:	42de0000 	.word	0x42de0000
80004550:	42e00000 	.word	0x42e00000
80004554:	42e20000 	.word	0x42e20000
80004558:	42e40000 	.word	0x42e40000
8000455c:	42e60000 	.word	0x42e60000
80004560:	42e80000 	.word	0x42e80000
80004564:	42ea0000 	.word	0x42ea0000
80004568:	42ec0000 	.word	0x42ec0000
8000456c:	42ee0000 	.word	0x42ee0000
80004570:	42f00000 	.word	0x42f00000
80004574:	42f20000 	.word	0x42f20000
80004578:	42f40000 	.word	0x42f40000
8000457c:	42f60000 	.word	0x42f60000
80004580:	42f80000 	.word	0x42f80000
80004584:	42fa0000 	.word	0x42fa0000
80004588:	42fc0000 	.word	0x42fc0000
8000458c:	42fe0000 	.word	0x42fe0000
80004590:	50bebc20 	.word	0x50bebc20
80004594:	4e6e6b28 	.word	0x4e6e6b28
80004598:	6c616353 	.word	0x6c616353
8000459c:	49207261 	.word	0x49207261
800045a0:	6972746e 	.word	0x6972746e
800045a4:	6369736e 	.word	0x6369736e
800045a8:	64252820 	.word	0x64252820
800045ac:	25203a29 	.word	0x25203a29
800045b0:	25202c66 	.word	0x25202c66
800045b4:	25202c66 	.word	0x25202c66
800045b8:	000a0d66 	.word	0x000a0d66
800045bc:	2045564d 	.word	0x2045564d
800045c0:	72746e49 	.word	0x72746e49
800045c4:	69736e69 	.word	0x69736e69
800045c8:	25282063 	.word	0x25282063
800045cc:	203a2964 	.word	0x203a2964
800045d0:	202c6625 	.word	0x202c6625
800045d4:	202c6625 	.word	0x202c6625
800045d8:	0a0d6625 	.word	0x0a0d6625
800045dc:	00000000 	.word	0x00000000
800045e0:	204d5341 	.word	0x204d5341
800045e4:	6c616353 	.word	0x6c616353
800045e8:	28207261 	.word	0x28207261
800045ec:	3a296425 	.word	0x3a296425
800045f0:	2c662520 	.word	0x2c662520
800045f4:	2c662520 	.word	0x2c662520
800045f8:	0d662520 	.word	0x0d662520
800045fc:	0000000a 	.word	0x0000000a
80004600:	204d5341 	.word	0x204d5341
80004604:	2045564d 	.word	0x2045564d
80004608:	29642528 	.word	0x29642528
8000460c:	6625203a 	.word	0x6625203a
80004610:	6625202c 	.word	0x6625202c
80004614:	6625202c 	.word	0x6625202c
80004618:	00000a0d 	.word	0x00000a0d

8000461c <setup_tcm_ns_partition>:
setup_tcm_ns_partition():
/Users/till/.cache/arm/packs/AlifSemiconductor/Ensemble/1.3.3/Device/common/source/tcm_partition.c:82
}

void setup_tcm_ns_partition (void)
{
    /* Do nothing if partitions are not defined in the linker script */
    if (&ns_region_0_end == &ns_region_0_start)
8000461c:	f244 0100 	movw	r1, #16384	@ 0x4000
80004620:	f244 0000 	movw	r0, #16384	@ 0x4000
80004624:	f2c2 0100 	movt	r1, #8192	@ 0x2000
80004628:	f2c2 0000 	movt	r0, #8192	@ 0x2000
8000462c:	4288      	cmp	r0, r1
/Users/till/.cache/arm/packs/AlifSemiconductor/Ensemble/1.3.3/Device/common/source/tcm_partition.c:87
        return;

    SAU_TCM_NS_Setup();
    TGU_Setup();
}
8000462e:	bf08      	it	eq
80004630:	4770      	bxeq	lr
80004632:	f64e 52d0 	movw	r2, #60880	@ 0xedd0
SAU_TCM_NS_Setup():
/Users/till/.cache/arm/packs/AlifSemiconductor/Ensemble/1.3.3/Device/common/source/tcm_partition.c:73
    SAU->RLAR = (((uint32_t)&ns_region_0_end - 1) & SAU_RLAR_LADDR_Msk) | \
80004636:	3801      	subs	r0, #1
80004638:	f2ce 0200 	movt	r2, #57344	@ 0xe000
8000463c:	2300      	movs	r3, #0
/Users/till/.cache/arm/packs/AlifSemiconductor/Ensemble/1.3.3/Device/common/source/tcm_partition.c:72
    SAU->RBAR = (uint32_t)&ns_region_0_start & SAU_RBAR_BADDR_Msk;
8000463e:	f021 011f 	bic.w	r1, r1, #31
/Users/till/.cache/arm/packs/AlifSemiconductor/Ensemble/1.3.3/Device/common/source/tcm_partition.c:73
    SAU->RLAR = (((uint32_t)&ns_region_0_end - 1) & SAU_RLAR_LADDR_Msk) | \
80004642:	f020 001e 	bic.w	r0, r0, #30
/Users/till/.cache/arm/packs/AlifSemiconductor/Ensemble/1.3.3/Device/common/source/tcm_partition.c:71
    SAU->RNR = 0;
80004646:	6093      	str	r3, [r2, #8]
/Users/till/.cache/arm/packs/AlifSemiconductor/Ensemble/1.3.3/Device/common/source/tcm_partition.c:72
    SAU->RBAR = (uint32_t)&ns_region_0_start & SAU_RBAR_BADDR_Msk;
80004648:	60d1      	str	r1, [r2, #12]
/Users/till/.cache/arm/packs/AlifSemiconductor/Ensemble/1.3.3/Device/common/source/tcm_partition.c:73
    SAU->RLAR = (((uint32_t)&ns_region_0_end - 1) & SAU_RLAR_LADDR_Msk) | \
8000464a:	6110      	str	r0, [r2, #16]
8000464c:	2001      	movs	r0, #1
/Users/till/.cache/arm/packs/AlifSemiconductor/Ensemble/1.3.3/Device/common/source/tcm_partition.c:76
    SAU->CTRL = ((1U << SAU_CTRL_ENABLE_Pos) & SAU_CTRL_ENABLE_Msk);
8000464e:	6010      	str	r0, [r2, #0]
setup_tcm_ns_partition():
/Users/till/.cache/arm/packs/AlifSemiconductor/Ensemble/1.3.3/Device/common/source/tcm_partition.c:86
    TGU_Setup();
80004650:	f7fe bf3c 	b.w	800034cc <TGU_Setup>

80004654 <print_faults>:
print_faults():
/Users/till/Documents/Studium/Module/2025_SoSe/Tests/alif_e7_tests/libs/common_app_utils/fault_handler/fault_handler.c:284
{
80004654:	e92d 4ff0 	stmdb	sp!, {r4, r5, r6, r7, r8, r9, sl, fp, lr}
80004658:	b081      	sub	sp, #4
8000465a:	f64e 5528 	movw	r5, #60712	@ 0xed28
8000465e:	f645 79eb 	movw	r9, #24555	@ 0x5feb
80004662:	f2ce 0500 	movt	r5, #57344	@ 0xe000
80004666:	f645 7ae8 	movw	sl, #24552	@ 0x5fe8
print_usagefault():
/Users/till/Documents/Studium/Module/2025_SoSe/Tests/alif_e7_tests/libs/common_app_utils/fault_handler/fault_handler.c:237
     uint32_t ufsr = UFSR;
8000466a:	f8b5 8002 	ldrh.w	r8, [r5, #2]
8000466e:	f2c8 0900 	movt	r9, #32768	@ 0x8000
/Users/till/Documents/Studium/Module/2025_SoSe/Tests/alif_e7_tests/libs/common_app_utils/fault_handler/fault_handler.c:238
     if (ufsr == 0) {
80004672:	f1b8 0f00 	cmp.w	r8, #0
80004676:	f2c8 0a00 	movt	sl, #32768	@ 0x8000
8000467a:	d054      	beq.n	80004726 <print_faults+0xd2>
/Users/till/Documents/Studium/Module/2025_SoSe/Tests/alif_e7_tests/libs/common_app_utils/fault_handler/fault_handler.c:241
     printf("UFSR  = %04" PRIX32, ufsr);
8000467c:	f20f 501c 	addw	r0, pc, #1308	@ 0x51c
80004680:	4641      	mov	r1, r8
80004682:	f7fc f95b 	bl	8000093c <__2printf>
80004686:	f645 573c 	movw	r7, #23868	@ 0x5d3c
8000468a:	f246 0b6a 	movw	fp, #24682	@ 0x606a
8000468e:	f2c8 0700 	movt	r7, #32768	@ 0x8000
80004692:	2601      	movs	r6, #1
80004694:	2109      	movs	r1, #9
80004696:	4644      	mov	r4, r8
80004698:	f2c8 0b00 	movt	fp, #32768	@ 0x8000
8000469c:	2001      	movs	r0, #1
8000469e:	e001      	b.n	800046a4 <print_faults+0x50>
800046a0:	4629      	mov	r1, r5
print_fsrbits():
/Users/till/Documents/Studium/Module/2025_SoSe/Tests/alif_e7_tests/libs/common_app_utils/fault_handler/fault_handler.c:180
     while (val != 0 && *bitnames != ' ') {
800046a2:	b36c      	cbz	r4, 80004700 <print_faults+0xac>
800046a4:	2920      	cmp	r1, #32
800046a6:	d02b      	beq.n	80004700 <print_faults+0xac>
/Users/till/Documents/Studium/Module/2025_SoSe/Tests/alif_e7_tests/libs/common_app_utils/fault_handler/fault_handler.c:181
         int bit = *bitnames++;
800046a8:	1c7b      	adds	r3, r7, #1
/Users/till/Documents/Studium/Module/2025_SoSe/Tests/alif_e7_tests/libs/common_app_utils/fault_handler/fault_handler.c:183
         while (*next_bitname > ' ') {
800046aa:	3702      	adds	r7, #2
800046ac:	f817 5c01 	ldrb.w	r5, [r7, #-1]
800046b0:	2d21      	cmp	r5, #33	@ 0x21
800046b2:	d30f      	bcc.n	800046d4 <print_faults+0x80>
800046b4:	783d      	ldrb	r5, [r7, #0]
800046b6:	2d21      	cmp	r5, #33	@ 0x21
800046b8:	d30d      	bcc.n	800046d6 <print_faults+0x82>
800046ba:	787d      	ldrb	r5, [r7, #1]
800046bc:	2d21      	cmp	r5, #33	@ 0x21
800046be:	d319      	bcc.n	800046f4 <print_faults+0xa0>
800046c0:	78bd      	ldrb	r5, [r7, #2]
800046c2:	3704      	adds	r7, #4
800046c4:	2d20      	cmp	r5, #32
800046c6:	d8f1      	bhi.n	800046ac <print_faults+0x58>
/Users/till/Documents/Studium/Module/2025_SoSe/Tests/alif_e7_tests/libs/common_app_utils/fault_handler/fault_handler.c:186
         if (val & (1U << bit)) {
800046c8:	3f02      	subs	r7, #2
800046ca:	fa06 f101 	lsl.w	r1, r6, r1
800046ce:	4221      	tst	r1, r4
800046d0:	d105      	bne.n	800046de <print_faults+0x8a>
800046d2:	e7e5      	b.n	800046a0 <print_faults+0x4c>
800046d4:	3f01      	subs	r7, #1
800046d6:	fa06 f101 	lsl.w	r1, r6, r1
800046da:	4221      	tst	r1, r4
800046dc:	d0e0      	beq.n	800046a0 <print_faults+0x4c>
/Users/till/Documents/Studium/Module/2025_SoSe/Tests/alif_e7_tests/libs/common_app_utils/fault_handler/fault_handler.c:188
             printf("%s%.*s", first ? " (" : ", ", next_bitname - bitnames, bitnames);
800046de:	07c0      	lsls	r0, r0, #31
/Users/till/Documents/Studium/Module/2025_SoSe/Tests/alif_e7_tests/libs/common_app_utils/fault_handler/fault_handler.c:187
             val &=~ (1U << bit);
800046e0:	ea24 0401 	bic.w	r4, r4, r1
/Users/till/Documents/Studium/Module/2025_SoSe/Tests/alif_e7_tests/libs/common_app_utils/fault_handler/fault_handler.c:188
             printf("%s%.*s", first ? " (" : ", ", next_bitname - bitnames, bitnames);
800046e4:	4658      	mov	r0, fp
800046e6:	ea59 811a 			@ <UNDEFINED> instruction: 0xea59811a
800046ea:	1afa      	subs	r2, r7, r3
800046ec:	f7fc f926 	bl	8000093c <__2printf>
800046f0:	2000      	movs	r0, #0
800046f2:	e7d5      	b.n	800046a0 <print_faults+0x4c>
/Users/till/Documents/Studium/Module/2025_SoSe/Tests/alif_e7_tests/libs/common_app_utils/fault_handler/fault_handler.c:186
         if (val & (1U << bit)) {
800046f4:	3701      	adds	r7, #1
800046f6:	fa06 f101 	lsl.w	r1, r6, r1
800046fa:	4221      	tst	r1, r4
800046fc:	d1ef      	bne.n	800046de <print_faults+0x8a>
800046fe:	e7cf      	b.n	800046a0 <print_faults+0x4c>
/Users/till/Documents/Studium/Module/2025_SoSe/Tests/alif_e7_tests/libs/common_app_utils/fault_handler/fault_handler.c:194
     puts(first ? "" : ")");
80004700:	07c0      	lsls	r0, r0, #31
80004702:	f645 71ee 	movw	r1, #24558	@ 0x5fee
80004706:	f246 009a 	movw	r0, #24730	@ 0x609a
8000470a:	f2c8 0100 	movt	r1, #32768	@ 0x8000
8000470e:	f2c8 0000 	movt	r0, #32768	@ 0x8000
80004712:	ea50 8011 			@ <UNDEFINED> instruction: 0xea508011
80004716:	f7fc faab 	bl	80000c70 <puts>
8000471a:	f64e 5528 	movw	r5, #60712	@ 0xed28
8000471e:	f2ce 0500 	movt	r5, #57344	@ 0xe000
print_usagefault():
/Users/till/Documents/Studium/Module/2025_SoSe/Tests/alif_e7_tests/libs/common_app_utils/fault_handler/fault_handler.c:243
     UFSR = ufsr;
80004722:	f8a5 8002 	strh.w	r8, [r5, #2]
print_memmanage():
/Users/till/Documents/Studium/Module/2025_SoSe/Tests/alif_e7_tests/libs/common_app_utils/fault_handler/fault_handler.c:200
     uint32_t mmfsr = MMFSR;
80004726:	782c      	ldrb	r4, [r5, #0]
/Users/till/Documents/Studium/Module/2025_SoSe/Tests/alif_e7_tests/libs/common_app_utils/fault_handler/fault_handler.c:201
     if (mmfsr == 0) {
80004728:	2c00      	cmp	r4, #0
8000472a:	d05e      	beq.n	800047ea <print_faults+0x196>
/Users/till/Documents/Studium/Module/2025_SoSe/Tests/alif_e7_tests/libs/common_app_utils/fault_handler/fault_handler.c:204
     printf("MMFSR = %02" PRIX32, mmfsr);
8000472c:	f20f 407c 	addw	r0, pc, #1148	@ 0x47c
80004730:	4621      	mov	r1, r4
80004732:	fa4f f884 	sxtb.w	r8, r4
80004736:	f7fc f901 	bl	8000093c <__2printf>
8000473a:	f645 5777 	movw	r7, #23927	@ 0x5d77
8000473e:	f246 0b6a 	movw	fp, #24682	@ 0x606a
80004742:	f2c8 0700 	movt	r7, #32768	@ 0x8000
80004746:	2601      	movs	r6, #1
80004748:	2107      	movs	r1, #7
8000474a:	f2c8 0b00 	movt	fp, #32768	@ 0x8000
8000474e:	2001      	movs	r0, #1
80004750:	e002      	b.n	80004758 <print_faults+0x104>
80004752:	bf00      	nop
80004754:	4629      	mov	r1, r5
print_fsrbits():
/Users/till/Documents/Studium/Module/2025_SoSe/Tests/alif_e7_tests/libs/common_app_utils/fault_handler/fault_handler.c:180
     while (val != 0 && *bitnames != ' ') {
80004756:	b36c      	cbz	r4, 800047b4 <print_faults+0x160>
80004758:	2920      	cmp	r1, #32
8000475a:	d02b      	beq.n	800047b4 <print_faults+0x160>
/Users/till/Documents/Studium/Module/2025_SoSe/Tests/alif_e7_tests/libs/common_app_utils/fault_handler/fault_handler.c:181
         int bit = *bitnames++;
8000475c:	1c7b      	adds	r3, r7, #1
/Users/till/Documents/Studium/Module/2025_SoSe/Tests/alif_e7_tests/libs/common_app_utils/fault_handler/fault_handler.c:183
         while (*next_bitname > ' ') {
8000475e:	3702      	adds	r7, #2
80004760:	f817 5c01 	ldrb.w	r5, [r7, #-1]
80004764:	2d21      	cmp	r5, #33	@ 0x21
80004766:	d30f      	bcc.n	80004788 <print_faults+0x134>
80004768:	783d      	ldrb	r5, [r7, #0]
8000476a:	2d21      	cmp	r5, #33	@ 0x21
8000476c:	d30d      	bcc.n	8000478a <print_faults+0x136>
8000476e:	787d      	ldrb	r5, [r7, #1]
80004770:	2d21      	cmp	r5, #33	@ 0x21
80004772:	d319      	bcc.n	800047a8 <print_faults+0x154>
80004774:	78bd      	ldrb	r5, [r7, #2]
80004776:	3704      	adds	r7, #4
80004778:	2d20      	cmp	r5, #32
8000477a:	d8f1      	bhi.n	80004760 <print_faults+0x10c>
/Users/till/Documents/Studium/Module/2025_SoSe/Tests/alif_e7_tests/libs/common_app_utils/fault_handler/fault_handler.c:186
         if (val & (1U << bit)) {
8000477c:	3f02      	subs	r7, #2
8000477e:	fa06 f101 	lsl.w	r1, r6, r1
80004782:	4221      	tst	r1, r4
80004784:	d105      	bne.n	80004792 <print_faults+0x13e>
80004786:	e7e5      	b.n	80004754 <print_faults+0x100>
80004788:	3f01      	subs	r7, #1
8000478a:	fa06 f101 	lsl.w	r1, r6, r1
8000478e:	4221      	tst	r1, r4
80004790:	d0e0      	beq.n	80004754 <print_faults+0x100>
/Users/till/Documents/Studium/Module/2025_SoSe/Tests/alif_e7_tests/libs/common_app_utils/fault_handler/fault_handler.c:188
             printf("%s%.*s", first ? " (" : ", ", next_bitname - bitnames, bitnames);
80004792:	07c0      	lsls	r0, r0, #31
/Users/till/Documents/Studium/Module/2025_SoSe/Tests/alif_e7_tests/libs/common_app_utils/fault_handler/fault_handler.c:187
             val &=~ (1U << bit);
80004794:	ea24 0401 	bic.w	r4, r4, r1
/Users/till/Documents/Studium/Module/2025_SoSe/Tests/alif_e7_tests/libs/common_app_utils/fault_handler/fault_handler.c:188
             printf("%s%.*s", first ? " (" : ", ", next_bitname - bitnames, bitnames);
80004798:	4658      	mov	r0, fp
8000479a:	ea59 811a 			@ <UNDEFINED> instruction: 0xea59811a
8000479e:	1afa      	subs	r2, r7, r3
800047a0:	f7fc f8cc 	bl	8000093c <__2printf>
800047a4:	2000      	movs	r0, #0
800047a6:	e7d5      	b.n	80004754 <print_faults+0x100>
/Users/till/Documents/Studium/Module/2025_SoSe/Tests/alif_e7_tests/libs/common_app_utils/fault_handler/fault_handler.c:186
         if (val & (1U << bit)) {
800047a8:	3701      	adds	r7, #1
800047aa:	fa06 f101 	lsl.w	r1, r6, r1
800047ae:	4221      	tst	r1, r4
800047b0:	d1ef      	bne.n	80004792 <print_faults+0x13e>
800047b2:	e7cf      	b.n	80004754 <print_faults+0x100>
/Users/till/Documents/Studium/Module/2025_SoSe/Tests/alif_e7_tests/libs/common_app_utils/fault_handler/fault_handler.c:194
     puts(first ? "" : ")");
800047b4:	07c0      	lsls	r0, r0, #31
800047b6:	f645 71ee 	movw	r1, #24558	@ 0x5fee
800047ba:	f246 009a 	movw	r0, #24730	@ 0x609a
800047be:	f2c8 0100 	movt	r1, #32768	@ 0x8000
800047c2:	f2c8 0000 	movt	r0, #32768	@ 0x8000
800047c6:	ea50 8011 			@ <UNDEFINED> instruction: 0xea508011
800047ca:	f7fc fa51 	bl	80000c70 <puts>
800047ce:	f64e 5528 	movw	r5, #60712	@ 0xed28
print_memmanage():
/Users/till/Documents/Studium/Module/2025_SoSe/Tests/alif_e7_tests/libs/common_app_utils/fault_handler/fault_handler.c:206
     if (mmfsr & 0x80) {
800047d2:	f1b8 3fff 	cmp.w	r8, #4294967295	@ 0xffffffff
800047d6:	f2ce 0500 	movt	r5, #57344	@ 0xe000
800047da:	dc04      	bgt.n	800047e6 <print_faults+0x192>
/Users/till/Documents/Studium/Module/2025_SoSe/Tests/alif_e7_tests/libs/common_app_utils/fault_handler/fault_handler.c:207
        printf("MMFAR = %08" PRIX32 "\n", SCB->MMFAR);
800047dc:	68e9      	ldr	r1, [r5, #12]
800047de:	f20f 30dc 	addw	r0, pc, #988	@ 0x3dc
800047e2:	f7fc f8ab 	bl	8000093c <__2printf>
/Users/till/Documents/Studium/Module/2025_SoSe/Tests/alif_e7_tests/libs/common_app_utils/fault_handler/fault_handler.c:209
     MMFSR = mmfsr;
800047e6:	f885 8000 	strb.w	r8, [r5]
print_busfault():
/Users/till/Documents/Studium/Module/2025_SoSe/Tests/alif_e7_tests/libs/common_app_utils/fault_handler/fault_handler.c:215
     uint32_t bfsr = BFSR;
800047ea:	786c      	ldrb	r4, [r5, #1]
/Users/till/Documents/Studium/Module/2025_SoSe/Tests/alif_e7_tests/libs/common_app_utils/fault_handler/fault_handler.c:216
     if (bfsr == 0) {
800047ec:	2c00      	cmp	r4, #0
800047ee:	f000 80c4 	beq.w	8000497a <print_faults+0x326>
800047f2:	b260      	sxtb	r0, r4
/Users/till/Documents/Studium/Module/2025_SoSe/Tests/alif_e7_tests/libs/common_app_utils/fault_handler/fault_handler.c:219
     printf("BFSR  = %02" PRIX32, bfsr);
800047f4:	4621      	mov	r1, r4
800047f6:	9000      	str	r0, [sp, #0]
800047f8:	f20f 30d0 	addw	r0, pc, #976	@ 0x3d0
800047fc:	f7fc f89e 	bl	8000093c <__2printf>
80004800:	f645 57af 	movw	r7, #23983	@ 0x5daf
80004804:	f246 086a 	movw	r8, #24682	@ 0x606a
80004808:	f2c8 0700 	movt	r7, #32768	@ 0x8000
8000480c:	2601      	movs	r6, #1
8000480e:	2107      	movs	r1, #7
80004810:	f2c8 0800 	movt	r8, #32768	@ 0x8000
80004814:	2001      	movs	r0, #1
80004816:	e001      	b.n	8000481c <print_faults+0x1c8>
80004818:	4629      	mov	r1, r5
print_fsrbits():
/Users/till/Documents/Studium/Module/2025_SoSe/Tests/alif_e7_tests/libs/common_app_utils/fault_handler/fault_handler.c:180
     while (val != 0 && *bitnames != ' ') {
8000481a:	b36c      	cbz	r4, 80004878 <print_faults+0x224>
8000481c:	2920      	cmp	r1, #32
8000481e:	d02b      	beq.n	80004878 <print_faults+0x224>
/Users/till/Documents/Studium/Module/2025_SoSe/Tests/alif_e7_tests/libs/common_app_utils/fault_handler/fault_handler.c:181
         int bit = *bitnames++;
80004820:	1c7b      	adds	r3, r7, #1
/Users/till/Documents/Studium/Module/2025_SoSe/Tests/alif_e7_tests/libs/common_app_utils/fault_handler/fault_handler.c:183
         while (*next_bitname > ' ') {
80004822:	3702      	adds	r7, #2
80004824:	f817 5c01 	ldrb.w	r5, [r7, #-1]
80004828:	2d21      	cmp	r5, #33	@ 0x21
8000482a:	d30f      	bcc.n	8000484c <print_faults+0x1f8>
8000482c:	783d      	ldrb	r5, [r7, #0]
8000482e:	2d21      	cmp	r5, #33	@ 0x21
80004830:	d30d      	bcc.n	8000484e <print_faults+0x1fa>
80004832:	787d      	ldrb	r5, [r7, #1]
80004834:	2d21      	cmp	r5, #33	@ 0x21
80004836:	d319      	bcc.n	8000486c <print_faults+0x218>
80004838:	78bd      	ldrb	r5, [r7, #2]
8000483a:	3704      	adds	r7, #4
8000483c:	2d20      	cmp	r5, #32
8000483e:	d8f1      	bhi.n	80004824 <print_faults+0x1d0>
/Users/till/Documents/Studium/Module/2025_SoSe/Tests/alif_e7_tests/libs/common_app_utils/fault_handler/fault_handler.c:186
         if (val & (1U << bit)) {
80004840:	3f02      	subs	r7, #2
80004842:	fa06 f101 	lsl.w	r1, r6, r1
80004846:	4221      	tst	r1, r4
80004848:	d105      	bne.n	80004856 <print_faults+0x202>
8000484a:	e7e5      	b.n	80004818 <print_faults+0x1c4>
8000484c:	3f01      	subs	r7, #1
8000484e:	fa06 f101 	lsl.w	r1, r6, r1
80004852:	4221      	tst	r1, r4
80004854:	d0e0      	beq.n	80004818 <print_faults+0x1c4>
/Users/till/Documents/Studium/Module/2025_SoSe/Tests/alif_e7_tests/libs/common_app_utils/fault_handler/fault_handler.c:188
             printf("%s%.*s", first ? " (" : ", ", next_bitname - bitnames, bitnames);
80004856:	07c0      	lsls	r0, r0, #31
/Users/till/Documents/Studium/Module/2025_SoSe/Tests/alif_e7_tests/libs/common_app_utils/fault_handler/fault_handler.c:187
             val &=~ (1U << bit);
80004858:	ea24 0401 	bic.w	r4, r4, r1
/Users/till/Documents/Studium/Module/2025_SoSe/Tests/alif_e7_tests/libs/common_app_utils/fault_handler/fault_handler.c:188
             printf("%s%.*s", first ? " (" : ", ", next_bitname - bitnames, bitnames);
8000485c:	4640      	mov	r0, r8
8000485e:	ea59 811a 			@ <UNDEFINED> instruction: 0xea59811a
80004862:	1afa      	subs	r2, r7, r3
80004864:	f7fc f86a 	bl	8000093c <__2printf>
80004868:	2000      	movs	r0, #0
8000486a:	e7d5      	b.n	80004818 <print_faults+0x1c4>
/Users/till/Documents/Studium/Module/2025_SoSe/Tests/alif_e7_tests/libs/common_app_utils/fault_handler/fault_handler.c:186
         if (val & (1U << bit)) {
8000486c:	3701      	adds	r7, #1
8000486e:	fa06 f101 	lsl.w	r1, r6, r1
80004872:	4221      	tst	r1, r4
80004874:	d1ef      	bne.n	80004856 <print_faults+0x202>
80004876:	e7cf      	b.n	80004818 <print_faults+0x1c4>
/Users/till/Documents/Studium/Module/2025_SoSe/Tests/alif_e7_tests/libs/common_app_utils/fault_handler/fault_handler.c:194
     puts(first ? "" : ")");
80004878:	07c0      	lsls	r0, r0, #31
8000487a:	f645 71ee 	movw	r1, #24558	@ 0x5fee
8000487e:	f246 009a 	movw	r0, #24730	@ 0x609a
80004882:	f2c8 0100 	movt	r1, #32768	@ 0x8000
80004886:	f2c8 0000 	movt	r0, #32768	@ 0x8000
8000488a:	ea50 8011 			@ <UNDEFINED> instruction: 0xea508011
8000488e:	f7fc f9ef 	bl	80000c70 <puts>
print_busfault():
/Users/till/Documents/Studium/Module/2025_SoSe/Tests/alif_e7_tests/libs/common_app_utils/fault_handler/fault_handler.c:221
     if (bfsr & 0x80) {
80004892:	9800      	ldr	r0, [sp, #0]
80004894:	f64e 5528 	movw	r5, #60712	@ 0xed28
80004898:	f2ce 0500 	movt	r5, #57344	@ 0xe000
8000489c:	f1b0 3fff 	cmp.w	r0, #4294967295	@ 0xffffffff
800048a0:	dc03      	bgt.n	800048aa <print_faults+0x256>
/Users/till/Documents/Studium/Module/2025_SoSe/Tests/alif_e7_tests/libs/common_app_utils/fault_handler/fault_handler.c:222
        printf("BFAR  = %08" PRIX32 "\n", SCB->BFAR);
800048a2:	6929      	ldr	r1, [r5, #16]
800048a4:	a0cd      	add	r0, pc, #820	@ (adr r0, 80004bdc <print_faults+0x588>)
800048a6:	f7fc f849 	bl	8000093c <__2printf>
/Users/till/Documents/Studium/Module/2025_SoSe/Tests/alif_e7_tests/libs/common_app_utils/fault_handler/fault_handler.c:225
     uint32_t afsr = SCB->AFSR;
800048aa:	f8d5 8014 	ldr.w	r8, [r5, #20]
/Users/till/Documents/Studium/Module/2025_SoSe/Tests/alif_e7_tests/libs/common_app_utils/fault_handler/fault_handler.c:226
     printf("AFSR  = %08" PRIX32, afsr);
800048ae:	a0cf      	add	r0, pc, #828	@ (adr r0, 80004bec <print_faults+0x598>)
800048b0:	4641      	mov	r1, r8
800048b2:	f7fc f843 	bl	8000093c <__2printf>
800048b6:	f246 009a 	movw	r0, #24730	@ 0x609a
print_fsrbits():
/Users/till/Documents/Studium/Module/2025_SoSe/Tests/alif_e7_tests/libs/common_app_utils/fault_handler/fault_handler.c:180
     while (val != 0 && *bitnames != ' ') {
800048ba:	f1b8 0f00 	cmp.w	r8, #0
800048be:	f2c8 0000 	movt	r0, #32768	@ 0x8000
800048c2:	d054      	beq.n	8000496e <print_faults+0x31a>
800048c4:	f645 57f0 	movw	r7, #24048	@ 0x5df0
800048c8:	f246 056a 	movw	r5, #24682	@ 0x606a
800048cc:	f2c8 0700 	movt	r7, #32768	@ 0x8000
800048d0:	2601      	movs	r6, #1
800048d2:	211e      	movs	r1, #30
800048d4:	4644      	mov	r4, r8
800048d6:	f2c8 0500 	movt	r5, #32768	@ 0x8000
800048da:	2001      	movs	r0, #1
800048dc:	e002      	b.n	800048e4 <print_faults+0x290>
800048de:	bf00      	nop
800048e0:	4659      	mov	r1, fp
800048e2:	b3ac      	cbz	r4, 80004950 <print_faults+0x2fc>
800048e4:	2920      	cmp	r1, #32
800048e6:	d033      	beq.n	80004950 <print_faults+0x2fc>
/Users/till/Documents/Studium/Module/2025_SoSe/Tests/alif_e7_tests/libs/common_app_utils/fault_handler/fault_handler.c:181
         int bit = *bitnames++;
800048e8:	1c7b      	adds	r3, r7, #1
/Users/till/Documents/Studium/Module/2025_SoSe/Tests/alif_e7_tests/libs/common_app_utils/fault_handler/fault_handler.c:183
         while (*next_bitname > ' ') {
800048ea:	3702      	adds	r7, #2
800048ec:	f817 bc01 	ldrb.w	fp, [r7, #-1]
800048f0:	f1bb 0f21 	cmp.w	fp, #33	@ 0x21
800048f4:	d316      	bcc.n	80004924 <print_faults+0x2d0>
800048f6:	f897 b000 	ldrb.w	fp, [r7]
800048fa:	f1bb 0f21 	cmp.w	fp, #33	@ 0x21
800048fe:	d312      	bcc.n	80004926 <print_faults+0x2d2>
80004900:	f897 b001 	ldrb.w	fp, [r7, #1]
80004904:	f1bb 0f21 	cmp.w	fp, #33	@ 0x21
80004908:	d31c      	bcc.n	80004944 <print_faults+0x2f0>
8000490a:	f897 b002 	ldrb.w	fp, [r7, #2]
8000490e:	3704      	adds	r7, #4
80004910:	f1bb 0f20 	cmp.w	fp, #32
80004914:	d8ea      	bhi.n	800048ec <print_faults+0x298>
/Users/till/Documents/Studium/Module/2025_SoSe/Tests/alif_e7_tests/libs/common_app_utils/fault_handler/fault_handler.c:186
         if (val & (1U << bit)) {
80004916:	3f02      	subs	r7, #2
80004918:	fa06 f101 	lsl.w	r1, r6, r1
8000491c:	4221      	tst	r1, r4
8000491e:	d106      	bne.n	8000492e <print_faults+0x2da>
80004920:	e7de      	b.n	800048e0 <print_faults+0x28c>
80004922:	bf00      	nop
80004924:	3f01      	subs	r7, #1
80004926:	fa06 f101 	lsl.w	r1, r6, r1
8000492a:	4221      	tst	r1, r4
8000492c:	d0d8      	beq.n	800048e0 <print_faults+0x28c>
/Users/till/Documents/Studium/Module/2025_SoSe/Tests/alif_e7_tests/libs/common_app_utils/fault_handler/fault_handler.c:188
             printf("%s%.*s", first ? " (" : ", ", next_bitname - bitnames, bitnames);
8000492e:	07c0      	lsls	r0, r0, #31
/Users/till/Documents/Studium/Module/2025_SoSe/Tests/alif_e7_tests/libs/common_app_utils/fault_handler/fault_handler.c:187
             val &=~ (1U << bit);
80004930:	ea24 0401 	bic.w	r4, r4, r1
/Users/till/Documents/Studium/Module/2025_SoSe/Tests/alif_e7_tests/libs/common_app_utils/fault_handler/fault_handler.c:188
             printf("%s%.*s", first ? " (" : ", ", next_bitname - bitnames, bitnames);
80004934:	4628      	mov	r0, r5
80004936:	ea59 811a 			@ <UNDEFINED> instruction: 0xea59811a
8000493a:	1afa      	subs	r2, r7, r3
8000493c:	f7fb fffe 	bl	8000093c <__2printf>
80004940:	2000      	movs	r0, #0
80004942:	e7cd      	b.n	800048e0 <print_faults+0x28c>
/Users/till/Documents/Studium/Module/2025_SoSe/Tests/alif_e7_tests/libs/common_app_utils/fault_handler/fault_handler.c:186
         if (val & (1U << bit)) {
80004944:	3701      	adds	r7, #1
80004946:	fa06 f101 	lsl.w	r1, r6, r1
8000494a:	4221      	tst	r1, r4
8000494c:	d1ef      	bne.n	8000492e <print_faults+0x2da>
8000494e:	e7c7      	b.n	800048e0 <print_faults+0x28c>
/Users/till/Documents/Studium/Module/2025_SoSe/Tests/alif_e7_tests/libs/common_app_utils/fault_handler/fault_handler.c:194
     puts(first ? "" : ")");
80004950:	07c0      	lsls	r0, r0, #31
80004952:	f246 019a 	movw	r1, #24730	@ 0x609a
80004956:	f645 70ee 	movw	r0, #24558	@ 0x5fee
8000495a:	f2c8 0100 	movt	r1, #32768	@ 0x8000
8000495e:	f2c8 0000 	movt	r0, #32768	@ 0x8000
80004962:	f64e 5528 	movw	r5, #60712	@ 0xed28
80004966:	ea51 8010 			@ <UNDEFINED> instruction: 0xea518010
8000496a:	f2ce 0500 	movt	r5, #57344	@ 0xe000
8000496e:	f7fc f97f 	bl	80000c70 <puts>
print_busfault():
/Users/till/Documents/Studium/Module/2025_SoSe/Tests/alif_e7_tests/libs/common_app_utils/fault_handler/fault_handler.c:229
     SCB->AFSR = afsr;
80004972:	f8c5 8014 	str.w	r8, [r5, #20]
/Users/till/Documents/Studium/Module/2025_SoSe/Tests/alif_e7_tests/libs/common_app_utils/fault_handler/fault_handler.c:231
     BFSR = bfsr;
80004976:	9800      	ldr	r0, [sp, #0]
80004978:	7068      	strb	r0, [r5, #1]
print_securefault():
/Users/till/Documents/Studium/Module/2025_SoSe/Tests/alif_e7_tests/libs/common_app_utils/fault_handler/fault_handler.c:261
     uint32_t sfsr = SCB->SFSR;
8000497a:	f8d5 80bc 	ldr.w	r8, [r5, #188]	@ 0xbc
/Users/till/Documents/Studium/Module/2025_SoSe/Tests/alif_e7_tests/libs/common_app_utils/fault_handler/fault_handler.c:262
     if (sfsr == 0) {
8000497e:	f1b8 0f00 	cmp.w	r8, #0
80004982:	d054      	beq.n	80004a2e <print_faults+0x3da>
/Users/till/Documents/Studium/Module/2025_SoSe/Tests/alif_e7_tests/libs/common_app_utils/fault_handler/fault_handler.c:265
     printf("SFSR  = %08" PRIX32, sfsr);
80004984:	a09d      	add	r0, pc, #628	@ (adr r0, 80004bfc <print_faults+0x5a8>)
80004986:	4641      	mov	r1, r8
80004988:	f7fb ffd8 	bl	8000093c <__2printf>
8000498c:	f645 67aa 	movw	r7, #24234	@ 0x5eaa
80004990:	f246 0b6a 	movw	fp, #24682	@ 0x606a
80004994:	f2c8 0700 	movt	r7, #32768	@ 0x8000
80004998:	2601      	movs	r6, #1
8000499a:	2107      	movs	r1, #7
8000499c:	4644      	mov	r4, r8
8000499e:	f2c8 0b00 	movt	fp, #32768	@ 0x8000
800049a2:	2001      	movs	r0, #1
800049a4:	e002      	b.n	800049ac <print_faults+0x358>
800049a6:	bf00      	nop
800049a8:	4629      	mov	r1, r5
print_fsrbits():
/Users/till/Documents/Studium/Module/2025_SoSe/Tests/alif_e7_tests/libs/common_app_utils/fault_handler/fault_handler.c:180
     while (val != 0 && *bitnames != ' ') {
800049aa:	b36c      	cbz	r4, 80004a08 <print_faults+0x3b4>
800049ac:	2920      	cmp	r1, #32
800049ae:	d02b      	beq.n	80004a08 <print_faults+0x3b4>
/Users/till/Documents/Studium/Module/2025_SoSe/Tests/alif_e7_tests/libs/common_app_utils/fault_handler/fault_handler.c:181
         int bit = *bitnames++;
800049b0:	1c7b      	adds	r3, r7, #1
/Users/till/Documents/Studium/Module/2025_SoSe/Tests/alif_e7_tests/libs/common_app_utils/fault_handler/fault_handler.c:183
         while (*next_bitname > ' ') {
800049b2:	3702      	adds	r7, #2
800049b4:	f817 5c01 	ldrb.w	r5, [r7, #-1]
800049b8:	2d21      	cmp	r5, #33	@ 0x21
800049ba:	d30f      	bcc.n	800049dc <print_faults+0x388>
800049bc:	783d      	ldrb	r5, [r7, #0]
800049be:	2d21      	cmp	r5, #33	@ 0x21
800049c0:	d30d      	bcc.n	800049de <print_faults+0x38a>
800049c2:	787d      	ldrb	r5, [r7, #1]
800049c4:	2d21      	cmp	r5, #33	@ 0x21
800049c6:	d319      	bcc.n	800049fc <print_faults+0x3a8>
800049c8:	78bd      	ldrb	r5, [r7, #2]
800049ca:	3704      	adds	r7, #4
800049cc:	2d20      	cmp	r5, #32
800049ce:	d8f1      	bhi.n	800049b4 <print_faults+0x360>
/Users/till/Documents/Studium/Module/2025_SoSe/Tests/alif_e7_tests/libs/common_app_utils/fault_handler/fault_handler.c:186
         if (val & (1U << bit)) {
800049d0:	3f02      	subs	r7, #2
800049d2:	fa06 f101 	lsl.w	r1, r6, r1
800049d6:	4221      	tst	r1, r4
800049d8:	d105      	bne.n	800049e6 <print_faults+0x392>
800049da:	e7e5      	b.n	800049a8 <print_faults+0x354>
800049dc:	3f01      	subs	r7, #1
800049de:	fa06 f101 	lsl.w	r1, r6, r1
800049e2:	4221      	tst	r1, r4
800049e4:	d0e0      	beq.n	800049a8 <print_faults+0x354>
/Users/till/Documents/Studium/Module/2025_SoSe/Tests/alif_e7_tests/libs/common_app_utils/fault_handler/fault_handler.c:188
             printf("%s%.*s", first ? " (" : ", ", next_bitname - bitnames, bitnames);
800049e6:	07c0      	lsls	r0, r0, #31
/Users/till/Documents/Studium/Module/2025_SoSe/Tests/alif_e7_tests/libs/common_app_utils/fault_handler/fault_handler.c:187
             val &=~ (1U << bit);
800049e8:	ea24 0401 	bic.w	r4, r4, r1
/Users/till/Documents/Studium/Module/2025_SoSe/Tests/alif_e7_tests/libs/common_app_utils/fault_handler/fault_handler.c:188
             printf("%s%.*s", first ? " (" : ", ", next_bitname - bitnames, bitnames);
800049ec:	4658      	mov	r0, fp
800049ee:	ea59 811a 			@ <UNDEFINED> instruction: 0xea59811a
800049f2:	1afa      	subs	r2, r7, r3
800049f4:	f7fb ffa2 	bl	8000093c <__2printf>
800049f8:	2000      	movs	r0, #0
800049fa:	e7d5      	b.n	800049a8 <print_faults+0x354>
/Users/till/Documents/Studium/Module/2025_SoSe/Tests/alif_e7_tests/libs/common_app_utils/fault_handler/fault_handler.c:186
         if (val & (1U << bit)) {
800049fc:	3701      	adds	r7, #1
800049fe:	fa06 f101 	lsl.w	r1, r6, r1
80004a02:	4221      	tst	r1, r4
80004a04:	d1ef      	bne.n	800049e6 <print_faults+0x392>
80004a06:	e7cf      	b.n	800049a8 <print_faults+0x354>
/Users/till/Documents/Studium/Module/2025_SoSe/Tests/alif_e7_tests/libs/common_app_utils/fault_handler/fault_handler.c:194
     puts(first ? "" : ")");
80004a08:	07c0      	lsls	r0, r0, #31
80004a0a:	f645 71ee 	movw	r1, #24558	@ 0x5fee
80004a0e:	f246 009a 	movw	r0, #24730	@ 0x609a
80004a12:	f2c8 0100 	movt	r1, #32768	@ 0x8000
80004a16:	f2c8 0000 	movt	r0, #32768	@ 0x8000
80004a1a:	ea50 8011 			@ <UNDEFINED> instruction: 0xea508011
80004a1e:	f7fc f927 	bl	80000c70 <puts>
80004a22:	f64e 5528 	movw	r5, #60712	@ 0xed28
80004a26:	f2ce 0500 	movt	r5, #57344	@ 0xe000
print_securefault():
/Users/till/Documents/Studium/Module/2025_SoSe/Tests/alif_e7_tests/libs/common_app_utils/fault_handler/fault_handler.c:267
     SCB->SFSR = sfsr;
80004a2a:	f8c5 80bc 	str.w	r8, [r5, #188]	@ 0xbc
print_debugfault():
/Users/till/Documents/Studium/Module/2025_SoSe/Tests/alif_e7_tests/libs/common_app_utils/fault_handler/fault_handler.c:273
     uint32_t dfsr = SCB->DFSR;
80004a2e:	f8d5 8008 	ldr.w	r8, [r5, #8]
/Users/till/Documents/Studium/Module/2025_SoSe/Tests/alif_e7_tests/libs/common_app_utils/fault_handler/fault_handler.c:274
     if (dfsr == 0) {
80004a32:	f1b8 0f00 	cmp.w	r8, #0
80004a36:	d054      	beq.n	80004ae2 <print_faults+0x48e>
/Users/till/Documents/Studium/Module/2025_SoSe/Tests/alif_e7_tests/libs/common_app_utils/fault_handler/fault_handler.c:277
     printf("DFSR  = %08" PRIX32, dfsr);
80004a38:	a074      	add	r0, pc, #464	@ (adr r0, 80004c0c <print_faults+0x5b8>)
80004a3a:	4641      	mov	r1, r8
80004a3c:	f7fb ff7e 	bl	8000093c <__2printf>
80004a40:	f645 67e4 	movw	r7, #24292	@ 0x5ee4
80004a44:	f246 0b6a 	movw	fp, #24682	@ 0x606a
80004a48:	f2c8 0700 	movt	r7, #32768	@ 0x8000
80004a4c:	2601      	movs	r6, #1
80004a4e:	2105      	movs	r1, #5
80004a50:	4644      	mov	r4, r8
80004a52:	f2c8 0b00 	movt	fp, #32768	@ 0x8000
80004a56:	2001      	movs	r0, #1
80004a58:	e002      	b.n	80004a60 <print_faults+0x40c>
80004a5a:	bf00      	nop
80004a5c:	4629      	mov	r1, r5
print_fsrbits():
/Users/till/Documents/Studium/Module/2025_SoSe/Tests/alif_e7_tests/libs/common_app_utils/fault_handler/fault_handler.c:180
     while (val != 0 && *bitnames != ' ') {
80004a5e:	b36c      	cbz	r4, 80004abc <print_faults+0x468>
80004a60:	2920      	cmp	r1, #32
80004a62:	d02b      	beq.n	80004abc <print_faults+0x468>
/Users/till/Documents/Studium/Module/2025_SoSe/Tests/alif_e7_tests/libs/common_app_utils/fault_handler/fault_handler.c:181
         int bit = *bitnames++;
80004a64:	1c7b      	adds	r3, r7, #1
/Users/till/Documents/Studium/Module/2025_SoSe/Tests/alif_e7_tests/libs/common_app_utils/fault_handler/fault_handler.c:183
         while (*next_bitname > ' ') {
80004a66:	3702      	adds	r7, #2
80004a68:	f817 5c01 	ldrb.w	r5, [r7, #-1]
80004a6c:	2d21      	cmp	r5, #33	@ 0x21
80004a6e:	d30f      	bcc.n	80004a90 <print_faults+0x43c>
80004a70:	783d      	ldrb	r5, [r7, #0]
80004a72:	2d21      	cmp	r5, #33	@ 0x21
80004a74:	d30d      	bcc.n	80004a92 <print_faults+0x43e>
80004a76:	787d      	ldrb	r5, [r7, #1]
80004a78:	2d21      	cmp	r5, #33	@ 0x21
80004a7a:	d319      	bcc.n	80004ab0 <print_faults+0x45c>
80004a7c:	78bd      	ldrb	r5, [r7, #2]
80004a7e:	3704      	adds	r7, #4
80004a80:	2d20      	cmp	r5, #32
80004a82:	d8f1      	bhi.n	80004a68 <print_faults+0x414>
/Users/till/Documents/Studium/Module/2025_SoSe/Tests/alif_e7_tests/libs/common_app_utils/fault_handler/fault_handler.c:186
         if (val & (1U << bit)) {
80004a84:	3f02      	subs	r7, #2
80004a86:	fa06 f101 	lsl.w	r1, r6, r1
80004a8a:	4221      	tst	r1, r4
80004a8c:	d105      	bne.n	80004a9a <print_faults+0x446>
80004a8e:	e7e5      	b.n	80004a5c <print_faults+0x408>
80004a90:	3f01      	subs	r7, #1
80004a92:	fa06 f101 	lsl.w	r1, r6, r1
80004a96:	4221      	tst	r1, r4
80004a98:	d0e0      	beq.n	80004a5c <print_faults+0x408>
/Users/till/Documents/Studium/Module/2025_SoSe/Tests/alif_e7_tests/libs/common_app_utils/fault_handler/fault_handler.c:188
             printf("%s%.*s", first ? " (" : ", ", next_bitname - bitnames, bitnames);
80004a9a:	07c0      	lsls	r0, r0, #31
/Users/till/Documents/Studium/Module/2025_SoSe/Tests/alif_e7_tests/libs/common_app_utils/fault_handler/fault_handler.c:187
             val &=~ (1U << bit);
80004a9c:	ea24 0401 	bic.w	r4, r4, r1
/Users/till/Documents/Studium/Module/2025_SoSe/Tests/alif_e7_tests/libs/common_app_utils/fault_handler/fault_handler.c:188
             printf("%s%.*s", first ? " (" : ", ", next_bitname - bitnames, bitnames);
80004aa0:	4658      	mov	r0, fp
80004aa2:	ea59 811a 			@ <UNDEFINED> instruction: 0xea59811a
80004aa6:	1afa      	subs	r2, r7, r3
80004aa8:	f7fb ff48 	bl	8000093c <__2printf>
80004aac:	2000      	movs	r0, #0
80004aae:	e7d5      	b.n	80004a5c <print_faults+0x408>
/Users/till/Documents/Studium/Module/2025_SoSe/Tests/alif_e7_tests/libs/common_app_utils/fault_handler/fault_handler.c:186
         if (val & (1U << bit)) {
80004ab0:	3701      	adds	r7, #1
80004ab2:	fa06 f101 	lsl.w	r1, r6, r1
80004ab6:	4221      	tst	r1, r4
80004ab8:	d1ef      	bne.n	80004a9a <print_faults+0x446>
80004aba:	e7cf      	b.n	80004a5c <print_faults+0x408>
/Users/till/Documents/Studium/Module/2025_SoSe/Tests/alif_e7_tests/libs/common_app_utils/fault_handler/fault_handler.c:194
     puts(first ? "" : ")");
80004abc:	07c0      	lsls	r0, r0, #31
80004abe:	f645 71ee 	movw	r1, #24558	@ 0x5fee
80004ac2:	f246 009a 	movw	r0, #24730	@ 0x609a
80004ac6:	f2c8 0100 	movt	r1, #32768	@ 0x8000
80004aca:	f2c8 0000 	movt	r0, #32768	@ 0x8000
80004ace:	ea50 8011 			@ <UNDEFINED> instruction: 0xea508011
80004ad2:	f7fc f8cd 	bl	80000c70 <puts>
80004ad6:	f64e 5528 	movw	r5, #60712	@ 0xed28
80004ada:	f2ce 0500 	movt	r5, #57344	@ 0xe000
print_debugfault():
/Users/till/Documents/Studium/Module/2025_SoSe/Tests/alif_e7_tests/libs/common_app_utils/fault_handler/fault_handler.c:279
     SCB->DFSR = dfsr;
80004ade:	f8c5 8008 	str.w	r8, [r5, #8]
print_hardfault():
/Users/till/Documents/Studium/Module/2025_SoSe/Tests/alif_e7_tests/libs/common_app_utils/fault_handler/fault_handler.c:249
     uint32_t hfsr = SCB->HFSR;
80004ae2:	f8d5 8004 	ldr.w	r8, [r5, #4]
/Users/till/Documents/Studium/Module/2025_SoSe/Tests/alif_e7_tests/libs/common_app_utils/fault_handler/fault_handler.c:250
     if (hfsr == 0) {
80004ae6:	f1b8 0f00 	cmp.w	r8, #0
80004aea:	d054      	beq.n	80004b96 <print_faults+0x542>
/Users/till/Documents/Studium/Module/2025_SoSe/Tests/alif_e7_tests/libs/common_app_utils/fault_handler/fault_handler.c:253
     printf("HFSR  = %08" PRIX32, hfsr);
80004aec:	a04b      	add	r0, pc, #300	@ (adr r0, 80004c1c <print_faults+0x5c8>)
80004aee:	4641      	mov	r1, r8
80004af0:	f7fb ff24 	bl	8000093c <__2printf>
80004af4:	f645 770e 	movw	r7, #24334	@ 0x5f0e
80004af8:	f246 0b6a 	movw	fp, #24682	@ 0x606a
80004afc:	f2c8 0700 	movt	r7, #32768	@ 0x8000
80004b00:	2601      	movs	r6, #1
80004b02:	211f      	movs	r1, #31
80004b04:	4644      	mov	r4, r8
80004b06:	f2c8 0b00 	movt	fp, #32768	@ 0x8000
80004b0a:	2001      	movs	r0, #1
80004b0c:	e002      	b.n	80004b14 <print_faults+0x4c0>
80004b0e:	bf00      	nop
80004b10:	4629      	mov	r1, r5
print_fsrbits():
/Users/till/Documents/Studium/Module/2025_SoSe/Tests/alif_e7_tests/libs/common_app_utils/fault_handler/fault_handler.c:180
     while (val != 0 && *bitnames != ' ') {
80004b12:	b36c      	cbz	r4, 80004b70 <print_faults+0x51c>
80004b14:	2920      	cmp	r1, #32
80004b16:	d02b      	beq.n	80004b70 <print_faults+0x51c>
/Users/till/Documents/Studium/Module/2025_SoSe/Tests/alif_e7_tests/libs/common_app_utils/fault_handler/fault_handler.c:181
         int bit = *bitnames++;
80004b18:	1c7b      	adds	r3, r7, #1
/Users/till/Documents/Studium/Module/2025_SoSe/Tests/alif_e7_tests/libs/common_app_utils/fault_handler/fault_handler.c:183
         while (*next_bitname > ' ') {
80004b1a:	3702      	adds	r7, #2
80004b1c:	f817 5c01 	ldrb.w	r5, [r7, #-1]
80004b20:	2d21      	cmp	r5, #33	@ 0x21
80004b22:	d30f      	bcc.n	80004b44 <print_faults+0x4f0>
80004b24:	783d      	ldrb	r5, [r7, #0]
80004b26:	2d21      	cmp	r5, #33	@ 0x21
80004b28:	d30d      	bcc.n	80004b46 <print_faults+0x4f2>
80004b2a:	787d      	ldrb	r5, [r7, #1]
80004b2c:	2d21      	cmp	r5, #33	@ 0x21
80004b2e:	d319      	bcc.n	80004b64 <print_faults+0x510>
80004b30:	78bd      	ldrb	r5, [r7, #2]
80004b32:	3704      	adds	r7, #4
80004b34:	2d20      	cmp	r5, #32
80004b36:	d8f1      	bhi.n	80004b1c <print_faults+0x4c8>
/Users/till/Documents/Studium/Module/2025_SoSe/Tests/alif_e7_tests/libs/common_app_utils/fault_handler/fault_handler.c:186
         if (val & (1U << bit)) {
80004b38:	3f02      	subs	r7, #2
80004b3a:	fa06 f101 	lsl.w	r1, r6, r1
80004b3e:	4221      	tst	r1, r4
80004b40:	d105      	bne.n	80004b4e <print_faults+0x4fa>
80004b42:	e7e5      	b.n	80004b10 <print_faults+0x4bc>
80004b44:	3f01      	subs	r7, #1
80004b46:	fa06 f101 	lsl.w	r1, r6, r1
80004b4a:	4221      	tst	r1, r4
80004b4c:	d0e0      	beq.n	80004b10 <print_faults+0x4bc>
/Users/till/Documents/Studium/Module/2025_SoSe/Tests/alif_e7_tests/libs/common_app_utils/fault_handler/fault_handler.c:188
             printf("%s%.*s", first ? " (" : ", ", next_bitname - bitnames, bitnames);
80004b4e:	07c0      	lsls	r0, r0, #31
/Users/till/Documents/Studium/Module/2025_SoSe/Tests/alif_e7_tests/libs/common_app_utils/fault_handler/fault_handler.c:187
             val &=~ (1U << bit);
80004b50:	ea24 0401 	bic.w	r4, r4, r1
/Users/till/Documents/Studium/Module/2025_SoSe/Tests/alif_e7_tests/libs/common_app_utils/fault_handler/fault_handler.c:188
             printf("%s%.*s", first ? " (" : ", ", next_bitname - bitnames, bitnames);
80004b54:	4658      	mov	r0, fp
80004b56:	ea59 811a 			@ <UNDEFINED> instruction: 0xea59811a
80004b5a:	1afa      	subs	r2, r7, r3
80004b5c:	f7fb feee 	bl	8000093c <__2printf>
80004b60:	2000      	movs	r0, #0
80004b62:	e7d5      	b.n	80004b10 <print_faults+0x4bc>
/Users/till/Documents/Studium/Module/2025_SoSe/Tests/alif_e7_tests/libs/common_app_utils/fault_handler/fault_handler.c:186
         if (val & (1U << bit)) {
80004b64:	3701      	adds	r7, #1
80004b66:	fa06 f101 	lsl.w	r1, r6, r1
80004b6a:	4221      	tst	r1, r4
80004b6c:	d1ef      	bne.n	80004b4e <print_faults+0x4fa>
80004b6e:	e7cf      	b.n	80004b10 <print_faults+0x4bc>
/Users/till/Documents/Studium/Module/2025_SoSe/Tests/alif_e7_tests/libs/common_app_utils/fault_handler/fault_handler.c:194
     puts(first ? "" : ")");
80004b70:	07c0      	lsls	r0, r0, #31
80004b72:	f645 71ee 	movw	r1, #24558	@ 0x5fee
80004b76:	f246 009a 	movw	r0, #24730	@ 0x609a
80004b7a:	f2c8 0100 	movt	r1, #32768	@ 0x8000
80004b7e:	f2c8 0000 	movt	r0, #32768	@ 0x8000
80004b82:	ea50 8011 			@ <UNDEFINED> instruction: 0xea508011
80004b86:	f7fc f873 	bl	80000c70 <puts>
print_hardfault():
/Users/till/Documents/Studium/Module/2025_SoSe/Tests/alif_e7_tests/libs/common_app_utils/fault_handler/fault_handler.c:255
     SCB->HFSR = hfsr;
80004b8a:	f64e 5028 	movw	r0, #60712	@ 0xed28
80004b8e:	f2ce 0000 	movt	r0, #57344	@ 0xe000
80004b92:	f8c0 8004 	str.w	r8, [r0, #4]
print_faults():
/Users/till/Documents/Studium/Module/2025_SoSe/Tests/alif_e7_tests/libs/common_app_utils/fault_handler/fault_handler.c:291
}
80004b96:	b001      	add	sp, #4
80004b98:	e8bd 8ff0 	ldmia.w	sp!, {r4, r5, r6, r7, r8, r9, sl, fp, pc}
80004b9c:	52534655 	.word	0x52534655
80004ba0:	203d2020 	.word	0x203d2020
80004ba4:	58343025 	.word	0x58343025
80004ba8:	00000000 	.word	0x00000000
80004bac:	53464d4d 	.word	0x53464d4d
80004bb0:	203d2052 	.word	0x203d2052
80004bb4:	58323025 	.word	0x58323025
80004bb8:	00000000 	.word	0x00000000
80004bbc:	41464d4d 	.word	0x41464d4d
80004bc0:	203d2052 	.word	0x203d2052
80004bc4:	58383025 	.word	0x58383025
80004bc8:	0000000a 	.word	0x0000000a
80004bcc:	52534642 	.word	0x52534642
80004bd0:	203d2020 	.word	0x203d2020
80004bd4:	58323025 	.word	0x58323025
80004bd8:	00000000 	.word	0x00000000
80004bdc:	52414642 	.word	0x52414642
80004be0:	203d2020 	.word	0x203d2020
80004be4:	58383025 	.word	0x58383025
80004be8:	0000000a 	.word	0x0000000a
80004bec:	52534641 	.word	0x52534641
80004bf0:	203d2020 	.word	0x203d2020
80004bf4:	58383025 	.word	0x58383025
80004bf8:	00000000 	.word	0x00000000
80004bfc:	52534653 	.word	0x52534653
80004c00:	203d2020 	.word	0x203d2020
80004c04:	58383025 	.word	0x58383025
80004c08:	00000000 	.word	0x00000000
80004c0c:	52534644 	.word	0x52534644
80004c10:	203d2020 	.word	0x203d2020
80004c14:	58383025 	.word	0x58383025
80004c18:	00000000 	.word	0x00000000
80004c1c:	52534648 	.word	0x52534648
80004c20:	203d2020 	.word	0x203d2020
80004c24:	58383025 	.word	0x58383025
80004c28:	00000000 	.word	0x00000000

80004c2c <FaultDump>:
FaultDump():
/Users/till/Documents/Studium/Module/2025_SoSe/Tests/alif_e7_tests/libs/common_app_utils/fault_handler/fault_handler.c:446
    JumpToDump(new_exc_return, new_sp);
}

FAULT_HANDLER_XO_MEMORY_LOCATION
static void FaultDump(void)
{
80004c2c:	b082      	sub	sp, #8
/Users/till/Documents/Studium/Module/2025_SoSe/Tests/alif_e7_tests/libs/common_app_utils/fault_handler/fault_handler.c:447
    printf("\n==== %s exception ====\n\n", FaultNames[fault_type]);
80004c2e:	f241 09d8 	movw	r9, #4312	@ 0x10d8
80004c32:	f20f 41f4 	addw	r1, pc, #1268	@ 0x4f4
80004c36:	f2c2 0900 	movt	r9, #8192	@ 0x2000
80004c3a:	f8d9 0004 	ldr.w	r0, [r9, #4]
80004c3e:	f851 1020 	ldr.w	r1, [r1, r0, lsl #2]
80004c42:	f20f 40fc 	addw	r0, pc, #1276	@ 0x4fc
80004c46:	f7fb fe79 	bl	8000093c <__2printf>
/Users/till/Documents/Studium/Module/2025_SoSe/Tests/alif_e7_tests/libs/common_app_utils/fault_handler/fault_handler.c:449

    print_faults();
80004c4a:	f7ff fd03 	bl	80004654 <print_faults>
/Users/till/Documents/Studium/Module/2025_SoSe/Tests/alif_e7_tests/libs/common_app_utils/fault_handler/fault_handler.c:452

    printf("\nEXC_RETURN = %08" PRIX32 "\n\n"
           "Register dump (stored at &%08" PRIXPTR ") is:\n", exc_return, (uintptr_t) regs);
80004c4e:	f8d9 1000 	ldr.w	r1, [r9]
/Users/till/Documents/Studium/Module/2025_SoSe/Tests/alif_e7_tests/libs/common_app_utils/fault_handler/fault_handler.c:451
    printf("\nEXC_RETURN = %08" PRIX32 "\n\n"
80004c52:	f645 7056 	movw	r0, #24406	@ 0x5f56
80004c56:	f109 0208 	add.w	r2, r9, #8
80004c5a:	f2c8 0000 	movt	r0, #32768	@ 0x8000
80004c5e:	f7fb fe6d 	bl	8000093c <__2printf>
/Users/till/Documents/Studium/Module/2025_SoSe/Tests/alif_e7_tests/libs/common_app_utils/fault_handler/fault_handler.c:454
    for (int i = 0; i < 13; i++) {
        printf("R%-3d= %08" PRIX32 "%c", i, regs[i], i % 4 < 3 ? ' ' : '\n');
80004c62:	f246 0445 	movw	r4, #24645	@ 0x6045
80004c66:	f8d9 2008 	ldr.w	r2, [r9, #8]
80004c6a:	f2c8 0400 	movt	r4, #32768	@ 0x8000
80004c6e:	2100      	movs	r1, #0
80004c70:	4620      	mov	r0, r4
80004c72:	2320      	movs	r3, #32
80004c74:	2600      	movs	r6, #0
80004c76:	f7fb fe61 	bl	8000093c <__2printf>
80004c7a:	f8d9 200c 	ldr.w	r2, [r9, #12]
80004c7e:	4620      	mov	r0, r4
80004c80:	2101      	movs	r1, #1
80004c82:	2320      	movs	r3, #32
80004c84:	f04f 0801 	mov.w	r8, #1
80004c88:	f7fb fe58 	bl	8000093c <__2printf>
80004c8c:	f8d9 2010 	ldr.w	r2, [r9, #16]
80004c90:	4620      	mov	r0, r4
80004c92:	2102      	movs	r1, #2
80004c94:	2320      	movs	r3, #32
80004c96:	f7fb fe51 	bl	8000093c <__2printf>
80004c9a:	f8d9 2014 	ldr.w	r2, [r9, #20]
80004c9e:	4620      	mov	r0, r4
80004ca0:	2103      	movs	r1, #3
80004ca2:	230a      	movs	r3, #10
80004ca4:	f7fb fe4a 	bl	8000093c <__2printf>
80004ca8:	f8d9 2018 	ldr.w	r2, [r9, #24]
80004cac:	4620      	mov	r0, r4
80004cae:	2104      	movs	r1, #4
80004cb0:	2320      	movs	r3, #32
80004cb2:	f7fb fe43 	bl	8000093c <__2printf>
80004cb6:	f8d9 201c 	ldr.w	r2, [r9, #28]
80004cba:	4620      	mov	r0, r4
80004cbc:	2105      	movs	r1, #5
80004cbe:	2320      	movs	r3, #32
80004cc0:	f7fb fe3c 	bl	8000093c <__2printf>
80004cc4:	f8d9 2020 	ldr.w	r2, [r9, #32]
80004cc8:	4620      	mov	r0, r4
80004cca:	2106      	movs	r1, #6
80004ccc:	2320      	movs	r3, #32
80004cce:	f7fb fe35 	bl	8000093c <__2printf>
80004cd2:	f8d9 2024 	ldr.w	r2, [r9, #36]	@ 0x24
80004cd6:	4620      	mov	r0, r4
80004cd8:	2107      	movs	r1, #7
80004cda:	230a      	movs	r3, #10
80004cdc:	f7fb fe2e 	bl	8000093c <__2printf>
80004ce0:	f8d9 2028 	ldr.w	r2, [r9, #40]	@ 0x28
80004ce4:	4620      	mov	r0, r4
80004ce6:	2108      	movs	r1, #8
80004ce8:	2320      	movs	r3, #32
80004cea:	f7fb fe27 	bl	8000093c <__2printf>
80004cee:	f8d9 202c 	ldr.w	r2, [r9, #44]	@ 0x2c
80004cf2:	4620      	mov	r0, r4
80004cf4:	2109      	movs	r1, #9
80004cf6:	2320      	movs	r3, #32
80004cf8:	f7fb fe20 	bl	8000093c <__2printf>
80004cfc:	f8d9 2030 	ldr.w	r2, [r9, #48]	@ 0x30
80004d00:	4620      	mov	r0, r4
80004d02:	210a      	movs	r1, #10
80004d04:	2320      	movs	r3, #32
80004d06:	f7fb fe19 	bl	8000093c <__2printf>
80004d0a:	f8d9 2034 	ldr.w	r2, [r9, #52]	@ 0x34
80004d0e:	4620      	mov	r0, r4
80004d10:	210b      	movs	r1, #11
80004d12:	230a      	movs	r3, #10
80004d14:	f7fb fe12 	bl	8000093c <__2printf>
80004d18:	f8d9 2038 	ldr.w	r2, [r9, #56]	@ 0x38
80004d1c:	4620      	mov	r0, r4
80004d1e:	210c      	movs	r1, #12
80004d20:	2320      	movs	r3, #32
80004d22:	f7fb fe0b 	bl	8000093c <__2printf>
/Users/till/Documents/Studium/Module/2025_SoSe/Tests/alif_e7_tests/libs/common_app_utils/fault_handler/fault_handler.c:456
    }
    printf("SP  = %08" PRIX32 " LR  = %08" PRIX32 " PC  = %08" PRIX32 "\n", regs[13], regs[14], regs[15]);
80004d26:	f109 033c 	add.w	r3, r9, #60	@ 0x3c
80004d2a:	f20f 4030 	addw	r0, pc, #1072	@ 0x430
80004d2e:	cb0e      	ldmia	r3, {r1, r2, r3}
80004d30:	f7fb fe04 	bl	8000093c <__2printf>
/Users/till/Documents/Studium/Module/2025_SoSe/Tests/alif_e7_tests/libs/common_app_utils/fault_handler/fault_handler.c:457
    printf("Mode %-8sflags set: ", exc_return & 8 ? "Thread" : "Handler");
80004d34:	f8d9 0000 	ldr.w	r0, [r9]
80004d38:	f20f 414c 	addw	r1, pc, #1100	@ 0x44c
80004d3c:	0700      	lsls	r0, r0, #28
80004d3e:	f20f 4040 	addw	r0, pc, #1088	@ 0x440
80004d42:	ea50 8151 			@ <UNDEFINED> instruction: 0xea508151
80004d46:	f20f 4048 	addw	r0, pc, #1096	@ 0x448
80004d4a:	f7fb fdf7 	bl	8000093c <__2printf>
80004d4e:	f240 64ec 	movw	r4, #1772	@ 0x6ec
80004d52:	f04f 4700 	mov.w	r7, #2147483648	@ 0x80000000
80004d56:	f20f 4550 	addw	r5, pc, #1104	@ 0x450
80004d5a:	f2c2 0400 	movt	r4, #8192	@ 0x2000
80004d5e:	e007      	b.n	80004d70 <FaultDump+0x144>
/Users/till/Documents/Studium/Module/2025_SoSe/Tests/alif_e7_tests/libs/common_app_utils/fault_handler/fault_handler.c:465
            if (flag_names[i] != '0') {
                putchar(regs[16] & bit ? flag_names[i] : flag_names[i] + 'a' - 'A');
            }
            bit >>= 1;
        } else {
            putchar(' ');
80004d60:	2020      	movs	r0, #32
80004d62:	4621      	mov	r1, r4
80004d64:	f7fb ff7c 	bl	80000c60 <putc>
/Users/till/Documents/Studium/Module/2025_SoSe/Tests/alif_e7_tests/libs/common_app_utils/fault_handler/fault_handler.c:458
    for (size_t i = 0, bit = 1u<<31; i < 24; i++) {
80004d68:	3601      	adds	r6, #1
80004d6a:	3501      	adds	r5, #1
80004d6c:	2e18      	cmp	r6, #24
80004d6e:	d014      	beq.n	80004d9a <FaultDump+0x16e>
/Users/till/Documents/Studium/Module/2025_SoSe/Tests/alif_e7_tests/libs/common_app_utils/fault_handler/fault_handler.c:459
        if (i < sizeof flag_names - 1) {
80004d70:	2e0f      	cmp	r6, #15
80004d72:	d8f5      	bhi.n	80004d60 <FaultDump+0x134>
/Users/till/Documents/Studium/Module/2025_SoSe/Tests/alif_e7_tests/libs/common_app_utils/fault_handler/fault_handler.c:460
            if (flag_names[i] != '0') {
80004d74:	fa08 f006 	lsl.w	r0, r8, r6
80004d78:	f410 6f30 	tst.w	r0, #2816	@ 0xb00
80004d7c:	d108      	bne.n	80004d90 <FaultDump+0x164>
/Users/till/Documents/Studium/Module/2025_SoSe/Tests/alif_e7_tests/libs/common_app_utils/fault_handler/fault_handler.c:461
                putchar(regs[16] & bit ? flag_names[i] : flag_names[i] + 'a' - 'A');
80004d7e:	f8d9 1048 	ldr.w	r1, [r9, #72]	@ 0x48
/Users/till/Documents/Studium/Module/2025_SoSe/Tests/alif_e7_tests/libs/common_app_utils/fault_handler/fault_handler.c:460
            if (flag_names[i] != '0') {
80004d82:	7828      	ldrb	r0, [r5, #0]
/Users/till/Documents/Studium/Module/2025_SoSe/Tests/alif_e7_tests/libs/common_app_utils/fault_handler/fault_handler.c:461
                putchar(regs[16] & bit ? flag_names[i] : flag_names[i] + 'a' - 'A');
80004d84:	4239      	tst	r1, r7
80004d86:	4621      	mov	r1, r4
80004d88:	bf08      	it	eq
80004d8a:	3020      	addeq	r0, #32
80004d8c:	f7fb ff68 	bl	80000c60 <putc>
/Users/till/Documents/Studium/Module/2025_SoSe/Tests/alif_e7_tests/libs/common_app_utils/fault_handler/fault_handler.c:463
            bit >>= 1;
80004d90:	087f      	lsrs	r7, r7, #1
/Users/till/Documents/Studium/Module/2025_SoSe/Tests/alif_e7_tests/libs/common_app_utils/fault_handler/fault_handler.c:458
    for (size_t i = 0, bit = 1u<<31; i < 24; i++) {
80004d92:	3601      	adds	r6, #1
80004d94:	3501      	adds	r5, #1
80004d96:	2e18      	cmp	r6, #24
80004d98:	d1ea      	bne.n	80004d70 <FaultDump+0x144>
/Users/till/Documents/Studium/Module/2025_SoSe/Tests/alif_e7_tests/libs/common_app_utils/fault_handler/fault_handler.c:468
        }
    }
    printf("PSR = %08" PRIX32 "\n", regs[16]);
80004d9a:	f8d9 1048 	ldr.w	r1, [r9, #72]	@ 0x48
80004d9e:	f645 70c1 	movw	r0, #24513	@ 0x5fc1
80004da2:	f2c8 0000 	movt	r0, #32768	@ 0x8000
80004da6:	f7fb fdc9 	bl	8000093c <__2printf>
/Users/till/Documents/Studium/Module/2025_SoSe/Tests/alif_e7_tests/libs/common_app_utils/fault_handler/fault_handler.c:469
    if (!(exc_return & 8)) {
80004daa:	f899 0000 	ldrb.w	r0, [r9]
80004dae:	0700      	lsls	r0, r0, #28
80004db0:	d409      	bmi.n	80004dc6 <FaultDump+0x19a>
/Users/till/Documents/Studium/Module/2025_SoSe/Tests/alif_e7_tests/libs/common_app_utils/fault_handler/fault_handler.c:470
        printf("Exception %" PRId32 "\n", regs[16] & 0x1FF);
80004db2:	f8d9 1048 	ldr.w	r1, [r9, #72]	@ 0x48
80004db6:	f645 70cd 	movw	r0, #24525	@ 0x5fcd
80004dba:	f2c8 0000 	movt	r0, #32768	@ 0x8000
80004dbe:	f36f 215f 	bfc	r1, #9, #23
80004dc2:	f7fb fdbb 	bl	8000093c <__2printf>
80004dc6:	f64e 5008 	movw	r0, #60680	@ 0xed08
80004dca:	f2ce 0000 	movt	r0, #57344	@ 0xe000
/Users/till/Documents/Studium/Module/2025_SoSe/Tests/alif_e7_tests/libs/common_app_utils/fault_handler/fault_handler.c:473
    }

    uintptr_t stack_top = VTOR_STACK_TOP;
80004dce:	6800      	ldr	r0, [r0, #0]
80004dd0:	6804      	ldr	r4, [r0, #0]
/Users/till/Documents/Studium/Module/2025_SoSe/Tests/alif_e7_tests/libs/common_app_utils/fault_handler/fault_handler.c:474
    printf("Stack top from VTOR: %08" PRIXPTR "\n", stack_top);
80004dd2:	f645 70a6 	movw	r0, #24486	@ 0x5fa6
80004dd6:	f2c8 0000 	movt	r0, #32768	@ 0x8000
80004dda:	4621      	mov	r1, r4
80004ddc:	f7fb fdae 	bl	8000093c <__2printf>
/Users/till/Documents/Studium/Module/2025_SoSe/Tests/alif_e7_tests/libs/common_app_utils/fault_handler/fault_handler.c:475
    printf("\n==== Stack dump ====\n\n");
80004de0:	f645 708f 	movw	r0, #24463	@ 0x5f8f
80004de4:	f2c8 0000 	movt	r0, #32768	@ 0x8000
80004de8:	f7fb ff42 	bl	80000c70 <puts>
/Users/till/Documents/Studium/Module/2025_SoSe/Tests/alif_e7_tests/libs/common_app_utils/fault_handler/fault_handler.c:476
    const uintptr_t stack_point = regs[13];
80004dec:	f8d9 603c 	ldr.w	r6, [r9, #60]	@ 0x3c
/Users/till/Documents/Studium/Module/2025_SoSe/Tests/alif_e7_tests/libs/common_app_utils/fault_handler/fault_handler.c:492

    // start printing from aligned address
    const uintptr_t loop_start = stack_point - stack_point % (VALUES_PER_LINE * BYTES_IN_VALUE);

    // Dump uint32 values from SP until stack top or until defined number of lines is printed
    printf("Address  :     3 2 1 0     7 6 5 4     B A 9 8     F E D C       ASCII Data\n");
80004df0:	f645 70f9 	movw	r0, #24569	@ 0x5ff9
80004df4:	f2c8 0000 	movt	r0, #32768	@ 0x8000
/Users/till/Documents/Studium/Module/2025_SoSe/Tests/alif_e7_tests/libs/common_app_utils/fault_handler/fault_handler.c:480
    if (stack_top < stack_point) {
80004df8:	42b4      	cmp	r4, r6
80004dfa:	bf38      	it	cc
80004dfc:	f04f 34ff 	movcc.w	r4, #4294967295	@ 0xffffffff
/Users/till/Documents/Studium/Module/2025_SoSe/Tests/alif_e7_tests/libs/common_app_utils/fault_handler/fault_handler.c:489
    const uintptr_t loop_start = stack_point - stack_point % (VALUES_PER_LINE * BYTES_IN_VALUE);
80004e00:	f026 050f 	bic.w	r5, r6, #15
/Users/till/Documents/Studium/Module/2025_SoSe/Tests/alif_e7_tests/libs/common_app_utils/fault_handler/fault_handler.c:492
    printf("Address  :     3 2 1 0     7 6 5 4     B A 9 8     F E D C       ASCII Data\n");
80004e04:	f7fb ff34 	bl	80000c70 <puts>
/Users/till/Documents/Studium/Module/2025_SoSe/Tests/alif_e7_tests/libs/common_app_utils/fault_handler/fault_handler.c:494
    //      80008010 :    FFEEAABB    CC001133    12345678    1A2B3C4D    ....3...xV".M<+.
    for (uint32_t *p = (uint32_t *)loop_start; p < ((uint32_t *)loop_start + STACK_DUMP_MAX_LINES * VALUES_PER_LINE) && p < (uint32_t *)stack_top; p += VALUES_PER_LINE) {
80004e08:	42a5      	cmp	r5, r4
80004e0a:	9501      	str	r5, [sp, #4]
80004e0c:	f080 8186 	bcs.w	8000511c <FaultDump+0x4f0>
80004e10:	f240 65ec 	movw	r5, #1772	@ 0x6ec
80004e14:	f8dd a004 	ldr.w	sl, [sp, #4]
80004e18:	f04f 0800 	mov.w	r8, #0
80004e1c:	f04f 092e 	mov.w	r9, #46	@ 0x2e
80004e20:	f2c2 0500 	movt	r5, #8192	@ 0x2000
/Users/till/Documents/Studium/Module/2025_SoSe/Tests/alif_e7_tests/libs/common_app_utils/fault_handler/fault_handler.c:496

        printf("%08" PRIXPTR " :", (uintptr_t)p);
80004e24:	9801      	ldr	r0, [sp, #4]
80004e26:	eb00 0108 	add.w	r1, r0, r8
80004e2a:	a0e4      	add	r0, pc, #912	@ (adr r0, 800051bc <flag_names+0x14>)
80004e2c:	f7fb fd86 	bl	8000093c <__2printf>
/Users/till/Documents/Studium/Module/2025_SoSe/Tests/alif_e7_tests/libs/common_app_utils/fault_handler/fault_handler.c:499
        // print the stack values for 1 line
        for (uint32_t *vp = p; vp < p + VALUES_PER_LINE; vp++) {
            if (vp >= (uint32_t*)stack_point && vp < (uint32_t*)stack_top) {
80004e30:	45b2      	cmp	sl, r6
80004e32:	d20d      	bcs.n	80004e50 <FaultDump+0x224>
/Users/till/Documents/Studium/Module/2025_SoSe/Tests/alif_e7_tests/libs/common_app_utils/fault_handler/fault_handler.c:503
                printf("    %08" PRIX32, *vp);
            }
            else {
                printf("            ");
80004e34:	f645 70db 	movw	r0, #24539	@ 0x5fdb
80004e38:	f2c8 0000 	movt	r0, #32768	@ 0x8000
80004e3c:	f7fb fd7e 	bl	8000093c <__2printf>
80004e40:	f10a 0b10 	add.w	fp, sl, #16
/Users/till/Documents/Studium/Module/2025_SoSe/Tests/alif_e7_tests/libs/common_app_utils/fault_handler/fault_handler.c:498
        for (uint32_t *vp = p; vp < p + VALUES_PER_LINE; vp++) {
80004e44:	f10a 0704 	add.w	r7, sl, #4
80004e48:	455f      	cmp	r7, fp
80004e4a:	d30f      	bcc.n	80004e6c <FaultDump+0x240>
80004e4c:	e050      	b.n	80004ef0 <FaultDump+0x2c4>
80004e4e:	bf00      	nop
/Users/till/Documents/Studium/Module/2025_SoSe/Tests/alif_e7_tests/libs/common_app_utils/fault_handler/fault_handler.c:500
                printf("    %08" PRIX32, *vp);
80004e50:	f8da 1000 	ldr.w	r1, [sl]
80004e54:	f645 70f0 	movw	r0, #24560	@ 0x5ff0
80004e58:	f2c8 0000 	movt	r0, #32768	@ 0x8000
80004e5c:	f7fb fd6e 	bl	8000093c <__2printf>
80004e60:	f10a 0b10 	add.w	fp, sl, #16
/Users/till/Documents/Studium/Module/2025_SoSe/Tests/alif_e7_tests/libs/common_app_utils/fault_handler/fault_handler.c:498
        for (uint32_t *vp = p; vp < p + VALUES_PER_LINE; vp++) {
80004e64:	f10a 0704 	add.w	r7, sl, #4
80004e68:	455f      	cmp	r7, fp
80004e6a:	d241      	bcs.n	80004ef0 <FaultDump+0x2c4>
/Users/till/Documents/Studium/Module/2025_SoSe/Tests/alif_e7_tests/libs/common_app_utils/fault_handler/fault_handler.c:499
            if (vp >= (uint32_t*)stack_point && vp < (uint32_t*)stack_top) {
80004e6c:	42b7      	cmp	r7, r6
80004e6e:	d30d      	bcc.n	80004e8c <FaultDump+0x260>
80004e70:	42a7      	cmp	r7, r4
80004e72:	d20b      	bcs.n	80004e8c <FaultDump+0x260>
/Users/till/Documents/Studium/Module/2025_SoSe/Tests/alif_e7_tests/libs/common_app_utils/fault_handler/fault_handler.c:500
                printf("    %08" PRIX32, *vp);
80004e74:	6839      	ldr	r1, [r7, #0]
80004e76:	f645 70f0 	movw	r0, #24560	@ 0x5ff0
80004e7a:	f2c8 0000 	movt	r0, #32768	@ 0x8000
80004e7e:	f7fb fd5d 	bl	8000093c <__2printf>
/Users/till/Documents/Studium/Module/2025_SoSe/Tests/alif_e7_tests/libs/common_app_utils/fault_handler/fault_handler.c:499
            if (vp >= (uint32_t*)stack_point && vp < (uint32_t*)stack_top) {
80004e82:	f10a 0008 	add.w	r0, sl, #8
80004e86:	42b0      	cmp	r0, r6
80004e88:	d20a      	bcs.n	80004ea0 <FaultDump+0x274>
80004e8a:	e017      	b.n	80004ebc <FaultDump+0x290>
/Users/till/Documents/Studium/Module/2025_SoSe/Tests/alif_e7_tests/libs/common_app_utils/fault_handler/fault_handler.c:503
                printf("            ");
80004e8c:	f645 70db 	movw	r0, #24539	@ 0x5fdb
80004e90:	f2c8 0000 	movt	r0, #32768	@ 0x8000
80004e94:	f7fb fd52 	bl	8000093c <__2printf>
/Users/till/Documents/Studium/Module/2025_SoSe/Tests/alif_e7_tests/libs/common_app_utils/fault_handler/fault_handler.c:499
            if (vp >= (uint32_t*)stack_point && vp < (uint32_t*)stack_top) {
80004e98:	f10a 0008 	add.w	r0, sl, #8
80004e9c:	42b0      	cmp	r0, r6
80004e9e:	d30d      	bcc.n	80004ebc <FaultDump+0x290>
80004ea0:	42a0      	cmp	r0, r4
80004ea2:	d20b      	bcs.n	80004ebc <FaultDump+0x290>
/Users/till/Documents/Studium/Module/2025_SoSe/Tests/alif_e7_tests/libs/common_app_utils/fault_handler/fault_handler.c:500
                printf("    %08" PRIX32, *vp);
80004ea4:	6801      	ldr	r1, [r0, #0]
80004ea6:	f645 70f0 	movw	r0, #24560	@ 0x5ff0
80004eaa:	f2c8 0000 	movt	r0, #32768	@ 0x8000
80004eae:	f7fb fd45 	bl	8000093c <__2printf>
/Users/till/Documents/Studium/Module/2025_SoSe/Tests/alif_e7_tests/libs/common_app_utils/fault_handler/fault_handler.c:499
            if (vp >= (uint32_t*)stack_point && vp < (uint32_t*)stack_top) {
80004eb2:	f10a 000c 	add.w	r0, sl, #12
80004eb6:	42b0      	cmp	r0, r6
80004eb8:	d20a      	bcs.n	80004ed0 <FaultDump+0x2a4>
80004eba:	e013      	b.n	80004ee4 <FaultDump+0x2b8>
/Users/till/Documents/Studium/Module/2025_SoSe/Tests/alif_e7_tests/libs/common_app_utils/fault_handler/fault_handler.c:503
                printf("            ");
80004ebc:	f645 70db 	movw	r0, #24539	@ 0x5fdb
80004ec0:	f2c8 0000 	movt	r0, #32768	@ 0x8000
80004ec4:	f7fb fd3a 	bl	8000093c <__2printf>
/Users/till/Documents/Studium/Module/2025_SoSe/Tests/alif_e7_tests/libs/common_app_utils/fault_handler/fault_handler.c:499
            if (vp >= (uint32_t*)stack_point && vp < (uint32_t*)stack_top) {
80004ec8:	f10a 000c 	add.w	r0, sl, #12
80004ecc:	42b0      	cmp	r0, r6
80004ece:	d309      	bcc.n	80004ee4 <FaultDump+0x2b8>
80004ed0:	42a0      	cmp	r0, r4
80004ed2:	d207      	bcs.n	80004ee4 <FaultDump+0x2b8>
/Users/till/Documents/Studium/Module/2025_SoSe/Tests/alif_e7_tests/libs/common_app_utils/fault_handler/fault_handler.c:500
                printf("    %08" PRIX32, *vp);
80004ed4:	6801      	ldr	r1, [r0, #0]
80004ed6:	f645 70f0 	movw	r0, #24560	@ 0x5ff0
80004eda:	f2c8 0000 	movt	r0, #32768	@ 0x8000
80004ede:	f7fb fd2d 	bl	8000093c <__2printf>
80004ee2:	e005      	b.n	80004ef0 <FaultDump+0x2c4>
/Users/till/Documents/Studium/Module/2025_SoSe/Tests/alif_e7_tests/libs/common_app_utils/fault_handler/fault_handler.c:503
                printf("            ");
80004ee4:	f645 70db 	movw	r0, #24539	@ 0x5fdb
80004ee8:	f2c8 0000 	movt	r0, #32768	@ 0x8000
80004eec:	f7fb fd26 	bl	8000093c <__2printf>
/Users/till/Documents/Studium/Module/2025_SoSe/Tests/alif_e7_tests/libs/common_app_utils/fault_handler/fault_handler.c:506
            }
        }
        printf("    ");
80004ef0:	f645 70e3 	movw	r0, #24547	@ 0x5fe3
80004ef4:	f2c8 0000 	movt	r0, #32768	@ 0x8000
80004ef8:	f7fb fd20 	bl	8000093c <__2printf>
/Users/till/Documents/Studium/Module/2025_SoSe/Tests/alif_e7_tests/libs/common_app_utils/fault_handler/fault_handler.c:510

        // print the ascii characters for one line
        for (char *cp = (char *)p; cp < (char *)p + VALUES_PER_LINE * BYTES_IN_VALUE; cp++) {
            if (cp >= (char*)stack_point && cp < (char*)stack_top) {
80004efc:	45b2      	cmp	sl, r6
80004efe:	f04f 0020 	mov.w	r0, #32
80004f02:	d308      	bcc.n	80004f16 <FaultDump+0x2ea>
80004f04:	45a2      	cmp	sl, r4
80004f06:	d206      	bcs.n	80004f16 <FaultDump+0x2ea>
/Users/till/Documents/Studium/Module/2025_SoSe/Tests/alif_e7_tests/libs/common_app_utils/fault_handler/fault_handler.c:512
                // only print printable ascii characters
                if(*cp > 31 && *cp < 127) {
80004f08:	f89a 0000 	ldrb.w	r0, [sl]
80004f0c:	f1a0 0120 	sub.w	r1, r0, #32
80004f10:	295f      	cmp	r1, #95	@ 0x5f
80004f12:	ea50 8039 			@ <UNDEFINED> instruction: 0xea508039
80004f16:	4629      	mov	r1, r5
80004f18:	f7fb fea2 	bl	80000c60 <putc>
/Users/till/Documents/Studium/Module/2025_SoSe/Tests/alif_e7_tests/libs/common_app_utils/fault_handler/fault_handler.c:509
        for (char *cp = (char *)p; cp < (char *)p + VALUES_PER_LINE * BYTES_IN_VALUE; cp++) {
80004f1c:	f10a 0101 	add.w	r1, sl, #1
80004f20:	4559      	cmp	r1, fp
80004f22:	f080 80ee 	bcs.w	80005102 <FaultDump+0x4d6>
/Users/till/Documents/Studium/Module/2025_SoSe/Tests/alif_e7_tests/libs/common_app_utils/fault_handler/fault_handler.c:510
            if (cp >= (char*)stack_point && cp < (char*)stack_top) {
80004f26:	42b1      	cmp	r1, r6
80004f28:	f04f 0020 	mov.w	r0, #32
80004f2c:	d307      	bcc.n	80004f3e <FaultDump+0x312>
80004f2e:	42a1      	cmp	r1, r4
80004f30:	d205      	bcs.n	80004f3e <FaultDump+0x312>
/Users/till/Documents/Studium/Module/2025_SoSe/Tests/alif_e7_tests/libs/common_app_utils/fault_handler/fault_handler.c:512
                if(*cp > 31 && *cp < 127) {
80004f32:	7808      	ldrb	r0, [r1, #0]
80004f34:	f1a0 0120 	sub.w	r1, r0, #32
80004f38:	295f      	cmp	r1, #95	@ 0x5f
80004f3a:	ea50 8039 			@ <UNDEFINED> instruction: 0xea508039
80004f3e:	4629      	mov	r1, r5
80004f40:	f7fb fe8e 	bl	80000c60 <putc>
/Users/till/Documents/Studium/Module/2025_SoSe/Tests/alif_e7_tests/libs/common_app_utils/fault_handler/fault_handler.c:510
            if (cp >= (char*)stack_point && cp < (char*)stack_top) {
80004f44:	f10a 0102 	add.w	r1, sl, #2
80004f48:	2020      	movs	r0, #32
80004f4a:	42b1      	cmp	r1, r6
80004f4c:	d307      	bcc.n	80004f5e <FaultDump+0x332>
80004f4e:	42a1      	cmp	r1, r4
80004f50:	d205      	bcs.n	80004f5e <FaultDump+0x332>
/Users/till/Documents/Studium/Module/2025_SoSe/Tests/alif_e7_tests/libs/common_app_utils/fault_handler/fault_handler.c:512
                if(*cp > 31 && *cp < 127) {
80004f52:	7808      	ldrb	r0, [r1, #0]
80004f54:	f1a0 0120 	sub.w	r1, r0, #32
80004f58:	295f      	cmp	r1, #95	@ 0x5f
80004f5a:	ea50 8039 			@ <UNDEFINED> instruction: 0xea508039
80004f5e:	4629      	mov	r1, r5
80004f60:	f7fb fe7e 	bl	80000c60 <putc>
/Users/till/Documents/Studium/Module/2025_SoSe/Tests/alif_e7_tests/libs/common_app_utils/fault_handler/fault_handler.c:510
            if (cp >= (char*)stack_point && cp < (char*)stack_top) {
80004f64:	f10a 0103 	add.w	r1, sl, #3
80004f68:	2020      	movs	r0, #32
80004f6a:	42b1      	cmp	r1, r6
80004f6c:	d307      	bcc.n	80004f7e <FaultDump+0x352>
80004f6e:	42a1      	cmp	r1, r4
80004f70:	d205      	bcs.n	80004f7e <FaultDump+0x352>
/Users/till/Documents/Studium/Module/2025_SoSe/Tests/alif_e7_tests/libs/common_app_utils/fault_handler/fault_handler.c:512
                if(*cp > 31 && *cp < 127) {
80004f72:	7808      	ldrb	r0, [r1, #0]
80004f74:	f1a0 0120 	sub.w	r1, r0, #32
80004f78:	295f      	cmp	r1, #95	@ 0x5f
80004f7a:	ea50 8039 			@ <UNDEFINED> instruction: 0xea508039
80004f7e:	4629      	mov	r1, r5
80004f80:	f7fb fe6e 	bl	80000c60 <putc>
/Users/till/Documents/Studium/Module/2025_SoSe/Tests/alif_e7_tests/libs/common_app_utils/fault_handler/fault_handler.c:510
            if (cp >= (char*)stack_point && cp < (char*)stack_top) {
80004f84:	42b7      	cmp	r7, r6
80004f86:	f04f 0020 	mov.w	r0, #32
80004f8a:	d307      	bcc.n	80004f9c <FaultDump+0x370>
80004f8c:	42a7      	cmp	r7, r4
80004f8e:	d205      	bcs.n	80004f9c <FaultDump+0x370>
/Users/till/Documents/Studium/Module/2025_SoSe/Tests/alif_e7_tests/libs/common_app_utils/fault_handler/fault_handler.c:512
                if(*cp > 31 && *cp < 127) {
80004f90:	7838      	ldrb	r0, [r7, #0]
80004f92:	f1a0 0120 	sub.w	r1, r0, #32
80004f96:	295f      	cmp	r1, #95	@ 0x5f
80004f98:	ea50 8039 			@ <UNDEFINED> instruction: 0xea508039
80004f9c:	4629      	mov	r1, r5
80004f9e:	f7fb fe5f 	bl	80000c60 <putc>
/Users/till/Documents/Studium/Module/2025_SoSe/Tests/alif_e7_tests/libs/common_app_utils/fault_handler/fault_handler.c:510
            if (cp >= (char*)stack_point && cp < (char*)stack_top) {
80004fa2:	f10a 0105 	add.w	r1, sl, #5
80004fa6:	2020      	movs	r0, #32
80004fa8:	42b1      	cmp	r1, r6
80004faa:	d307      	bcc.n	80004fbc <FaultDump+0x390>
80004fac:	42a1      	cmp	r1, r4
80004fae:	d205      	bcs.n	80004fbc <FaultDump+0x390>
/Users/till/Documents/Studium/Module/2025_SoSe/Tests/alif_e7_tests/libs/common_app_utils/fault_handler/fault_handler.c:512
                if(*cp > 31 && *cp < 127) {
80004fb0:	7808      	ldrb	r0, [r1, #0]
80004fb2:	f1a0 0120 	sub.w	r1, r0, #32
80004fb6:	295f      	cmp	r1, #95	@ 0x5f
80004fb8:	ea50 8039 			@ <UNDEFINED> instruction: 0xea508039
80004fbc:	4629      	mov	r1, r5
80004fbe:	f7fb fe4f 	bl	80000c60 <putc>
/Users/till/Documents/Studium/Module/2025_SoSe/Tests/alif_e7_tests/libs/common_app_utils/fault_handler/fault_handler.c:510
            if (cp >= (char*)stack_point && cp < (char*)stack_top) {
80004fc2:	f10a 0106 	add.w	r1, sl, #6
80004fc6:	2020      	movs	r0, #32
80004fc8:	42b1      	cmp	r1, r6
80004fca:	d307      	bcc.n	80004fdc <FaultDump+0x3b0>
80004fcc:	42a1      	cmp	r1, r4
80004fce:	d205      	bcs.n	80004fdc <FaultDump+0x3b0>
/Users/till/Documents/Studium/Module/2025_SoSe/Tests/alif_e7_tests/libs/common_app_utils/fault_handler/fault_handler.c:512
                if(*cp > 31 && *cp < 127) {
80004fd0:	7808      	ldrb	r0, [r1, #0]
80004fd2:	f1a0 0120 	sub.w	r1, r0, #32
80004fd6:	295f      	cmp	r1, #95	@ 0x5f
80004fd8:	ea50 8039 			@ <UNDEFINED> instruction: 0xea508039
80004fdc:	4629      	mov	r1, r5
80004fde:	f7fb fe3f 	bl	80000c60 <putc>
/Users/till/Documents/Studium/Module/2025_SoSe/Tests/alif_e7_tests/libs/common_app_utils/fault_handler/fault_handler.c:510
            if (cp >= (char*)stack_point && cp < (char*)stack_top) {
80004fe2:	f10a 0107 	add.w	r1, sl, #7
80004fe6:	2020      	movs	r0, #32
80004fe8:	42b1      	cmp	r1, r6
80004fea:	d307      	bcc.n	80004ffc <FaultDump+0x3d0>
80004fec:	42a1      	cmp	r1, r4
80004fee:	d205      	bcs.n	80004ffc <FaultDump+0x3d0>
/Users/till/Documents/Studium/Module/2025_SoSe/Tests/alif_e7_tests/libs/common_app_utils/fault_handler/fault_handler.c:512
                if(*cp > 31 && *cp < 127) {
80004ff0:	7808      	ldrb	r0, [r1, #0]
80004ff2:	f1a0 0120 	sub.w	r1, r0, #32
80004ff6:	295f      	cmp	r1, #95	@ 0x5f
80004ff8:	ea50 8039 			@ <UNDEFINED> instruction: 0xea508039
80004ffc:	4629      	mov	r1, r5
80004ffe:	f7fb fe2f 	bl	80000c60 <putc>
/Users/till/Documents/Studium/Module/2025_SoSe/Tests/alif_e7_tests/libs/common_app_utils/fault_handler/fault_handler.c:510
            if (cp >= (char*)stack_point && cp < (char*)stack_top) {
80005002:	f10a 0108 	add.w	r1, sl, #8
80005006:	2020      	movs	r0, #32
80005008:	42b1      	cmp	r1, r6
8000500a:	d307      	bcc.n	8000501c <FaultDump+0x3f0>
8000500c:	42a1      	cmp	r1, r4
8000500e:	d205      	bcs.n	8000501c <FaultDump+0x3f0>
/Users/till/Documents/Studium/Module/2025_SoSe/Tests/alif_e7_tests/libs/common_app_utils/fault_handler/fault_handler.c:512
                if(*cp > 31 && *cp < 127) {
80005010:	7808      	ldrb	r0, [r1, #0]
80005012:	f1a0 0120 	sub.w	r1, r0, #32
80005016:	295f      	cmp	r1, #95	@ 0x5f
80005018:	ea50 8039 			@ <UNDEFINED> instruction: 0xea508039
8000501c:	4629      	mov	r1, r5
8000501e:	f7fb fe1f 	bl	80000c60 <putc>
/Users/till/Documents/Studium/Module/2025_SoSe/Tests/alif_e7_tests/libs/common_app_utils/fault_handler/fault_handler.c:510
            if (cp >= (char*)stack_point && cp < (char*)stack_top) {
80005022:	f10a 0109 	add.w	r1, sl, #9
80005026:	2020      	movs	r0, #32
80005028:	42b1      	cmp	r1, r6
8000502a:	d307      	bcc.n	8000503c <FaultDump+0x410>
8000502c:	42a1      	cmp	r1, r4
8000502e:	d205      	bcs.n	8000503c <FaultDump+0x410>
/Users/till/Documents/Studium/Module/2025_SoSe/Tests/alif_e7_tests/libs/common_app_utils/fault_handler/fault_handler.c:512
                if(*cp > 31 && *cp < 127) {
80005030:	7808      	ldrb	r0, [r1, #0]
80005032:	f1a0 0120 	sub.w	r1, r0, #32
80005036:	295f      	cmp	r1, #95	@ 0x5f
80005038:	ea50 8039 			@ <UNDEFINED> instruction: 0xea508039
8000503c:	4629      	mov	r1, r5
8000503e:	f7fb fe0f 	bl	80000c60 <putc>
/Users/till/Documents/Studium/Module/2025_SoSe/Tests/alif_e7_tests/libs/common_app_utils/fault_handler/fault_handler.c:510
            if (cp >= (char*)stack_point && cp < (char*)stack_top) {
80005042:	f10a 010a 	add.w	r1, sl, #10
80005046:	2020      	movs	r0, #32
80005048:	42b1      	cmp	r1, r6
8000504a:	d307      	bcc.n	8000505c <FaultDump+0x430>
8000504c:	42a1      	cmp	r1, r4
8000504e:	d205      	bcs.n	8000505c <FaultDump+0x430>
/Users/till/Documents/Studium/Module/2025_SoSe/Tests/alif_e7_tests/libs/common_app_utils/fault_handler/fault_handler.c:512
                if(*cp > 31 && *cp < 127) {
80005050:	7808      	ldrb	r0, [r1, #0]
80005052:	f1a0 0120 	sub.w	r1, r0, #32
80005056:	295f      	cmp	r1, #95	@ 0x5f
80005058:	ea50 8039 			@ <UNDEFINED> instruction: 0xea508039
8000505c:	4629      	mov	r1, r5
8000505e:	f7fb fdff 	bl	80000c60 <putc>
/Users/till/Documents/Studium/Module/2025_SoSe/Tests/alif_e7_tests/libs/common_app_utils/fault_handler/fault_handler.c:510
            if (cp >= (char*)stack_point && cp < (char*)stack_top) {
80005062:	f10a 010b 	add.w	r1, sl, #11
80005066:	2020      	movs	r0, #32
80005068:	42b1      	cmp	r1, r6
8000506a:	d307      	bcc.n	8000507c <FaultDump+0x450>
8000506c:	42a1      	cmp	r1, r4
8000506e:	d205      	bcs.n	8000507c <FaultDump+0x450>
/Users/till/Documents/Studium/Module/2025_SoSe/Tests/alif_e7_tests/libs/common_app_utils/fault_handler/fault_handler.c:512
                if(*cp > 31 && *cp < 127) {
80005070:	7808      	ldrb	r0, [r1, #0]
80005072:	f1a0 0120 	sub.w	r1, r0, #32
80005076:	295f      	cmp	r1, #95	@ 0x5f
80005078:	ea50 8039 			@ <UNDEFINED> instruction: 0xea508039
8000507c:	4629      	mov	r1, r5
8000507e:	f7fb fdef 	bl	80000c60 <putc>
/Users/till/Documents/Studium/Module/2025_SoSe/Tests/alif_e7_tests/libs/common_app_utils/fault_handler/fault_handler.c:510
            if (cp >= (char*)stack_point && cp < (char*)stack_top) {
80005082:	f10a 010c 	add.w	r1, sl, #12
80005086:	2020      	movs	r0, #32
80005088:	42b1      	cmp	r1, r6
8000508a:	d307      	bcc.n	8000509c <FaultDump+0x470>
8000508c:	42a1      	cmp	r1, r4
8000508e:	d205      	bcs.n	8000509c <FaultDump+0x470>
/Users/till/Documents/Studium/Module/2025_SoSe/Tests/alif_e7_tests/libs/common_app_utils/fault_handler/fault_handler.c:512
                if(*cp > 31 && *cp < 127) {
80005090:	7808      	ldrb	r0, [r1, #0]
80005092:	f1a0 0120 	sub.w	r1, r0, #32
80005096:	295f      	cmp	r1, #95	@ 0x5f
80005098:	ea50 8039 			@ <UNDEFINED> instruction: 0xea508039
8000509c:	4629      	mov	r1, r5
8000509e:	f7fb fddf 	bl	80000c60 <putc>
/Users/till/Documents/Studium/Module/2025_SoSe/Tests/alif_e7_tests/libs/common_app_utils/fault_handler/fault_handler.c:510
            if (cp >= (char*)stack_point && cp < (char*)stack_top) {
800050a2:	f10a 010d 	add.w	r1, sl, #13
800050a6:	2020      	movs	r0, #32
800050a8:	42b1      	cmp	r1, r6
800050aa:	d307      	bcc.n	800050bc <FaultDump+0x490>
800050ac:	42a1      	cmp	r1, r4
800050ae:	d205      	bcs.n	800050bc <FaultDump+0x490>
/Users/till/Documents/Studium/Module/2025_SoSe/Tests/alif_e7_tests/libs/common_app_utils/fault_handler/fault_handler.c:512
                if(*cp > 31 && *cp < 127) {
800050b0:	7808      	ldrb	r0, [r1, #0]
800050b2:	f1a0 0120 	sub.w	r1, r0, #32
800050b6:	295f      	cmp	r1, #95	@ 0x5f
800050b8:	ea50 8039 			@ <UNDEFINED> instruction: 0xea508039
800050bc:	4629      	mov	r1, r5
800050be:	f7fb fdcf 	bl	80000c60 <putc>
/Users/till/Documents/Studium/Module/2025_SoSe/Tests/alif_e7_tests/libs/common_app_utils/fault_handler/fault_handler.c:510
            if (cp >= (char*)stack_point && cp < (char*)stack_top) {
800050c2:	f10a 010e 	add.w	r1, sl, #14
800050c6:	2020      	movs	r0, #32
800050c8:	42b1      	cmp	r1, r6
800050ca:	d307      	bcc.n	800050dc <FaultDump+0x4b0>
800050cc:	42a1      	cmp	r1, r4
800050ce:	d205      	bcs.n	800050dc <FaultDump+0x4b0>
/Users/till/Documents/Studium/Module/2025_SoSe/Tests/alif_e7_tests/libs/common_app_utils/fault_handler/fault_handler.c:512
                if(*cp > 31 && *cp < 127) {
800050d0:	7808      	ldrb	r0, [r1, #0]
800050d2:	f1a0 0120 	sub.w	r1, r0, #32
800050d6:	295f      	cmp	r1, #95	@ 0x5f
800050d8:	ea50 8039 			@ <UNDEFINED> instruction: 0xea508039
800050dc:	4629      	mov	r1, r5
800050de:	f7fb fdbf 	bl	80000c60 <putc>
/Users/till/Documents/Studium/Module/2025_SoSe/Tests/alif_e7_tests/libs/common_app_utils/fault_handler/fault_handler.c:510
            if (cp >= (char*)stack_point && cp < (char*)stack_top) {
800050e2:	f10a 010f 	add.w	r1, sl, #15
800050e6:	2020      	movs	r0, #32
800050e8:	42b1      	cmp	r1, r6
800050ea:	d307      	bcc.n	800050fc <FaultDump+0x4d0>
800050ec:	42a1      	cmp	r1, r4
800050ee:	d205      	bcs.n	800050fc <FaultDump+0x4d0>
/Users/till/Documents/Studium/Module/2025_SoSe/Tests/alif_e7_tests/libs/common_app_utils/fault_handler/fault_handler.c:512
                if(*cp > 31 && *cp < 127) {
800050f0:	7808      	ldrb	r0, [r1, #0]
800050f2:	f1a0 0120 	sub.w	r1, r0, #32
800050f6:	295f      	cmp	r1, #95	@ 0x5f
800050f8:	ea50 8039 			@ <UNDEFINED> instruction: 0xea508039
800050fc:	4629      	mov	r1, r5
800050fe:	f7fb fdaf 	bl	80000c60 <putc>
/Users/till/Documents/Studium/Module/2025_SoSe/Tests/alif_e7_tests/libs/common_app_utils/fault_handler/fault_handler.c:523
            }
            else {
                putchar(' ');
            }
        }
        printf("\n");
80005102:	200a      	movs	r0, #10
80005104:	f7fb fdae 	bl	80000c64 <putchar>
/Users/till/Documents/Studium/Module/2025_SoSe/Tests/alif_e7_tests/libs/common_app_utils/fault_handler/fault_handler.c:494
    for (uint32_t *p = (uint32_t *)loop_start; p < ((uint32_t *)loop_start + STACK_DUMP_MAX_LINES * VALUES_PER_LINE) && p < (uint32_t *)stack_top; p += VALUES_PER_LINE) {
80005108:	ea4f 1018 	mov.w	r0, r8, lsr #4
8000510c:	2812      	cmp	r0, #18
8000510e:	d805      	bhi.n	8000511c <FaultDump+0x4f0>
80005110:	f108 0810 	add.w	r8, r8, #16
80005114:	45a3      	cmp	fp, r4
80005116:	46da      	mov	sl, fp
80005118:	f4ff ae84 	bcc.w	80004e24 <FaultDump+0x1f8>
/Users/till/Documents/Studium/Module/2025_SoSe/Tests/alif_e7_tests/libs/common_app_utils/fault_handler/fault_handler.c:527
    }

    for (;;) {
        __WFE();
8000511c:	bf20      	wfe
8000511e:	bf20      	wfe
80005120:	bf20      	wfe
80005122:	bf20      	wfe
/Users/till/Documents/Studium/Module/2025_SoSe/Tests/alif_e7_tests/libs/common_app_utils/fault_handler/fault_handler.c:526
    for (;;) {
80005124:	e7fa      	b.n	8000511c <FaultDump+0x4f0>
80005126:	bf00      	nop

80005128 <FaultNames>:
FaultNames():
80005128:	80006071 	.word	0x80006071
8000512c:	80006053 	.word	0x80006053
80005130:	80006092 	.word	0x80006092
80005134:	8000607b 	.word	0x8000607b
80005138:	80006086 	.word	0x80006086
8000513c:	8000605d 	.word	0x8000605d
80005140:	3d3d3d0a 	.word	0x3d3d3d0a
80005144:	7325203d 	.word	0x7325203d
80005148:	63786520 	.word	0x63786520
8000514c:	69747065 	.word	0x69747065
80005150:	3d206e6f 	.word	0x3d206e6f
80005154:	0a3d3d3d 	.word	0x0a3d3d3d
80005158:	0000000a 	.word	0x0000000a
8000515c:	20205053 	.word	0x20205053
80005160:	3025203d 	.word	0x3025203d
80005164:	4c205838 	.word	0x4c205838
80005168:	3d202052 	.word	0x3d202052
8000516c:	38302520 	.word	0x38302520
80005170:	43502058 	.word	0x43502058
80005174:	203d2020 	.word	0x203d2020
80005178:	58383025 	.word	0x58383025
8000517c:	0000000a 	.word	0x0000000a
80005180:	646e6148 	.word	0x646e6148
80005184:	0072656c 	.word	0x0072656c
80005188:	65726854 	.word	0x65726854
8000518c:	00006461 	.word	0x00006461
80005190:	65646f4d 	.word	0x65646f4d
80005194:	382d2520 	.word	0x382d2520
80005198:	616c6673 	.word	0x616c6673
8000519c:	73207367 	.word	0x73207367
800051a0:	203a7465 	.word	0x203a7465
800051a4:	00000000 	.word	0x00000000

800051a8 <flag_names>:
flag_names():
800051a8:	56435a4e 	.word	0x56435a4e
800051ac:	54494951 	.word	0x54494951
800051b0:	30423030 	.word	0x30423030
800051b4:	47474747 	.word	0x47474747
800051b8:	00000000 	.word	0x00000000
800051bc:	58383025 	.word	0x58383025
800051c0:	00003a20 	.word	0x00003a20

800051c4 <CommonAsmFaultHandler>:
CommonAsmFaultHandler():
/Users/till/Documents/Studium/Module/2025_SoSe/Tests/alif_e7_tests/libs/common_app_utils/fault_handler/fault_handler.c:363
    __asm("LDR   R1, =regs+4*4\n\t"
800051c4:	490a      	ldr	r1, [pc, #40]	@ (800051f0 <CommonAsmFaultHandler+0x2c>)
800051c6:	e881 0ff0 	stmia.w	r1, {r4, r5, r6, r7, r8, r9, sl, fp}
800051ca:	f01e 0f04 	tst.w	lr, #4
800051ce:	bf07      	ittee	eq
800051d0:	4669      	moveq	r1, sp
800051d2:	f3ef 830a 	mrseq	r3, MSPLIM
800051d6:	f3ef 8109 	mrsne	r1, PSP
800051da:	f3ef 830b 	mrsne	r3, PSPLIM
800051de:	4672      	mov	r2, lr
800051e0:	f8df d010 	ldr.w	sp, [pc, #16]	@ 800051f4 <CommonAsmFaultHandler+0x30>
800051e4:	4c04      	ldr	r4, [pc, #16]	@ (800051f8 <CommonAsmFaultHandler+0x34>)
800051e6:	f384 880a 	msr	MSPLIM, r4
800051ea:	f000 b807 	b.w	800051fc <CommonFaultHandler>
800051ee:	0000      	movs	r0, r0
800051f0:	200010f0 	.word	0x200010f0
800051f4:	20001cb8 	.word	0x20001cb8
800051f8:	20000cd8 	.word	0x20000cd8

800051fc <CommonFaultHandler>:
CommonFaultHandler():
/Users/till/Documents/Studium/Module/2025_SoSe/Tests/alif_e7_tests/libs/common_app_utils/fault_handler/fault_handler.c:388
{
800051fc:	b510      	push	{r4, lr}
/Users/till/Documents/Studium/Module/2025_SoSe/Tests/alif_e7_tests/libs/common_app_utils/fault_handler/fault_handler.c:389
    if (!fault_dump_enabled) {
800051fe:	f640 0e05 	movw	lr, #2053	@ 0x805
80005202:	f2c2 0e00 	movt	lr, #8192	@ 0x2000
80005206:	f89e c001 	ldrb.w	ip, [lr, #1]
8000520a:	f1bc 0f00 	cmp.w	ip, #0
8000520e:	d01f      	beq.n	80005250 <CommonFaultHandler+0x54>
/Users/till/Documents/Studium/Module/2025_SoSe/Tests/alif_e7_tests/libs/common_app_utils/fault_handler/fault_handler.c:401
    exc_return = lr;
80005210:	f241 0cd8 	movw	ip, #4312	@ 0x10d8
80005214:	2401      	movs	r4, #1
80005216:	f2c2 0c00 	movt	ip, #8192	@ 0x2000
8000521a:	e9cc 2000 	strd	r2, r0, [ip]
/Users/till/Documents/Studium/Module/2025_SoSe/Tests/alif_e7_tests/libs/common_app_utils/fault_handler/fault_handler.c:410
    regs[12] = sp[4];
8000521e:	6908      	ldr	r0, [r1, #16]
/Users/till/Documents/Studium/Module/2025_SoSe/Tests/alif_e7_tests/libs/common_app_utils/fault_handler/fault_handler.c:406
    regs[0] = sp[0];
80005220:	ed91 1f00 	ldc	15, cr1, [r1]
/Users/till/Documents/Studium/Module/2025_SoSe/Tests/alif_e7_tests/libs/common_app_utils/fault_handler/fault_handler.c:410
    regs[12] = sp[4];
80005224:	f8cc 0038 	str.w	r0, [ip, #56]	@ 0x38
80005228:	f64e 502a 	movw	r0, #60714	@ 0xed2a
/Users/till/Documents/Studium/Module/2025_SoSe/Tests/alif_e7_tests/libs/common_app_utils/fault_handler/fault_handler.c:406
    regs[0] = sp[0];
8000522c:	ed8c 1f02 	stc	15, cr1, [ip, #8]
/Users/till/Documents/Studium/Module/2025_SoSe/Tests/alif_e7_tests/libs/common_app_utils/fault_handler/fault_handler.c:399
    fault_handler_active = true;
80005230:	f8ae 4000 	strh.w	r4, [lr]
80005234:	f2ce 0000 	movt	r0, #57344	@ 0xe000
/Users/till/Documents/Studium/Module/2025_SoSe/Tests/alif_e7_tests/libs/common_app_utils/fault_handler/fault_handler.c:403
    uint32_t retpsr = sp[7];
80005238:	f8d1 e01c 	ldr.w	lr, [r1, #28]
/Users/till/Documents/Studium/Module/2025_SoSe/Tests/alif_e7_tests/libs/common_app_utils/fault_handler/fault_handler.c:413
    if((UFSR & 0x10) && sp == orig_splim) {
8000523c:	8800      	ldrh	r0, [r0, #0]
8000523e:	4299      	cmp	r1, r3
80005240:	d10c      	bne.n	8000525c <CommonFaultHandler+0x60>
80005242:	f010 0010 	ands.w	r0, r0, #16
80005246:	d009      	beq.n	8000525c <CommonFaultHandler+0x60>
80005248:	f04f 7380 	mov.w	r3, #16777216	@ 0x1000000
8000524c:	4608      	mov	r0, r1
8000524e:	e014      	b.n	8000527a <CommonFaultHandler+0x7e>
/Users/till/Documents/Studium/Module/2025_SoSe/Tests/alif_e7_tests/libs/common_app_utils/fault_handler/fault_handler.c:391
            __WFE();
80005250:	bf20      	wfe
80005252:	bf20      	wfe
80005254:	bf20      	wfe
80005256:	bf20      	wfe
/Users/till/Documents/Studium/Module/2025_SoSe/Tests/alif_e7_tests/libs/common_app_utils/fault_handler/fault_handler.c:390
        while (1) {
80005258:	e7fa      	b.n	80005250 <CommonFaultHandler+0x54>
8000525a:	bf00      	nop
/Users/till/Documents/Studium/Module/2025_SoSe/Tests/alif_e7_tests/libs/common_app_utils/fault_handler/fault_handler.c:418
        regs[13] = (uint32_t)sp + (exc_return & 0x10 ? 0x20 : 0x68) + (retpsr & 0x200 ? 4 : 0);
8000525c:	06d0      	lsls	r0, r2, #27
8000525e:	f44f 4400 	mov.w	r4, #32768	@ 0x8000
80005262:	f04f 0020 	mov.w	r0, #32
80005266:	bf58      	it	pl
80005268:	2068      	movpl	r0, #104	@ 0x68
8000526a:	f3ce 2340 	ubfx	r3, lr, #9, #1
8000526e:	4408      	add	r0, r1
80005270:	eb00 0083 	add.w	r0, r0, r3, lsl #2
/Users/till/Documents/Studium/Module/2025_SoSe/Tests/alif_e7_tests/libs/common_app_utils/fault_handler/fault_handler.c:425
    fault_stack[FAULT_STACK_WORDS-1] = (1 << 24) | (retpsr & 0x1FF); // RETPSR, only set T32 state and exception state
80005274:	4673      	mov	r3, lr
80005276:	f364 235f 	bfi	r3, r4, #9, #23
8000527a:	f10c 0c3c 	add.w	ip, ip, #60	@ 0x3c
/Users/till/Documents/Studium/Module/2025_SoSe/Tests/alif_e7_tests/libs/common_app_utils/fault_handler/fault_handler.c:420
    regs[14] = sp[5];
8000527e:	e9d1 1405 	ldrd	r1, r4, [r1, #20]
80005282:	e88c 4013 	stmia.w	ip, {r0, r1, r4, lr}
/Users/till/Documents/Studium/Module/2025_SoSe/Tests/alif_e7_tests/libs/common_app_utils/fault_handler/fault_handler.c:425
    fault_stack[FAULT_STACK_WORDS-1] = (1 << 24) | (retpsr & 0x1FF); // RETPSR, only set T32 state and exception state
80005286:	f640 40d8 	movw	r0, #3288	@ 0xcd8
8000528a:	f2c2 0000 	movt	r0, #8192	@ 0x2000
8000528e:	f64f 74fe 	movw	r4, #65534	@ 0xfffe
/Users/till/Documents/Studium/Module/2025_SoSe/Tests/alif_e7_tests/libs/common_app_utils/fault_handler/fault_handler.c:438
    uint32_t new_exc_return = exc_return | 0x10;
80005292:	f042 0110 	orr.w	r1, r2, #16
80005296:	2200      	movs	r2, #0
/Users/till/Documents/Studium/Module/2025_SoSe/Tests/alif_e7_tests/libs/common_app_utils/fault_handler/fault_handler.c:429
    fault_stack[FAULT_STACK_WORDS-5] = 0;  // R3
80005298:	e9c0 22f8 	strd	r2, r2, [r0, #992]	@ 0x3e0
8000529c:	e9c0 22fa 	strd	r2, r2, [r0, #1000]	@ 0x3e8
800052a0:	f8c0 23f0 	str.w	r2, [r0, #1008]	@ 0x3f0
/Users/till/Documents/Studium/Module/2025_SoSe/Tests/alif_e7_tests/libs/common_app_utils/fault_handler/fault_handler.c:426
    fault_stack[FAULT_STACK_WORDS-2] = (uint32_t) FaultDump;  // Return Address, this is where EXC_RETURN will return to later on
800052a4:	f644 422d 	movw	r2, #19501	@ 0x4c2d
800052a8:	f6ce 74ff 	movt	r4, #61439	@ 0xefff
800052ac:	f2c8 0200 	movt	r2, #32768	@ 0x8000
/Users/till/Documents/Studium/Module/2025_SoSe/Tests/alif_e7_tests/libs/common_app_utils/fault_handler/fault_handler.c:427
    fault_stack[FAULT_STACK_WORDS-3] = 0xEFFFFFFE;  // LR, deliberately set to 'illegal' execution address as we're not expecting FaultDump to return
800052b0:	e9c0 42fd 	strd	r4, r2, [r0, #1012]	@ 0x3f4
/Users/till/Documents/Studium/Module/2025_SoSe/Tests/alif_e7_tests/libs/common_app_utils/fault_handler/fault_handler.c:429
    fault_stack[FAULT_STACK_WORDS-5] = 0;  // R3
800052b4:	f500 7278 	add.w	r2, r0, #992	@ 0x3e0
/Users/till/Documents/Studium/Module/2025_SoSe/Tests/alif_e7_tests/libs/common_app_utils/fault_handler/fault_handler.c:425
    fault_stack[FAULT_STACK_WORDS-1] = (1 << 24) | (retpsr & 0x1FF); // RETPSR, only set T32 state and exception state
800052b8:	f8c0 33fc 	str.w	r3, [r0, #1020]	@ 0x3fc
JumpToDump():
/Users/till/Documents/Studium/Module/2025_SoSe/Tests/alif_e7_tests/libs/common_app_utils/fault_handler/fault_handler.c:381
    __asm("MOV   SP, %0\n\t" // sp parameter to SP
800052bc:	4695      	mov	sp, r2
800052be:	4708      	bx	r1
CommonFaultHandler():
/Users/till/Documents/Studium/Module/2025_SoSe/Tests/alif_e7_tests/libs/common_app_utils/fault_handler/fault_handler.c:442
}
800052c0:	bd10      	pop	{r4, pc}
	...

800052c4 <sys_busy_loop_init>:
sys_busy_loop_init():
/Users/till/.cache/arm/packs/AlifSemiconductor/Ensemble/1.3.3/Device/common/source/system_utils.c:86
  \fn          void sys_busy_loop_init(void)
  \brief       Initialize the S32K Counter Module to use as busy loop
  \return      none
*/
void sys_busy_loop_init(void)
{
800052c4:	f04f 50d2 	mov.w	r0, #440401920	@ 0x1a400000
/Users/till/.cache/arm/packs/AlifSemiconductor/Ensemble/1.3.3/Device/common/source/system_utils.c:87
    S32K_CNTControl->CNTCR |= CNTCR_EN;
800052c8:	6801      	ldr	r1, [r0, #0]
800052ca:	f041 0101 	orr.w	r1, r1, #1
800052ce:	6001      	str	r1, [r0, #0]
/Users/till/.cache/arm/packs/AlifSemiconductor/Ensemble/1.3.3/Device/common/source/system_utils.c:88
}
800052d0:	4770      	bx	lr
	...

800052d4 <uart_irq_handler>:
uart_irq_handler():
/Users/till/.cache/arm/packs/AlifSemiconductor/Ensemble/1.3.3/drivers/source/uart.c:361
 * @param   uart     : Pointer to uart register set structure
 * @param   transfer : Pointer to uart transfer structure
 * @retval  none
 */
void uart_irq_handler (UART_Type *uart, UART_TRANSFER *transfer)
{
800052d4:	b510      	push	{r4, lr}
/Users/till/.cache/arm/packs/AlifSemiconductor/Ensemble/1.3.3/drivers/source/uart.c:369
    uint32_t tx_fifo_available_cnt  = 0U;   /* TX fifo Available count. */
    uint32_t rx_fifo_available_cnt  = 0U;   /* RX fifo Available count. */
    uint32_t i = 0U;

    /* get uart interrupt status from iir interrupt identity register */
    uart_int_status = (uart->UART_IIR) & UART_IIR_INTERRUPT_ID_MASK;
800052d6:	6882      	ldr	r2, [r0, #8]
800052d8:	f002 0c0f 	and.w	ip, r2, #15
/Users/till/.cache/arm/packs/AlifSemiconductor/Ensemble/1.3.3/drivers/source/uart.c:371

    switch (uart_int_status)
800052dc:	ea4f 037c 	mov.w	r3, ip, ror #1
800052e0:	2b06      	cmp	r3, #6
800052e2:	d861      	bhi.n	800053a8 <uart_irq_handler+0xd4>
800052e4:	e8df f003 	tbb	[pc, r3]
800052e8:	64042962 	.word	0x64042962
800052ec:	00046060 	.word	0x00046060
uart_get_rx_fifo_available_count():
/Users/till/.cache/arm/packs/AlifSemiconductor/Ensemble/1.3.3/drivers/source/uart.c:96
    return (uart->UART_RFL);
800052f0:	f8d0 3084 	ldr.w	r3, [r0, #132]	@ 0x84
uart_irq_handler():
/Users/till/.cache/arm/packs/AlifSemiconductor/Ensemble/1.3.3/drivers/source/uart.c:455
            {
                /* Query how many characters are available in RX fifo. */
                rx_fifo_available_cnt = uart_get_rx_fifo_available_count (uart);

                /* Read maximum number of characters available from the RX fifo or till rx total number. */
                for(i=0; i<rx_fifo_available_cnt; i++)
800052f4:	b18b      	cbz	r3, 8000531a <uart_irq_handler+0x46>
800052f6:	bf00      	nop
/Users/till/.cache/arm/packs/AlifSemiconductor/Ensemble/1.3.3/drivers/source/uart.c:457
                {
                    if (transfer->rx_curr_cnt >= transfer->rx_total_num)
800052f8:	f8d1 e010 	ldr.w	lr, [r1, #16]
800052fc:	694a      	ldr	r2, [r1, #20]
800052fe:	4572      	cmp	r2, lr
80005300:	d20b      	bcs.n	8000531a <uart_irq_handler+0x46>
uart_receive_a_char_from_rbr():
/Users/till/.cache/arm/packs/AlifSemiconductor/Ensemble/1.3.3/drivers/source/uart.c:68
    return uart->UART_RBR;
80005302:	f8d0 e000 	ldr.w	lr, [r0]
uart_irq_handler():
/Users/till/.cache/arm/packs/AlifSemiconductor/Ensemble/1.3.3/drivers/source/uart.c:455
                for(i=0; i<rx_fifo_available_cnt; i++)
80005306:	3b01      	subs	r3, #1
/Users/till/.cache/arm/packs/AlifSemiconductor/Ensemble/1.3.3/drivers/source/uart.c:464
                        /* Come out as it received all the user data. */
                        break;
                    }

                    /* read character from rbr receive buffer register. */
                    transfer->rx_buf[transfer->rx_curr_cnt] = uart_receive_a_char_from_rbr(uart);
80005308:	68ca      	ldr	r2, [r1, #12]
8000530a:	694c      	ldr	r4, [r1, #20]
8000530c:	f802 e004 	strb.w	lr, [r2, r4]
/Users/till/.cache/arm/packs/AlifSemiconductor/Ensemble/1.3.3/drivers/source/uart.c:465
                    transfer->rx_curr_cnt++;
80005310:	694a      	ldr	r2, [r1, #20]
80005312:	f102 0201 	add.w	r2, r2, #1
80005316:	614a      	str	r2, [r1, #20]
/Users/till/.cache/arm/packs/AlifSemiconductor/Ensemble/1.3.3/drivers/source/uart.c:455
                for(i=0; i<rx_fifo_available_cnt; i++)
80005318:	d1ee      	bne.n	800052f8 <uart_irq_handler+0x24>
uart_rx_ready():
/Users/till/.cache/arm/packs/AlifSemiconductor/Ensemble/1.3.3/drivers/source/uart.c:39
    return ((uart->UART_USR & UART_USR_RECEIVE_FIFO_NOT_EMPTY) ? 1 : 0);
8000531a:	6fc2      	ldr	r2, [r0, #124]	@ 0x7c
uart_irq_handler():
/Users/till/.cache/arm/packs/AlifSemiconductor/Ensemble/1.3.3/drivers/source/uart.c:472

                /* read again from rx fifo if it is not empty and user data is still remaining to read. */
            } while( uart_rx_ready(uart) && (transfer->rx_curr_cnt < transfer->rx_total_num) );

            /* check whether it received all the bytes? */
            if (transfer->rx_curr_cnt >= transfer->rx_total_num)
8000531c:	690b      	ldr	r3, [r1, #16]
/Users/till/.cache/arm/packs/AlifSemiconductor/Ensemble/1.3.3/drivers/source/uart.c:469
            } while( uart_rx_ready(uart) && (transfer->rx_curr_cnt < transfer->rx_total_num) );
8000531e:	0712      	lsls	r2, r2, #28
80005320:	d502      	bpl.n	80005328 <uart_irq_handler+0x54>
80005322:	694a      	ldr	r2, [r1, #20]
80005324:	429a      	cmp	r2, r3
80005326:	d3e3      	bcc.n	800052f0 <uart_irq_handler+0x1c>
/Users/till/.cache/arm/packs/AlifSemiconductor/Ensemble/1.3.3/drivers/source/uart.c:472
            if (transfer->rx_curr_cnt >= transfer->rx_total_num)
80005328:	694a      	ldr	r2, [r1, #20]
8000532a:	429a      	cmp	r2, r3
8000532c:	d22a      	bcs.n	80005384 <uart_irq_handler+0xb0>
8000532e:	2004      	movs	r0, #4
80005330:	e031      	b.n	80005396 <uart_irq_handler+0xc2>
80005332:	bf00      	nop
/Users/till/.cache/arm/packs/AlifSemiconductor/Ensemble/1.3.3/drivers/source/uart.c:434
            } while( uart_tx_ready(uart) && (transfer->tx_curr_cnt < transfer->tx_total_num) );
80005334:	688b      	ldr	r3, [r1, #8]
80005336:	4293      	cmp	r3, r2
80005338:	d219      	bcs.n	8000536e <uart_irq_handler+0x9a>
uart_get_tx_fifo_available_count():
/Users/till/.cache/arm/packs/AlifSemiconductor/Ensemble/1.3.3/drivers/source/uart.c:83
    return (UART_FIFO_DEPTH - uart->UART_TFL);
8000533a:	f8d0 2080 	ldr.w	r2, [r0, #128]	@ 0x80
uart_irq_handler():
/Users/till/.cache/arm/packs/AlifSemiconductor/Ensemble/1.3.3/drivers/source/uart.c:419
                for(i=0; i<tx_fifo_available_cnt; i++)
8000533e:	3a20      	subs	r2, #32
80005340:	d011      	beq.n	80005366 <uart_irq_handler+0x92>
80005342:	bf00      	nop
/Users/till/.cache/arm/packs/AlifSemiconductor/Ensemble/1.3.3/drivers/source/uart.c:421
                    if(transfer->tx_curr_cnt >= transfer->tx_total_num)
80005344:	f8d1 c004 	ldr.w	ip, [r1, #4]
80005348:	688b      	ldr	r3, [r1, #8]
8000534a:	4563      	cmp	r3, ip
8000534c:	d20b      	bcs.n	80005366 <uart_irq_handler+0x92>
/Users/till/.cache/arm/packs/AlifSemiconductor/Ensemble/1.3.3/drivers/source/uart.c:428
                    uart_send_a_char_to_thr(uart, transfer->tx_buf[transfer->tx_curr_cnt]);
8000534e:	f8d1 c000 	ldr.w	ip, [r1]
/Users/till/.cache/arm/packs/AlifSemiconductor/Ensemble/1.3.3/drivers/source/uart.c:419
                for(i=0; i<tx_fifo_available_cnt; i++)
80005352:	3201      	adds	r2, #1
/Users/till/.cache/arm/packs/AlifSemiconductor/Ensemble/1.3.3/drivers/source/uart.c:428
                    uart_send_a_char_to_thr(uart, transfer->tx_buf[transfer->tx_curr_cnt]);
80005354:	688b      	ldr	r3, [r1, #8]
80005356:	f81c 3003 	ldrb.w	r3, [ip, r3]
uart_send_a_char_to_thr():
/Users/till/.cache/arm/packs/AlifSemiconductor/Ensemble/1.3.3/drivers/source/uart.c:55
    uart->UART_THR = chr;
8000535a:	6003      	str	r3, [r0, #0]
uart_irq_handler():
/Users/till/.cache/arm/packs/AlifSemiconductor/Ensemble/1.3.3/drivers/source/uart.c:429
                    transfer->tx_curr_cnt++; /* increment the tx current count */
8000535c:	688b      	ldr	r3, [r1, #8]
8000535e:	f103 0301 	add.w	r3, r3, #1
80005362:	608b      	str	r3, [r1, #8]
/Users/till/.cache/arm/packs/AlifSemiconductor/Ensemble/1.3.3/drivers/source/uart.c:419
                for(i=0; i<tx_fifo_available_cnt; i++)
80005364:	d3ee      	bcc.n	80005344 <uart_irq_handler+0x70>
uart_tx_ready():
/Users/till/.cache/arm/packs/AlifSemiconductor/Ensemble/1.3.3/drivers/source/uart.c:26
    return ((uart->UART_USR & UART_USR_TRANSMIT_FIFO_NOT_FULL) ? 1 : 0);
80005366:	6fc3      	ldr	r3, [r0, #124]	@ 0x7c
uart_irq_handler():
/Users/till/.cache/arm/packs/AlifSemiconductor/Ensemble/1.3.3/drivers/source/uart.c:437
            if (transfer->tx_curr_cnt >= transfer->tx_total_num)
80005368:	684a      	ldr	r2, [r1, #4]
/Users/till/.cache/arm/packs/AlifSemiconductor/Ensemble/1.3.3/drivers/source/uart.c:434
            } while( uart_tx_ready(uart) && (transfer->tx_curr_cnt < transfer->tx_total_num) );
8000536a:	079b      	lsls	r3, r3, #30
8000536c:	d4e2      	bmi.n	80005334 <uart_irq_handler+0x60>
/Users/till/.cache/arm/packs/AlifSemiconductor/Ensemble/1.3.3/drivers/source/uart.c:437
            if (transfer->tx_curr_cnt >= transfer->tx_total_num)
8000536e:	688b      	ldr	r3, [r1, #8]
80005370:	4293      	cmp	r3, r2
/Users/till/.cache/arm/packs/AlifSemiconductor/Ensemble/1.3.3/drivers/source/uart.c:524
            (void)(uart->UART_USR);
            break;
    }

    return;
}
80005372:	bf38      	it	cc
80005374:	bd10      	popcc	{r4, pc}
uart_disable_tx_irq():
/Users/till/.cache/arm/packs/AlifSemiconductor/Ensemble/1.3.3/drivers/include/uart.h:611
 */
static inline void uart_disable_tx_irq (UART_Type *uart)
{
    /* disable transmit_holding_register_empty bit in
     * ier interrupt enable register */
    uart->UART_IER &= ~UART_IER_ENABLE_TRANSMIT_HOLD_REG_EMPTY;
80005376:	6842      	ldr	r2, [r0, #4]
80005378:	f022 0202 	bic.w	r2, r2, #2
8000537c:	6042      	str	r2, [r0, #4]
8000537e:	2001      	movs	r0, #1
uart_irq_handler():
/Users/till/.cache/arm/packs/AlifSemiconductor/Ensemble/1.3.3/drivers/source/uart.c:443
                transfer->status = UART_TRANSFER_STATUS_SEND_COMPLETE;
80005380:	6188      	str	r0, [r1, #24]
/Users/till/.cache/arm/packs/AlifSemiconductor/Ensemble/1.3.3/drivers/source/uart.c:524
}
80005382:	bd10      	pop	{r4, pc}
uart_disable_rx_irq():
/Users/till/.cache/arm/packs/AlifSemiconductor/Ensemble/1.3.3/drivers/include/uart.h:644
static inline void uart_disable_rx_irq (UART_Type *uart)
{
    /* disable receiver interrupt */
    /* disable receive_data_available_interrupt bit in
     * ier interrupt enable register */
    uart->UART_IER &= ~UART_IER_ENABLE_RECEIVED_DATA_AVAILABLE;
80005384:	6842      	ldr	r2, [r0, #4]
80005386:	f022 0201 	bic.w	r2, r2, #1
8000538a:	6042      	str	r2, [r0, #4]
/Users/till/.cache/arm/packs/AlifSemiconductor/Ensemble/1.3.3/drivers/include/uart.h:647

    /* also disable receiver line status interrupt. */
    uart->UART_IER &= ~UART_IER_ENABLE_RECEIVER_LINE_STATUS;
8000538c:	6842      	ldr	r2, [r0, #4]
8000538e:	f022 0204 	bic.w	r2, r2, #4
80005392:	6042      	str	r2, [r0, #4]
80005394:	2002      	movs	r0, #2
uart_irq_handler():
/Users/till/.cache/arm/packs/AlifSemiconductor/Ensemble/1.3.3/drivers/source/uart.c:504
            if (uart_int_status == UART_IIR_CHARACTER_TIMEOUT)
80005396:	f1bc 0f0c 	cmp.w	ip, #12
8000539a:	6188      	str	r0, [r1, #24]
8000539c:	bf02      	ittt	eq
8000539e:	2004      	moveq	r0, #4
/Users/till/.cache/arm/packs/AlifSemiconductor/Ensemble/1.3.3/drivers/source/uart.c:512
                transfer->status = UART_TRANSFER_STATUS_RX_TIMEOUT;
800053a0:	6188      	streq	r0, [r1, #24]
/Users/till/.cache/arm/packs/AlifSemiconductor/Ensemble/1.3.3/drivers/source/uart.c:524
}
800053a2:	bd10      	popeq	{r4, pc}
800053a4:	bd10      	pop	{r4, pc}
800053a6:	bf00      	nop
/Users/till/.cache/arm/packs/AlifSemiconductor/Ensemble/1.3.3/drivers/source/uart.c:519
            (void)(uart->UART_USR);
800053a8:	6fc0      	ldr	r0, [r0, #124]	@ 0x7c
/Users/till/.cache/arm/packs/AlifSemiconductor/Ensemble/1.3.3/drivers/source/uart.c:524
}
800053aa:	bd10      	pop	{r4, pc}
/Users/till/.cache/arm/packs/AlifSemiconductor/Ensemble/1.3.3/drivers/source/uart.c:374
            (void)(uart->UART_MSR);
800053ac:	6980      	ldr	r0, [r0, #24]
/Users/till/.cache/arm/packs/AlifSemiconductor/Ensemble/1.3.3/drivers/source/uart.c:524
}
800053ae:	bd10      	pop	{r4, pc}
/Users/till/.cache/arm/packs/AlifSemiconductor/Ensemble/1.3.3/drivers/source/uart.c:379
            rx_line_status = uart->UART_LSR;
800053b0:	6940      	ldr	r0, [r0, #20]
/Users/till/.cache/arm/packs/AlifSemiconductor/Ensemble/1.3.3/drivers/source/uart.c:382
            if (rx_line_status & (UART_LSR_RECEIVER_FIFO_ERR | UART_LSR_OVERRUN_ERR) )
800053b2:	f010 0f82 	tst.w	r0, #130	@ 0x82
800053b6:	d0f5      	beq.n	800053a4 <uart_irq_handler+0xd0>
800053b8:	2208      	movs	r2, #8
/Users/till/.cache/arm/packs/AlifSemiconductor/Ensemble/1.3.3/drivers/source/uart.c:390
                if (rx_line_status & UART_LSR_BREAK_INTERRUPT)
800053ba:	06c3      	lsls	r3, r0, #27
/Users/till/.cache/arm/packs/AlifSemiconductor/Ensemble/1.3.3/drivers/source/uart.c:385
                transfer->status = UART_TRANSFER_STATUS_ERROR;
800053bc:	618a      	str	r2, [r1, #24]
/Users/till/.cache/arm/packs/AlifSemiconductor/Ensemble/1.3.3/drivers/source/uart.c:392
                    transfer->status |= UART_TRANSFER_STATUS_ERROR_RX_BREAK;
800053be:	bf42      	ittt	mi
800053c0:	698a      	ldrmi	r2, [r1, #24]
800053c2:	f042 0280 	orrmi.w	r2, r2, #128	@ 0x80
800053c6:	618a      	strmi	r2, [r1, #24]
/Users/till/.cache/arm/packs/AlifSemiconductor/Ensemble/1.3.3/drivers/source/uart.c:395
                if (rx_line_status & UART_LSR_FRAME_ERR)
800053c8:	0702      	lsls	r2, r0, #28
/Users/till/.cache/arm/packs/AlifSemiconductor/Ensemble/1.3.3/drivers/source/uart.c:397
                    transfer->status |= UART_TRANSFER_STATUS_ERROR_RX_FRAMING;
800053ca:	bf42      	ittt	mi
800053cc:	698a      	ldrmi	r2, [r1, #24]
800053ce:	f042 0240 	orrmi.w	r2, r2, #64	@ 0x40
800053d2:	618a      	strmi	r2, [r1, #24]
/Users/till/.cache/arm/packs/AlifSemiconductor/Ensemble/1.3.3/drivers/source/uart.c:400
                if (rx_line_status & UART_LSR_PARITY_ERR)
800053d4:	0742      	lsls	r2, r0, #29
/Users/till/.cache/arm/packs/AlifSemiconductor/Ensemble/1.3.3/drivers/source/uart.c:402
                    transfer->status |= UART_TRANSFER_STATUS_ERROR_RX_PARITY;
800053d6:	bf42      	ittt	mi
800053d8:	698a      	ldrmi	r2, [r1, #24]
800053da:	f042 0220 	orrmi.w	r2, r2, #32
800053de:	618a      	strmi	r2, [r1, #24]
/Users/till/.cache/arm/packs/AlifSemiconductor/Ensemble/1.3.3/drivers/source/uart.c:405
                if (rx_line_status & UART_LSR_OVERRUN_ERR)
800053e0:	0780      	lsls	r0, r0, #30
800053e2:	d5df      	bpl.n	800053a4 <uart_irq_handler+0xd0>
/Users/till/.cache/arm/packs/AlifSemiconductor/Ensemble/1.3.3/drivers/source/uart.c:407
                    transfer->status |= UART_TRANSFER_STATUS_ERROR_RX_OVERRUN;
800053e4:	6988      	ldr	r0, [r1, #24]
800053e6:	f040 0010 	orr.w	r0, r0, #16
800053ea:	6188      	str	r0, [r1, #24]
/Users/till/.cache/arm/packs/AlifSemiconductor/Ensemble/1.3.3/drivers/source/uart.c:524
}
800053ec:	bd10      	pop	{r4, pc}

800053ee <__cxa_guard_acquire>:
__cxa_guard_acquire():
800053ee:	7801      	ldrb	r1, [r0, #0]
800053f0:	b109      	cbz	r1, 800053f6 <__cxa_guard_acquire+0x8>
800053f2:	2000      	movs	r0, #0
800053f4:	4770      	bx	lr
800053f6:	7841      	ldrb	r1, [r0, #1]
800053f8:	2901      	cmp	r1, #1
800053fa:	d003      	beq.n	80005404 <__cxa_guard_acquire+0x16>
800053fc:	078a      	lsls	r2, r1, #30
800053fe:	d405      	bmi.n	8000540c <__cxa_guard_acquire+0x1e>
80005400:	2202      	movs	r2, #2
80005402:	7042      	strb	r2, [r0, #1]
80005404:	1e48      	subs	r0, r1, #1
80005406:	bf18      	it	ne
80005408:	2001      	movne	r0, #1
8000540a:	4770      	bx	lr
8000540c:	b580      	push	{r7, lr}
8000540e:	f246 00a4 	movw	r0, #24740	@ 0x60a4
80005412:	f2c8 0000 	movt	r0, #32768	@ 0x8000
80005416:	f000 f804 	bl	80005422 <abort_message>

8000541a <__cxa_guard_release>:
__cxa_guard_release():
8000541a:	2101      	movs	r1, #1
8000541c:	7001      	strb	r1, [r0, #0]
8000541e:	7041      	strb	r1, [r0, #1]
80005420:	4770      	bx	lr

80005422 <abort_message>:
abort_message():
80005422:	b580      	push	{r7, lr}
80005424:	f7fc fa1a 	bl	8000185c <abort>

80005428 <_btod_d2e>:
_btod_d2e():
80005428:	ea5f 0c40 	movs.w	ip, r0, lsl #1
8000542c:	bf08      	it	eq
8000542e:	f091 0f00 	teqeq	r1, #0
80005432:	ea4f 238c 	mov.w	r3, ip, lsl #10
80005436:	ea4f 22c1 	mov.w	r2, r1, lsl #11
8000543a:	ea43 5151 	orr.w	r1, r3, r1, lsr #21
8000543e:	ea4f 501c 	mov.w	r0, ip, lsr #20
80005442:	bf18      	it	ne
80005444:	f500 40f0 	addne.w	r0, r0, #30720	@ 0x7800
80005448:	ea4f 0030 	mov.w	r0, r0, rrx
8000544c:	bf18      	it	ne
8000544e:	f041 4100 	orrne.w	r1, r1, #2147483648	@ 0x80000000
80005452:	ea5f 5c6c 	movs.w	ip, ip, asr #21
80005456:	f000 8029 	beq.w	800054ac <_d2e_norm_op1>
8000545a:	f1bc 3fff 	cmp.w	ip, #4294967295	@ 0xffffffff
8000545e:	bf08      	it	eq
80005460:	f040 4080 	orreq.w	r0, r0, #1073741824	@ 0x40000000
80005464:	4770      	bx	lr

80005466 <_d2e_denorm_low>:
_d2e_denorm_low():
80005466:	0c13      	lsrs	r3, r2, #16
80005468:	bf06      	itte	eq
8000546a:	0412      	lsleq	r2, r2, #16
8000546c:	f04f 0c10 	moveq.w	ip, #16
80005470:	f04f 0c00 	movne.w	ip, #0
80005474:	0e13      	lsrs	r3, r2, #24
80005476:	bf04      	itt	eq
80005478:	0212      	lsleq	r2, r2, #8
8000547a:	f10c 0c08 	addeq.w	ip, ip, #8
8000547e:	0f13      	lsrs	r3, r2, #28
80005480:	bf04      	itt	eq
80005482:	0112      	lsleq	r2, r2, #4
80005484:	f10c 0c04 	addeq.w	ip, ip, #4
80005488:	0f93      	lsrs	r3, r2, #30
8000548a:	bf04      	itt	eq
8000548c:	0092      	lsleq	r2, r2, #2
8000548e:	f10c 0c02 	addeq.w	ip, ip, #2
80005492:	0fd3      	lsrs	r3, r2, #31
80005494:	bf04      	itt	eq
80005496:	0052      	lsleq	r2, r2, #1
80005498:	f10c 0c01 	addeq.w	ip, ip, #1
8000549c:	4611      	mov	r1, r2
8000549e:	f04f 0200 	mov.w	r2, #0
800054a2:	f1a0 001f 	sub.w	r0, r0, #31
800054a6:	eba0 000c 	sub.w	r0, r0, ip
800054aa:	4770      	bx	lr

800054ac <_d2e_norm_op1>:
_d2e_norm_op1():
800054ac:	f011 4f00 	tst.w	r1, #2147483648	@ 0x80000000
800054b0:	bf08      	it	eq
800054b2:	4770      	bxeq	lr
800054b4:	f031 4100 	bics.w	r1, r1, #2147483648	@ 0x80000000
800054b8:	f43f afd5 	beq.w	80005466 <_d2e_denorm_low>
800054bc:	0c0b      	lsrs	r3, r1, #16
800054be:	bf06      	itte	eq
800054c0:	0409      	lsleq	r1, r1, #16
800054c2:	f04f 0c10 	moveq.w	ip, #16
800054c6:	f04f 0c00 	movne.w	ip, #0
800054ca:	0e0b      	lsrs	r3, r1, #24
800054cc:	bf04      	itt	eq
800054ce:	0209      	lsleq	r1, r1, #8
800054d0:	f10c 0c08 	addeq.w	ip, ip, #8
800054d4:	0f0b      	lsrs	r3, r1, #28
800054d6:	bf04      	itt	eq
800054d8:	0109      	lsleq	r1, r1, #4
800054da:	f10c 0c04 	addeq.w	ip, ip, #4
800054de:	0f8b      	lsrs	r3, r1, #30
800054e0:	bf04      	itt	eq
800054e2:	0089      	lsleq	r1, r1, #2
800054e4:	f10c 0c02 	addeq.w	ip, ip, #2
800054e8:	0fcb      	lsrs	r3, r1, #31
800054ea:	bf04      	itt	eq
800054ec:	0049      	lsleq	r1, r1, #1
800054ee:	f10c 0c01 	addeq.w	ip, ip, #1
800054f2:	f1cc 0320 	rsb	r3, ip, #32
800054f6:	fa22 f303 	lsr.w	r3, r2, r3
800054fa:	ea41 0103 	orr.w	r1, r1, r3
800054fe:	fa02 f20c 	lsl.w	r2, r2, ip
80005502:	eba0 000c 	sub.w	r0, r0, ip
80005506:	f100 0001 	add.w	r0, r0, #1
8000550a:	4770      	bx	lr

8000550c <__btod_div_common>:
__btod_div_common():
8000550c:	f023 477f 	bic.w	r7, r3, #4278190080	@ 0xff000000
80005510:	f020 4c7f 	bic.w	ip, r0, #4278190080	@ 0xff000000
80005514:	ea80 0003 	eor.w	r0, r0, r3
80005518:	f000 4000 	and.w	r0, r0, #2147483648	@ 0x80000000
8000551c:	ebac 0307 	sub.w	r3, ip, r7
80005520:	f503 537c 	add.w	r3, r3, #16128	@ 0x3f00
80005524:	f103 03ff 	add.w	r3, r3, #255	@ 0xff
80005528:	e92d 4980 	stmdb	sp!, {r7, r8, fp, lr}
8000552c:	b409      	push	{r0, r3}
8000552e:	ea4f 4314 	mov.w	r3, r4, lsr #16
80005532:	ea24 4803 	bic.w	r8, r4, r3, lsl #16
80005536:	ea4f 4b15 	mov.w	fp, r5, lsr #16
8000553a:	ea25 4e0b 	bic.w	lr, r5, fp, lsl #16
8000553e:	f20f 2604 	addw	r6, pc, #516	@ 0x204
80005542:	eb06 2713 	add.w	r7, r6, r3, lsr #8
80005546:	783e      	ldrb	r6, [r7, #0]
80005548:	fb03 6706 	mla	r7, r3, r6, r6
8000554c:	f5c7 0700 	rsb	r7, r7, #8388608	@ 0x800000
80005550:	fb07 f606 	mul.w	r6, r7, r6
80005554:	ea4f 46d6 	mov.w	r6, r6, lsr #19
80005558:	f106 0602 	add.w	r6, r6, #2
8000555c:	ea4f 3754 	mov.w	r7, r4, lsr #13
80005560:	fb07 6c06 	mla	ip, r7, r6, r6
80005564:	f1cc 5c00 	rsb	ip, ip, #536870912	@ 0x20000000
80005568:	ea4f 471c 	mov.w	r7, ip, lsr #16
8000556c:	ea2c 4c07 	bic.w	ip, ip, r7, lsl #16
80005570:	fb0c f506 	mul.w	r5, ip, r6
80005574:	fb07 f406 	mul.w	r4, r7, r6
80005578:	eb04 4615 	add.w	r6, r4, r5, lsr #16
8000557c:	ea4f 1696 	mov.w	r6, r6, lsr #6
80005580:	0849      	lsrs	r1, r1, #1
80005582:	ea5f 0232 	movs.w	r2, r2, rrx
80005586:	bf34      	ite	cc
80005588:	2000      	movcc	r0, #0
8000558a:	f04f 4000 	movcs.w	r0, #2147483648	@ 0x80000000
8000558e:	ea4f 37d1 	mov.w	r7, r1, lsr #15
80005592:	fb06 fc07 	mul.w	ip, r6, r7
80005596:	ea4f 4c1c 	mov.w	ip, ip, lsr #16
8000559a:	fb0c f70b 	mul.w	r7, ip, fp
8000559e:	1bd2      	subs	r2, r2, r7
800055a0:	fb03 f70c 	mul.w	r7, r3, ip
800055a4:	eb61 0107 	sbc.w	r1, r1, r7
800055a8:	fb0c f70e 	mul.w	r7, ip, lr
800055ac:	ebb0 4007 	subs.w	r0, r0, r7, lsl #16
800055b0:	eb72 4217 	sbcs.w	r2, r2, r7, lsr #16
800055b4:	fb0c f708 	mul.w	r7, ip, r8
800055b8:	bf34      	ite	cc
800055ba:	eba2 4207 	subcc.w	r2, r2, r7, lsl #16
800055be:	ebb2 4207 	subscs.w	r2, r2, r7, lsl #16
800055c2:	eb61 4117 	sbc.w	r1, r1, r7, lsr #16
800055c6:	ea4f 440c 	mov.w	r4, ip, lsl #16
800055ca:	ea4f 0791 	mov.w	r7, r1, lsr #2
800055ce:	fb06 fc07 	mul.w	ip, r6, r7
800055d2:	ea4f 4c1c 	mov.w	ip, ip, lsr #16
800055d6:	fb0c f70b 	mul.w	r7, ip, fp
800055da:	ebb0 40c7 	subs.w	r0, r0, r7, lsl #19
800055de:	eb72 3257 	sbcs.w	r2, r2, r7, lsr #13
800055e2:	fb03 f70c 	mul.w	r7, r3, ip
800055e6:	bf34      	ite	cc
800055e8:	eba2 42c7 	subcc.w	r2, r2, r7, lsl #19
800055ec:	ebb2 42c7 	subscs.w	r2, r2, r7, lsl #19
800055f0:	eb61 3157 	sbc.w	r1, r1, r7, lsr #13
800055f4:	fb0c f70e 	mul.w	r7, ip, lr
800055f8:	ebb0 00c7 	subs.w	r0, r0, r7, lsl #3
800055fc:	eb72 7257 	sbcs.w	r2, r2, r7, lsr #29
80005600:	fb0c f708 	mul.w	r7, ip, r8
80005604:	bf34      	ite	cc
80005606:	eba2 02c7 	subcc.w	r2, r2, r7, lsl #3
8000560a:	ebb2 02c7 	subscs.w	r2, r2, r7, lsl #3
8000560e:	eb61 7157 	sbc.w	r1, r1, r7, lsr #29
80005612:	ea4f 6181 	mov.w	r1, r1, lsl #26
80005616:	ea41 1192 	orr.w	r1, r1, r2, lsr #6
8000561a:	ea4f 6282 	mov.w	r2, r2, lsl #26
8000561e:	ea42 1290 	orr.w	r2, r2, r0, lsr #6
80005622:	ea4f 6080 	mov.w	r0, r0, lsl #26
80005626:	eb04 04cc 	add.w	r4, r4, ip, lsl #3
8000562a:	9f03      	ldr	r7, [sp, #12]
8000562c:	ea4f 37d1 	mov.w	r7, r1, lsr #15
80005630:	fb06 fc07 	mul.w	ip, r6, r7
80005634:	ea4f 4c1c 	mov.w	ip, ip, lsr #16
80005638:	fb0c f70b 	mul.w	r7, ip, fp
8000563c:	1bd2      	subs	r2, r2, r7
8000563e:	fb03 f70c 	mul.w	r7, r3, ip
80005642:	eb61 0107 	sbc.w	r1, r1, r7
80005646:	fb0c f70e 	mul.w	r7, ip, lr
8000564a:	ebb0 4007 	subs.w	r0, r0, r7, lsl #16
8000564e:	eb72 4217 	sbcs.w	r2, r2, r7, lsr #16
80005652:	fb0c f708 	mul.w	r7, ip, r8
80005656:	bf34      	ite	cc
80005658:	eba2 4207 	subcc.w	r2, r2, r7, lsl #16
8000565c:	ebb2 4207 	subscs.w	r2, r2, r7, lsl #16
80005660:	eb61 4117 	sbc.w	r1, r1, r7, lsr #16
80005664:	ea4f 558c 	mov.w	r5, ip, lsl #22
80005668:	eb04 249c 	add.w	r4, r4, ip, lsr #10
8000566c:	ea4f 0791 	mov.w	r7, r1, lsr #2
80005670:	fb06 fc07 	mul.w	ip, r6, r7
80005674:	ea4f 4c1c 	mov.w	ip, ip, lsr #16
80005678:	fb0c f70b 	mul.w	r7, ip, fp
8000567c:	ebb0 40c7 	subs.w	r0, r0, r7, lsl #19
80005680:	eb72 3257 	sbcs.w	r2, r2, r7, lsr #13
80005684:	fb03 f70c 	mul.w	r7, r3, ip
80005688:	bf34      	ite	cc
8000568a:	eba2 42c7 	subcc.w	r2, r2, r7, lsl #19
8000568e:	ebb2 42c7 	subscs.w	r2, r2, r7, lsl #19
80005692:	eb61 3157 	sbc.w	r1, r1, r7, lsr #13
80005696:	fb0c f70e 	mul.w	r7, ip, lr
8000569a:	ebb0 00c7 	subs.w	r0, r0, r7, lsl #3
8000569e:	eb72 7257 	sbcs.w	r2, r2, r7, lsr #29
800056a2:	fb0c f708 	mul.w	r7, ip, r8
800056a6:	bf34      	ite	cc
800056a8:	eba2 02c7 	subcc.w	r2, r2, r7, lsl #3
800056ac:	ebb2 02c7 	subscs.w	r2, r2, r7, lsl #3
800056b0:	eb61 7157 	sbc.w	r1, r1, r7, lsr #29
800056b4:	ea4f 6181 	mov.w	r1, r1, lsl #26
800056b8:	ea41 1192 	orr.w	r1, r1, r2, lsr #6
800056bc:	ea4f 6282 	mov.w	r2, r2, lsl #26
800056c0:	ea42 1290 	orr.w	r2, r2, r0, lsr #6
800056c4:	ea4f 6080 	mov.w	r0, r0, lsl #26
800056c8:	eb15 254c 	adds.w	r5, r5, ip, lsl #9
800056cc:	f144 0400 	adc.w	r4, r4, #0
800056d0:	ea4f 37d1 	mov.w	r7, r1, lsr #15
800056d4:	fb06 fc07 	mul.w	ip, r6, r7
800056d8:	ea4f 4c1c 	mov.w	ip, ip, lsr #16
800056dc:	fb0c f70b 	mul.w	r7, ip, fp
800056e0:	1bd2      	subs	r2, r2, r7
800056e2:	fb03 f70c 	mul.w	r7, r3, ip
800056e6:	eb61 0107 	sbc.w	r1, r1, r7
800056ea:	fb0c f70e 	mul.w	r7, ip, lr
800056ee:	ebb0 4007 	subs.w	r0, r0, r7, lsl #16
800056f2:	eb72 4217 	sbcs.w	r2, r2, r7, lsr #16
800056f6:	fb0c f708 	mul.w	r7, ip, r8
800056fa:	bf34      	ite	cc
800056fc:	eba2 4207 	subcc.w	r2, r2, r7, lsl #16
80005700:	ebb2 4207 	subscs.w	r2, r2, r7, lsl #16
80005704:	eb61 4117 	sbc.w	r1, r1, r7, lsr #16
80005708:	ea4f 3181 	mov.w	r1, r1, lsl #14
8000570c:	ea41 4192 	orr.w	r1, r1, r2, lsr #18
80005710:	ea4f 3282 	mov.w	r2, r2, lsl #14
80005714:	ea42 4290 	orr.w	r2, r2, r0, lsr #18
80005718:	ea4f 3080 	mov.w	r0, r0, lsl #14
8000571c:	ea4f 760c 	mov.w	r6, ip, lsl #28
80005720:	eb15 151c 	adds.w	r5, r5, ip, lsr #4
80005724:	f144 0400 	adc.w	r4, r4, #0
80005728:	ea48 4303 	orr.w	r3, r8, r3, lsl #16
8000572c:	ea4e 480b 	orr.w	r8, lr, fp, lsl #16
80005730:	f04f 0e00 	mov.w	lr, #0
80005734:	ebb2 0c08 	subs.w	ip, r2, r8
80005738:	eb71 0703 	sbcs.w	r7, r1, r3
8000573c:	bf24      	itt	cs
8000573e:	4662      	movcs	r2, ip
80005740:	4639      	movcs	r1, r7
80005742:	eb4e 0e0e 	adc.w	lr, lr, lr
80005746:	f04f 0b00 	mov.w	fp, #0
8000574a:	1800      	adds	r0, r0, r0
8000574c:	4152      	adcs	r2, r2
8000574e:	4149      	adcs	r1, r1
80005750:	eb4b 0b0b 	adc.w	fp, fp, fp
80005754:	ebb2 0c08 	subs.w	ip, r2, r8
80005758:	eb71 0703 	sbcs.w	r7, r1, r3
8000575c:	f17b 0b00 	sbcs.w	fp, fp, #0
80005760:	bf24      	itt	cs
80005762:	4662      	movcs	r2, ip
80005764:	4639      	movcs	r1, r7
80005766:	eb4e 0e0e 	adc.w	lr, lr, lr
8000576a:	f04f 0b00 	mov.w	fp, #0
8000576e:	1800      	adds	r0, r0, r0
80005770:	4152      	adcs	r2, r2
80005772:	4149      	adcs	r1, r1
80005774:	eb4b 0b0b 	adc.w	fp, fp, fp
80005778:	ebb2 0c08 	subs.w	ip, r2, r8
8000577c:	eb71 0703 	sbcs.w	r7, r1, r3
80005780:	f17b 0b00 	sbcs.w	fp, fp, #0
80005784:	bf24      	itt	cs
80005786:	4662      	movcs	r2, ip
80005788:	4639      	movcs	r1, r7
8000578a:	eb4e 0e0e 	adc.w	lr, lr, lr
8000578e:	ea51 0702 	orrs.w	r7, r1, r2
80005792:	bf18      	it	ne
80005794:	f046 0601 	orrne.w	r6, r6, #1
80005798:	eb16 760e 	adds.w	r6, r6, lr, lsl #28
8000579c:	f155 0200 	adcs.w	r2, r5, #0
800057a0:	f154 0100 	adcs.w	r1, r4, #0
800057a4:	d503      	bpl.n	800057ae <__btod_div_common+0x2a2>
800057a6:	e8bd 0189 	ldmia.w	sp!, {r0, r3, r7, r8}
800057aa:	e8bd 8800 	ldmia.w	sp!, {fp, pc}
800057ae:	e8bd 0189 	ldmia.w	sp!, {r0, r3, r7, r8}
800057b2:	e8bd 4800 	ldmia.w	sp!, {fp, lr}
800057b6:	19b6      	adds	r6, r6, r6
800057b8:	4152      	adcs	r2, r2
800057ba:	eb41 0101 	adc.w	r1, r1, r1
800057be:	f1a3 0301 	sub.w	r3, r3, #1
800057c2:	4770      	bx	lr
800057c4:	7e7f8080 	.word	0x7e7f8080
800057c8:	7a7b7c7d 	.word	0x7a7b7c7d
800057cc:	76777879 	.word	0x76777879
800057d0:	73747576 	.word	0x73747576
800057d4:	70717172 	.word	0x70717172
800057d8:	6d6e6e6f 	.word	0x6d6e6e6f
800057dc:	6a6b6c6c 	.word	0x6a6b6c6c
800057e0:	6868696a 	.word	0x6868696a
800057e4:	65666667 	.word	0x65666667
800057e8:	63636464 	.word	0x63636464
800057ec:	60616162 	.word	0x60616162
800057f0:	5e5f5f60 	.word	0x5e5f5f60
800057f4:	5c5d5d5e 	.word	0x5c5d5d5e
800057f8:	5a5b5b5c 	.word	0x5a5b5b5c
800057fc:	5859595a 	.word	0x5859595a
80005800:	56575758 	.word	0x56575758
80005804:	55555556 	.word	0x55555556
80005808:	53535454 	.word	0x53535454
8000580c:	51525252 	.word	0x51525252
80005810:	50505051 	.word	0x50505051
80005814:	4e4f4f4f 	.word	0x4e4f4f4f
80005818:	4d4d4d4e 	.word	0x4d4d4d4e
8000581c:	4b4c4c4c 	.word	0x4b4c4c4c
80005820:	4a4a4b4b 	.word	0x4a4a4b4b
80005824:	4949494a 	.word	0x4949494a
80005828:	47484848 	.word	0x47484848
8000582c:	46474747 	.word	0x46474747
80005830:	45454646 	.word	0x45454646
80005834:	44444445 	.word	0x44444445
80005838:	43434344 	.word	0x43434344
8000583c:	42424243 	.word	0x42424243
80005840:	41414142 	.word	0x41414142

80005844 <_e2e>:
_e2e():
80005844:	469c      	mov	ip, r3
80005846:	2b00      	cmp	r3, #0
80005848:	d430      	bmi.n	800058ac <_e2e+0x68>
8000584a:	0077      	lsls	r7, r6, #1
8000584c:	d02b      	beq.n	800058a6 <_e2e+0x62>
8000584e:	ea4f 0737 	mov.w	r7, r7, rrx
80005852:	b51c      	push	{r2, r3, r4, lr}
80005854:	b403      	push	{r0, r1}
80005856:	f04f 0010 	mov.w	r0, #16
8000585a:	f04f 0110 	mov.w	r1, #16
8000585e:	f1ba 0f00 	cmp.w	sl, #0
80005862:	d006      	beq.n	80005872 <_e2e+0x2e>
80005864:	f1bc 0f00 	cmp.w	ip, #0
80005868:	bfdc      	itt	le
8000586a:	f040 0008 	orrle.w	r0, r0, #8
8000586e:	f040 0108 	orrle.w	r1, r0, #8
80005872:	f04f 0000 	mov.w	r0, #0
80005876:	bc0f      	pop	{r0, r1, r2, r3}
80005878:	e8bd 4010 	ldmia.w	sp!, {r4, lr}
8000587c:	f10b 0b01 	add.w	fp, fp, #1
80005880:	f1bb 0f01 	cmp.w	fp, #1
80005884:	bf08      	it	eq
80005886:	ea5f 0717 	movseq.w	r7, r7, lsr #32
8000588a:	bf22      	ittt	cs
8000588c:	f112 0201 	addscs.w	r2, r2, #1
80005890:	f111 0101 	addscs.w	r1, r1, #1
80005894:	f04f 4100 	movcs.w	r1, #2147483648	@ 0x80000000
80005898:	f143 0300 	adc.w	r3, r3, #0
8000589c:	f000 4000 	and.w	r0, r0, #2147483648	@ 0x80000000
800058a0:	ea43 0000 	orr.w	r0, r3, r0
800058a4:	4770      	bx	lr
800058a6:	d3f9      	bcc.n	8000589c <_e2e+0x58>
800058a8:	0857      	lsrs	r7, r2, #1
800058aa:	e7d0      	b.n	8000584e <_e2e+0xa>
800058ac:	ea46 4606 	orr.w	r6, r6, r6, lsl #16
800058b0:	ea4f 4616 	mov.w	r6, r6, lsr #16
800058b4:	f113 0f40 	cmn.w	r3, #64	@ 0x40
800058b8:	dd1f      	ble.n	800058fa <_e2e+0xb6>
800058ba:	f113 0f20 	cmn.w	r3, #32
800058be:	bfdf      	itttt	le
800058c0:	4316      	orrle	r6, r2
800058c2:	460a      	movle	r2, r1
800058c4:	2100      	movle	r1, #0
800058c6:	3320      	addle	r3, #32
800058c8:	425b      	negs	r3, r3
800058ca:	d0be      	beq.n	8000584a <_e2e+0x6>
800058cc:	f1c3 0720 	rsb	r7, r3, #32
800058d0:	ea46 4606 	orr.w	r6, r6, r6, lsl #16
800058d4:	ea4f 4616 	mov.w	r6, r6, lsr #16
800058d8:	fa02 f707 	lsl.w	r7, r2, r7
800058dc:	ea46 0607 	orr.w	r6, r6, r7
800058e0:	fa22 f203 	lsr.w	r2, r2, r3
800058e4:	f1c3 0720 	rsb	r7, r3, #32
800058e8:	fa01 f707 	lsl.w	r7, r1, r7
800058ec:	ea42 0207 	orr.w	r2, r2, r7
800058f0:	fa21 f103 	lsr.w	r1, r1, r3
800058f4:	f04f 0300 	mov.w	r3, #0
800058f8:	e7a7      	b.n	8000584a <_e2e+0x6>
800058fa:	ea46 0602 	orr.w	r6, r6, r2
800058fe:	ea46 4606 	orr.w	r6, r6, r6, lsl #16
80005902:	ea4f 4616 	mov.w	r6, r6, lsr #16
80005906:	ea46 0601 	orr.w	r6, r6, r1
8000590a:	bfbc      	itt	lt
8000590c:	ea46 4606 	orrlt.w	r6, r6, r6, lsl #16
80005910:	0c36      	lsrlt	r6, r6, #16
80005912:	f04f 0300 	mov.w	r3, #0
80005916:	f04f 0200 	mov.w	r2, #0
8000591a:	f04f 0100 	mov.w	r1, #0
8000591e:	e794      	b.n	8000584a <_e2e+0x6>

80005920 <_btod_ediv>:
_btod_ediv():
80005920:	e92d 4c80 	stmdb	sp!, {r7, sl, fp, lr}
80005924:	b470      	push	{r4, r5, r6}
80005926:	469a      	mov	sl, r3
80005928:	4693      	mov	fp, r2
8000592a:	e891 0038 	ldmia.w	r1, {r3, r4, r5}
8000592e:	c807      	ldmia	r0, {r0, r1, r2}
80005930:	ea31 0c40 	bics.w	ip, r1, r0, lsl #1
80005934:	bf48      	it	mi
80005936:	ea34 0c43 	bicsmi.w	ip, r4, r3, lsl #1
8000593a:	d503      	bpl.n	80005944 <_btod_ediv+0x24>
8000593c:	f7ff fde6 	bl	8000550c <__btod_div_common>
80005940:	f7ff ff80 	bl	80005844 <_e2e>
80005944:	bcf0      	pop	{r4, r5, r6, r7}
80005946:	e8bd 8c00 	ldmia.w	sp!, {sl, fp, pc}

8000594a <_btod_emul>:
_btod_emul():
8000594a:	e92d 4c80 	stmdb	sp!, {r7, sl, fp, lr}
8000594e:	b470      	push	{r4, r5, r6}
80005950:	469a      	mov	sl, r3
80005952:	4693      	mov	fp, r2
80005954:	e891 0038 	ldmia.w	r1, {r3, r4, r5}
80005958:	c807      	ldmia	r0, {r0, r1, r2}
8000595a:	f010 4f80 	tst.w	r0, #1073741824	@ 0x40000000
8000595e:	bf08      	it	eq
80005960:	f013 4f80 	tsteq.w	r3, #1073741824	@ 0x40000000
80005964:	d103      	bne.n	8000596e <_btod_emul+0x24>
80005966:	f000 f805 	bl	80005974 <__btod_mult_common>
8000596a:	f7ff ff6b 	bl	80005844 <_e2e>
8000596e:	bcf0      	pop	{r4, r5, r6, r7}
80005970:	e8bd 8c00 	ldmia.w	sp!, {sl, fp, pc}

80005974 <__btod_mult_common>:
__btod_mult_common():
80005974:	f020 477f 	bic.w	r7, r0, #4278190080	@ 0xff000000
80005978:	f023 4c7f 	bic.w	ip, r3, #4278190080	@ 0xff000000
8000597c:	ea80 0003 	eor.w	r0, r0, r3
80005980:	f000 4000 	and.w	r0, r0, #2147483648	@ 0x80000000
80005984:	eb07 030c 	add.w	r3, r7, ip
80005988:	f5a3 537c 	sub.w	r3, r3, #16128	@ 0x3f00
8000598c:	f1a3 03fe 	sub.w	r3, r3, #254	@ 0xfe
80005990:	f092 0f00 	teq	r2, #0
80005994:	f000 80b3 	beq.w	80005afe <__btod_mult_common+0x18a>
80005998:	f095 0f00 	teq	r5, #0
8000599c:	f000 8077 	beq.w	80005a8e <__btod_mult_common+0x11a>
800059a0:	e92d 4901 	stmdb	sp!, {r0, r8, fp, lr}
800059a4:	ea4f 4011 	mov.w	r0, r1, lsr #16
800059a8:	ea21 4800 	bic.w	r8, r1, r0, lsl #16
800059ac:	ea4f 4614 	mov.w	r6, r4, lsr #16
800059b0:	ea24 4706 	bic.w	r7, r4, r6, lsl #16
800059b4:	fb00 fc06 	mul.w	ip, r0, r6
800059b8:	fb08 f606 	mul.w	r6, r8, r6
800059bc:	fb07 f808 	mul.w	r8, r7, r8
800059c0:	eb18 4806 	adds.w	r8, r8, r6, lsl #16
800059c4:	eb4c 4c16 	adc.w	ip, ip, r6, lsr #16
800059c8:	fb00 f707 	mul.w	r7, r0, r7
800059cc:	eb18 4807 	adds.w	r8, r8, r7, lsl #16
800059d0:	eb4c 4017 	adc.w	r0, ip, r7, lsr #16
800059d4:	ea4f 4b12 	mov.w	fp, r2, lsr #16
800059d8:	ea22 4e0b 	bic.w	lr, r2, fp, lsl #16
800059dc:	ea4f 4615 	mov.w	r6, r5, lsr #16
800059e0:	ea25 4706 	bic.w	r7, r5, r6, lsl #16
800059e4:	fb0b fc06 	mul.w	ip, fp, r6
800059e8:	fb0e f606 	mul.w	r6, lr, r6
800059ec:	fb07 fe0e 	mul.w	lr, r7, lr
800059f0:	eb1e 4e06 	adds.w	lr, lr, r6, lsl #16
800059f4:	eb4c 4c16 	adc.w	ip, ip, r6, lsr #16
800059f8:	fb0b f707 	mul.w	r7, fp, r7
800059fc:	eb1e 4e07 	adds.w	lr, lr, r7, lsl #16
80005a00:	eb4c 4b17 	adc.w	fp, ip, r7, lsr #16
80005a04:	eb18 080b 	adds.w	r8, r8, fp
80005a08:	f140 0000 	adc.w	r0, r0, #0
80005a0c:	eb18 0b0e 	adds.w	fp, r8, lr
80005a10:	eb58 0800 	adcs.w	r8, r8, r0
80005a14:	f140 0000 	adc.w	r0, r0, #0
80005a18:	1a8f      	subs	r7, r1, r2
80005a1a:	f04f 0100 	mov.w	r1, #0
80005a1e:	f04f 0600 	mov.w	r6, #0
80005a22:	bf3c      	itt	cc
80005a24:	43c9      	mvncc	r1, r1
80005a26:	1b66      	subcc	r6, r4, r5
80005a28:	bf14      	ite	ne
80005a2a:	ebb5 0c04 	subsne.w	ip, r5, r4
80005a2e:	2100      	moveq	r1, #0
80005a30:	bf3c      	itt	cc
80005a32:	43c9      	mvncc	r1, r1
80005a34:	1bf6      	subcc	r6, r6, r7
80005a36:	ea4f 4417 	mov.w	r4, r7, lsr #16
80005a3a:	ea27 4504 	bic.w	r5, r7, r4, lsl #16
80005a3e:	ea4f 471c 	mov.w	r7, ip, lsr #16
80005a42:	ea2c 4c07 	bic.w	ip, ip, r7, lsl #16
80005a46:	fb04 6207 	mla	r2, r4, r7, r6
80005a4a:	fb05 f707 	mul.w	r7, r5, r7
80005a4e:	fb0c f605 	mul.w	r6, ip, r5
80005a52:	eb16 4607 	adds.w	r6, r6, r7, lsl #16
80005a56:	eb42 4217 	adc.w	r2, r2, r7, lsr #16
80005a5a:	fb04 fc0c 	mul.w	ip, r4, ip
80005a5e:	eb16 460c 	adds.w	r6, r6, ip, lsl #16
80005a62:	eb42 421c 	adc.w	r2, r2, ip, lsr #16
80005a66:	eb1b 0606 	adds.w	r6, fp, r6
80005a6a:	eb58 0202 	adcs.w	r2, r8, r2
80005a6e:	4141      	adcs	r1, r0
80005a70:	ea4e 0e8e 	orr.w	lr, lr, lr, lsl #2
80005a74:	ea46 069e 	orr.w	r6, r6, lr, lsr #2
80005a78:	d501      	bpl.n	80005a7e <__btod_mult_common+0x10a>
80005a7a:	e8bd 8901 	ldmia.w	sp!, {r0, r8, fp, pc}
80005a7e:	19b6      	adds	r6, r6, r6
80005a80:	4152      	adcs	r2, r2
80005a82:	eb41 0101 	adc.w	r1, r1, r1
80005a86:	f1a3 0301 	sub.w	r3, r3, #1
80005a8a:	e8bd 8901 	ldmia.w	sp!, {r0, r8, fp, pc}
80005a8e:	ea4f 4514 	mov.w	r5, r4, lsr #16
80005a92:	ea24 4605 	bic.w	r6, r4, r5, lsl #16
80005a96:	ea4f 4711 	mov.w	r7, r1, lsr #16
80005a9a:	ea21 4c07 	bic.w	ip, r1, r7, lsl #16
80005a9e:	fb05 f407 	mul.w	r4, r5, r7
80005aa2:	fb06 f707 	mul.w	r7, r6, r7
80005aa6:	fb0c f106 	mul.w	r1, ip, r6
80005aaa:	eb11 4107 	adds.w	r1, r1, r7, lsl #16
80005aae:	eb44 4417 	adc.w	r4, r4, r7, lsr #16
80005ab2:	fb05 fc0c 	mul.w	ip, r5, ip
80005ab6:	eb11 410c 	adds.w	r1, r1, ip, lsl #16
80005aba:	eb44 441c 	adc.w	r4, r4, ip, lsr #16
80005abe:	ea4f 4712 	mov.w	r7, r2, lsr #16
80005ac2:	ea22 4c07 	bic.w	ip, r2, r7, lsl #16
80005ac6:	fb05 f207 	mul.w	r2, r5, r7
80005aca:	fb06 f707 	mul.w	r7, r6, r7
80005ace:	fb0c f606 	mul.w	r6, ip, r6
80005ad2:	eb16 4607 	adds.w	r6, r6, r7, lsl #16
80005ad6:	eb42 4217 	adc.w	r2, r2, r7, lsr #16
80005ada:	fb05 fc0c 	mul.w	ip, r5, ip
80005ade:	eb16 460c 	adds.w	r6, r6, ip, lsl #16
80005ae2:	eb42 451c 	adc.w	r5, r2, ip, lsr #16
80005ae6:	186a      	adds	r2, r5, r1
80005ae8:	f154 0100 	adcs.w	r1, r4, #0
80005aec:	bf48      	it	mi
80005aee:	4770      	bxmi	lr
80005af0:	19b6      	adds	r6, r6, r6
80005af2:	4152      	adcs	r2, r2
80005af4:	eb41 0101 	adc.w	r1, r1, r1
80005af8:	f1a3 0301 	sub.w	r3, r3, #1
80005afc:	4770      	bx	lr
80005afe:	f095 0f00 	teq	r5, #0
80005b02:	d037      	beq.n	80005b74 <__btod_mult_common+0x200>
80005b04:	ea4f 4211 	mov.w	r2, r1, lsr #16
80005b08:	ea21 4602 	bic.w	r6, r1, r2, lsl #16
80005b0c:	ea4f 4714 	mov.w	r7, r4, lsr #16
80005b10:	ea24 4c07 	bic.w	ip, r4, r7, lsl #16
80005b14:	fb02 f107 	mul.w	r1, r2, r7
80005b18:	fb06 f707 	mul.w	r7, r6, r7
80005b1c:	fb0c f406 	mul.w	r4, ip, r6
80005b20:	eb14 4407 	adds.w	r4, r4, r7, lsl #16
80005b24:	eb41 4117 	adc.w	r1, r1, r7, lsr #16
80005b28:	fb02 fc0c 	mul.w	ip, r2, ip
80005b2c:	eb14 440c 	adds.w	r4, r4, ip, lsl #16
80005b30:	eb41 411c 	adc.w	r1, r1, ip, lsr #16
80005b34:	ea4f 4715 	mov.w	r7, r5, lsr #16
80005b38:	ea25 4c07 	bic.w	ip, r5, r7, lsl #16
80005b3c:	fb02 f507 	mul.w	r5, r2, r7
80005b40:	fb06 f707 	mul.w	r7, r6, r7
80005b44:	fb0c f606 	mul.w	r6, ip, r6
80005b48:	eb16 4607 	adds.w	r6, r6, r7, lsl #16
80005b4c:	eb45 4517 	adc.w	r5, r5, r7, lsr #16
80005b50:	fb02 fc0c 	mul.w	ip, r2, ip
80005b54:	eb16 460c 	adds.w	r6, r6, ip, lsl #16
80005b58:	eb45 421c 	adc.w	r2, r5, ip, lsr #16
80005b5c:	1912      	adds	r2, r2, r4
80005b5e:	f151 0100 	adcs.w	r1, r1, #0
80005b62:	bf48      	it	mi
80005b64:	4770      	bxmi	lr
80005b66:	19b6      	adds	r6, r6, r6
80005b68:	4152      	adcs	r2, r2
80005b6a:	eb41 0101 	adc.w	r1, r1, r1
80005b6e:	f1a3 0301 	sub.w	r3, r3, #1
80005b72:	4770      	bx	lr
80005b74:	ea4f 4514 	mov.w	r5, r4, lsr #16
80005b78:	ea24 4605 	bic.w	r6, r4, r5, lsl #16
80005b7c:	ea4f 4711 	mov.w	r7, r1, lsr #16
80005b80:	ea21 4c07 	bic.w	ip, r1, r7, lsl #16
80005b84:	fb05 f107 	mul.w	r1, r5, r7
80005b88:	fb06 f707 	mul.w	r7, r6, r7
80005b8c:	fb0c f206 	mul.w	r2, ip, r6
80005b90:	eb12 4207 	adds.w	r2, r2, r7, lsl #16
80005b94:	eb41 4117 	adc.w	r1, r1, r7, lsr #16
80005b98:	fb05 fc0c 	mul.w	ip, r5, ip
80005b9c:	eb12 420c 	adds.w	r2, r2, ip, lsl #16
80005ba0:	eb51 411c 	adcs.w	r1, r1, ip, lsr #16
80005ba4:	f04f 0600 	mov.w	r6, #0
80005ba8:	bf48      	it	mi
80005baa:	4770      	bxmi	lr
80005bac:	1892      	adds	r2, r2, r2
80005bae:	eb41 0101 	adc.w	r1, r1, r1
80005bb2:	f1a3 0301 	sub.w	r3, r3, #1
80005bb6:	4770      	bx	lr

80005bb8 <__ARM_fpclassify>:
__ARM_fpclassify():
80005bb8:	b403      	push	{r0, r1}
80005bba:	9801      	ldr	r0, [sp, #4]
80005bbc:	0041      	lsls	r1, r0, #1
80005bbe:	9800      	ldr	r0, [sp, #0]
80005bc0:	ea50 20c1 	orrs.w	r0, r0, r1, lsl #11
80005bc4:	bf18      	it	ne
80005bc6:	2004      	movne	r0, #4
80005bc8:	0d4a      	lsrs	r2, r1, #21
80005bca:	bf18      	it	ne
80005bcc:	f040 0001 	orrne.w	r0, r0, #1
80005bd0:	f240 72ff 	movw	r2, #2047	@ 0x7ff
80005bd4:	ebb2 5f51 	cmp.w	r2, r1, lsr #21
80005bd8:	bf08      	it	eq
80005bda:	f040 0002 	orreq.w	r0, r0, #2
80005bde:	2801      	cmp	r0, #1
80005be0:	bf08      	it	eq
80005be2:	2005      	moveq	r0, #5
80005be4:	b002      	add	sp, #8
80005be6:	4770      	bx	lr

80005be8 <_is_digit>:
_is_digit():
80005be8:	3830      	subs	r0, #48	@ 0x30
80005bea:	280a      	cmp	r0, #10
80005bec:	d201      	bcs.n	80005bf2 <_is_digit+0xa>
80005bee:	2001      	movs	r0, #1
80005bf0:	4770      	bx	lr
80005bf2:	2000      	movs	r0, #0
80005bf4:	4770      	bx	lr

80005bf6 <fputc>:
fputc():
80005bf6:	688a      	ldr	r2, [r1, #8]
80005bf8:	2a00      	cmp	r2, #0
80005bfa:	dc02      	bgt.n	80005c02 <fputc+0xc>
80005bfc:	2200      	movs	r2, #0
80005bfe:	f7fb bb9f 	b.w	80001340 <__flsbuf>
80005c02:	1e52      	subs	r2, r2, #1
80005c04:	608a      	str	r2, [r1, #8]
80005c06:	684a      	ldr	r2, [r1, #4]
80005c08:	b2c0      	uxtb	r0, r0
80005c0a:	1c53      	adds	r3, r2, #1
80005c0c:	604b      	str	r3, [r1, #4]
80005c0e:	7010      	strb	r0, [r2, #0]
80005c10:	4770      	bx	lr
	...

80005c14 <_get_lc_numeric>:
_get_lc_numeric():
80005c14:	b510      	push	{r4, lr}
80005c16:	2900      	cmp	r1, #0
80005c18:	d00a      	beq.n	80005c30 <_get_lc_numeric+0x1c>
80005c1a:	7808      	ldrb	r0, [r1, #0]
80005c1c:	2800      	cmp	r0, #0
80005c1e:	d007      	beq.n	80005c30 <_get_lc_numeric+0x1c>
80005c20:	4805      	ldr	r0, [pc, #20]	@ (80005c38 <_get_lc_numeric+0x24>)
80005c22:	4478      	add	r0, pc
80005c24:	f7fb f8a8 	bl	80000d78 <strcmp>
80005c28:	2800      	cmp	r0, #0
80005c2a:	d001      	beq.n	80005c30 <_get_lc_numeric+0x1c>
80005c2c:	2000      	movs	r0, #0
80005c2e:	bd10      	pop	{r4, pc}
80005c30:	4802      	ldr	r0, [pc, #8]	@ (80005c3c <_get_lc_numeric+0x28>)
80005c32:	4478      	add	r0, pc
80005c34:	bd10      	pop	{r4, pc}
80005c36:	0000      	.short	0x0000
80005c38:	00000536 	.word	0x00000536
80005c3c:	0000052e 	.word	0x0000052e

80005c40 <_fp_init>:
_fp_init():
80005c40:	eef1 0a10 	vmrs	r0, fpscr
80005c44:	f64f 71ff 	movw	r1, #65535	@ 0xffff
80005c48:	f2c0 31c0 	movt	r1, #960	@ 0x3c0
80005c4c:	ea20 0001 	bic.w	r0, r0, r1
80005c50:	f040 7040 	orr.w	r0, r0, #50331648	@ 0x3000000
80005c54:	f440 2080 	orr.w	r0, r0, #262144	@ 0x40000
80005c58:	eee1 0a10 	vmsr	fpscr, r0

80005c5c <__fplib_config_fpu_vfp>:
__fplib_config_fpu_vfp():
80005c5c:	4770      	bx	lr

80005c5e <_printf_fp_dec>:
_printf_fp_dec():
80005c5e:	f7fb ba10 	b.w	80001082 <_printf_fp_dec_real>

80005c62 <__stdin_name>:
__I$use$fp():
80005c62:	743a 0074                                   :tt.

80005c66 <__stdout_name>:
80005c66:	743a 0074                                   :tt.

80005c6a <__stderr_name>:
80005c6a:	743a 0074                                   :tt.

80005c6e <uc_hextab>:
80005c6e:	3130 3332 3534 3736 3938 4241 4443 4645     0123456789ABCDEF
80005c7e:	3040 0058                                   @0X.

80005c82 <lc_hextab>:
80005c82:	3130 3332 3534 3736 3938 6261 6463 6665     0123456789abcdef
80005c92:	3040 0078                                   @0x.

80005c96 <maptable>:
80005c96:	0004 0800 0000 0000 0000 0200 0100 0000     ................
80005ca6:	0010                                        ..

80005ca8 <tenpwrs_x>:
80005ca8:	4002 0000 0000 a000 0000 0000 4005 0000     .@...........@..
80005cb8:	0000 c800 0000 0000 400c 0000 0000 9c40     .........@....@.
80005cc8:	0000 0000 4019 0000 2000 bebc 0000 0000     .....@... ......
80005cd8:	4034 0000 c9bf 8e1b 0000 0400               4@..........

80005ce4 <tenpwrs_i>:
80005ce4:	40b5 0000 4b50 d0cf 0766 cfe2 0001 0000     .@..PK..f.......
80005cf4:	416c 0000 823e aa51 eedf 34a7 0001 0000     lA..>.Q....4....
80005d04:	42d9 0000 b5dc e2a0 303a 971f ffff ffff     .B......:0......
80005d14:	45b4 0000 25fd c8a0 a3e9 4fc1 ffff ffff     .E...%.....O....
80005d24:	3fff 0000 0000 8000 0000 0000 3fff 0000     .?...........?..
80005d34:	0000 8000 0000 0000                         ........

80005d3c <ufsr_bits>:
80005d3c:	4409 5649 5942 455a 4f52 5508 414e 494c     .DIVBYZERO.UNALI
80005d4c:	4e47 4445 5304 4b54 464f 4e03 434f 0250     GNED.STKOF.NOCP.
80005d5c:	4e49 5056 0143 4e49 5356 4154 4554 5500     INVPC.INVSTATE.U
80005d6c:	444e 4645 4e49 5453 2052                     NDEFINSTR .

80005d77 <mmfsr_bits>:
80005d77:	4d07 414d 5652 4c41 4449 4d05 534c 4550     .MMARVALID.MLSPE
80005d87:	5252 4d04 5453 454b 5252 4d03 4e55 5453     RR.MSTKERR.MUNST
80005d97:	454b 5252 4401 4341 5643 4f49 004c 4149     KERR.DACCVIOL.IA
80005da7:	4343 4956 4c4f 0020                         CCVIOL .

80005daf <bfsr_bits>:
80005daf:	4207 4146 5652 4c41 4449 4c05 5053 5245     .BFARVALID.LSPER
80005dbf:	0452 5453 454b 5252 5503 534e 4b54 5245     R.STKERR.UNSTKER
80005dcf:	0252 4d49 5250 4345 5349 5245 0152 5250     R.IMPRECISERR.PR
80005ddf:	4345 5349 5245 0052 4249 5355 5245 2052     ECISERR.IBUSERR 
	...

80005df0 <afsr_bits>:
80005df0:	461e 4f50 5349 4e4f 461d 4754 1c55 4546     .FPOISON.FTGU.FE
80005e00:	4343 4618 414d 4958 461b 414d 4958 5954     CC.FMAXI.FMAXITY
80005e10:	4550 443d 4345 5245 1652 4446 4354 154d     PE=DECERR.FDTCM.
80005e20:	4946 4354 134d 5050 494f 4f53 124e 5450     FITCM.PPOISON.PT
80005e30:	5547 5011 4345 0f43 4950 5050 0e42 4550     GU.PECC.PIPPB.PE
80005e40:	5050 0d42 4d50 5841 1049 4d50 5841 5449     PPB.PMAXI.PMAXIT
80005e50:	5059 3d45 4544 4543 5252 500c 4150 4248     YPE=DECERR.PPAHB
80005e60:	500b 5444 4d43 500a 5449 4d43 4909 4f50     .PDTCM.PITCM.IPO
80005e70:	5349 4e4f 4907 4345 0443 4549 5050 0342     ISON.IECC.IEPPB.
80005e80:	4d49 5841 0649 4d49 5841 5449 5059 3d45     IMAXI.IMAXITYPE=
80005e90:	4544 4543 5252 4902 4150 4248 4901 5444     DECERR.IPAHB.IDT
80005ea0:	4d43 4900 5449 4d43 0020                    CM.IITCM .

80005eaa <sfsr_bits>:
80005eaa:	4c07 4553 5252 5306 4146 5652 4c41 4449     .LSERR.SFARVALID
80005eba:	4c05 5053 5245 0452 4e49 5456 4152 034e     .LSPERR.INVTRAN.
80005eca:	5541 4956 4c4f 4902 564e 5245 4901 564e     AUVIOL.INVER.INV
80005eda:	5349 4900 564e 5045 0020                    IS.INVEP .

80005ee4 <dfsr_bits>:
80005ee4:	5005 554d 4504 5458 5245 414e 034c 4356     .PMU.EXTERNAL.VC
80005ef4:	5441 4843 4402 5457 5254 5041 4201 504b     ATCH.DWTTRAP.BKP
80005f04:	0054 4148 544c 4445 0020                    T.HALTED .

80005f0e <hfsr_bits>:
80005f0e:	441f 4245 4755 5645 1e54 4f46 4352 4445     .DEBUGEVT.FORCED
80005f1e:	5601 4345 4254 204c                          .VECTBL .

80005f27 <.L.str.1>:
80005f27:	2043 6552 6566 6572 636e 2065 2528 2964     C Reference (%d)
80005f37:	203a 6625 202c 6625 202c 6625 0a0d           : %f, %f, %f...

80005f46 <.Lstr>:
80005f46:	0a0d 6548 6c6c 206f 6f57 6c72 2164 000d     ..Hello World!..

80005f56 <.L.str.16>:
80005f56:	450a 4358 525f 5445 5255 204e 203d 3025     .EXC_RETURN = %0
80005f66:	5838 0a0a 6552 6967 7473 7265 6420 6d75     8X..Register dum
80005f76:	2070 7328 6f74 6572 2064 7461 2620 3025     p (stored at &%0
80005f86:	5838 2029 7369 0a3a                          8X) is:..

80005f8f <.Lstr>:
80005f8f:	3d0a 3d3d 203d 7453 6361 206b 7564 706d     .==== Stack dump
80005f9f:	3d20 3d3d 0a3d                                ====..

80005fa6 <.L.str.24>:
80005fa6:	7453 6361 206b 6f74 2070 7266 6d6f 5620     Stack top from V
80005fb6:	4f54 3a52 2520 3830 0a58                     TOR: %08X..

80005fc1 <.L.str.22>:
80005fc1:	5350 2052 203d 3025 5838 000a               PSR = %08X..

80005fcd <.L.str.23>:
80005fcd:	7845 6563 7470 6f69 206e 6425 000a          Exception %d..

80005fdb <.L.str.29>:
80005fdb:	2020 2020 2020 2020                                 

80005fe3 <.L.str.30>:
80005fe3:	2020 2020                                        .

80005fe8 <.L.str.4>:
80005fe8:	202c                                         , .

80005feb <.L.str.3>:
80005feb:	2820                                          (.

80005fee <.L.str.6>:
80005fee:	0029                                        ).

80005ff0 <.L.str.28>:
80005ff0:	2020 2020 3025 5838                              %08X.

80005ff9 <.Lstr.38>:
80005ff9:	6441 7264 7365 2073 3a20 2020 2020 3320     Address  :     3
80006009:	3220 3120 3020 2020 2020 3720 3620 3520      2 1 0     7 6 5
80006019:	3420 2020 2020 4220 4120 3920 3820 2020      4     B A 9 8  
80006029:	2020 4620 4520 4420 4320 2020 2020 2020        F E D C      
80006039:	4120 4353 4949 4420 7461 0061                ASCII Data.

80006045 <.L.str.17>:
80006045:	2552 332d 3d64 2520 3830 2558 0063 654d     R%-3d= %08X%c.Me
80006055:	4d6d 6e61 6761 0065 6544 7562 4d67 6e6f     mManage.DebugMon
80006065:	7469 726f                                    itor.

8000606a <.L.str.2>:
8000606a:	7325 2e25 732a 4800 7261 4664 7561 746c     %s%.*s.HardFault
8000607a:	5500 6173 6567 6146 6c75 0074 6553 7563     .UsageFault.Secu
8000608a:	6572 6146 6c75 0074 7542 4673 7561 746c     reFault.BusFault

8000609a <.L.str.5>:
	...

8000609b <.L.str>:
8000609b:	6554 6d72 6e69 6c61                          Terminal.

800060a4 <.L.str>:
800060a4:	5f5f 7863 5f61 7567 7261 5f64 6361 7571     __cxa_guard_acqu
800060b4:	7269 2065 6564 6574 7463 6465 7220 6365     ire detected rec
800060c4:	7275 6973 6576 6920 696e 6974 6c61 7a69     ursive initializ
800060d4:	7461 6f69 3a6e 6420 206f 6f79 2075 6168     ation: do you ha
800060e4:	6576 6120 6620 6e75 7463 6f69 2d6e 6f6c     ve a function-lo
800060f4:	6163 206c 7473 7461 6369 7620 7261 6169     cal static varia
80006104:	6c62 2065 6877 736f 2065 6e69 7469 6169     ble whose initia
80006114:	696c 617a 6974 6e6f 6420 7065 6e65 7364     lization depends
80006124:	6f20 206e 6874 7461 6620 6e75 7463 6f69      on that functio
80006134:	3f6e 0000                                   n?..

80006138 <Region$$Table$$Base>:
Region$$Table$$Base():
80006138:	80006180 	.word	0x80006180
8000613c:	20000000 	.word	0x20000000
80006140:	00000698 	.word	0x00000698
80006144:	80000824 	.word	0x80000824
80006148:	80006818 	.word	0x80006818
8000614c:	20000698 	.word	0x20000698
80006150:	00000a8c 	.word	0x00000a8c
80006154:	80000844 	.word	0x80000844

80006158 <Region$$Table$$Limit>:
Region$$Table$$Limit():
80006158:	0000001c 	.word	0x0000001c

8000615c <__lcnum_c_name>:
8000615c:	00000043 fffffff8                       C.......

80006164 <__lcnum_c_start>:
80006164:	0000000c 0000000e 0000000f              ............

80006170 <__lcnum_c_point>:
80006170:	                                         ..

80006172 <__lcnum_c_thousands>:
	...

80006173 <__lcnum_c_grouping>:
	...

80006174 <__lcnum_c_end>:
SHT$$INIT_ARRAY$$Base():
80006174:	ffffda7d ffffdac1 ffffdb01              }...........
